 sdk_demo_v2

 Timestamp is 605787cd (Sun Mar 21 10:52:13 2021)

 Preferred load address is 00400000

 Start         Length     Name                   Class
 0001:00000000 000000c0H .text$di                CODE
 0001:000000c0 000b10f0H .text$mn                CODE
 0001:000b11b0 00003fb0H .text$x                 CODE
 0001:000b5160 00000079H .text$yd                CODE
 0002:00000000 00000660H .idata$5                DATA
 0002:00000660 00000004H .00cfg                  DATA
 0002:00000664 00000004H .CRT$XCA                DATA
 0002:00000668 00000004H .CRT$XCAA               DATA
 0002:0000066c 00000004H .CRT$XCL                DATA
 0002:00000670 00000014H .CRT$XCU                DATA
 0002:00000684 00000004H .CRT$XCZ                DATA
 0002:00000688 00000004H .CRT$XIA                DATA
 0002:0000068c 00000004H .CRT$XIAA               DATA
 0002:00000690 00000004H .CRT$XIAC               DATA
 0002:00000694 00000004H .CRT$XIC                DATA
 0002:00000698 00000004H .CRT$XIZ                DATA
 0002:0000069c 00000004H .CRT$XLA                DATA
 0002:000006a0 00000004H .CRT$XLZ                DATA
 0002:000006a4 00000004H .CRT$XPA                DATA
 0002:000006a8 00000004H .CRT$XPZ                DATA
 0002:000006ac 00000004H .CRT$XTA                DATA
 0002:000006b0 00000010H .CRT$XTZ                DATA
 0002:000006b4 00000000H .gfids$y                DATA
 0002:000006c0 000208c0H .rdata                  DATA
 0002:00020f80 00000000H .rdata$CastGuardVftablesA DATA
 0002:00020f80 00000000H .rdata$CastGuardVftablesC DATA
 0002:00020f80 00000018H .rdata$T                DATA
 0002:00020f98 00005150H .rdata$r                DATA
 0002:000260e8 0000033cH .rdata$sxdata           DATA
 0002:00026424 000003c4H .rdata$zzzdbg           DATA
 0002:000267e8 00000004H .rtc$IAA                DATA
 0002:000267ec 00000004H .rtc$IZZ                DATA
 0002:000267f0 00000004H .rtc$TAA                DATA
 0002:000267f4 00000004H .rtc$TZZ                DATA
 0002:000267f8 00000004H .tls                    DATA
 0002:000267fc 00000004H .tls$                   DATA
 0002:00026800 00000008H .tls$ZZZ                DATA
 0002:00026808 00003050H .xdata$x                DATA
 0002:00029858 00000000H ATL$__a                 DATA
 0002:00029858 00000000H ATL$__z                 DATA
 0002:00029858 00000000H .edata                  DATA
 0002:00029858 000001ccH .idata$2                DATA
 0002:00029a24 00000014H .idata$3                DATA
 0002:00029a38 00000660H .idata$4                DATA
 0002:0002a098 000022a0H .idata$6                DATA
 0003:00000000 00000348H .data                   DATA
 0003:00000348 00000a98H .data$r                 DATA
 0003:00000de0 000018f0H .data$rs                DATA
 0003:000026d0 00000950H .bss                    DATA
 0004:00000000 000036c0H .rsrc$01                DATA
 0004:000036c0 0007ea40H .rsrc$02                DATA

  Address         Publics by Value              Rva+Base       Lib:Object

 0000:00000000       ___guard_eh_cont_table     00000000     <absolute>
 0000:00000000       ___x64_code_ranges_to_entry_points_count 00000000     <absolute>
 0000:00000000       ___hybrid_code_map         00000000     <absolute>
 0000:00000000       ___arm64x_extra_rfe_table_size 00000000     <absolute>
 0000:00000000       ___guard_iat_table         00000000     <absolute>
 0000:00000000       ___x64_code_ranges_to_entry_points 00000000     <absolute>
 0000:00000000       ___guard_fids_count        00000000     <absolute>
 0000:00000000       ___arm64x_native_entrypoint 00000000     <absolute>
 0000:00000000       ___guard_longjmp_table     00000000     <absolute>
 0000:00000000       ___guard_iat_count         00000000     <absolute>
 0000:00000000       ___volatile_metadata       00000000     <absolute>
 0000:00000000       ___arm64x_extra_rfe_table  00000000     <absolute>
 0000:00000000       ___arm64x_redirection_metadata 00000000     <absolute>
 0000:00000000       ___guard_longjmp_count     00000000     <absolute>
 0000:00000000       ___hybrid_auxiliary_iat    00000000     <absolute>
 0000:00000000       ___dynamic_value_reloc_table 00000000     <absolute>
 0000:00000000       ___arm64x_redirection_metadata_count 00000000     <absolute>
 0000:00000000       ___AbsoluteZero            00000000     <absolute>
 0000:00000000       ___enclave_config          00000000     <absolute>
 0000:00000000       ___guard_fids_table        00000000     <absolute>
 0000:00000000       ___guard_eh_cont_count     00000000     <absolute>
 0000:00000000       ___hybrid_code_map_count   00000000     <absolute>
 0000:0000002c       __tls_array                0000002c     <absolute>
 0000:000000cf       ___safe_se_handler_count   000000cf     <absolute>
 0000:00000100       ___guard_flags             00000100     <absolute>
 0000:00000000       ___ImageBase               00400000     <linker-defined>
 0001:000000c0       ??$?0$$V@?$_Compressed_pair@V?$allocator@_W@std@@V?$_String_val@U?$_Simple_types@_W@std@@@2@$00@std@@QAE@U_Zero_then_variadic_args_t@1@@Z 004010c0 f i AnnotateBarWindow.obj
 0001:000000e0       ??$?8_WU?$char_traits@_W@std@@V?$allocator@_W@1@@std@@YA_NABV?$basic_string@_WU?$char_traits@_W@std@@V?$allocator@_W@2@@0@QB_W@Z 004010e0 f i AnnotateBarWindow.obj
 0001:00000100       ??$?9_WU?$char_traits@_W@std@@V?$allocator@_W@1@@std@@YA_NABV?$basic_string@_WU?$char_traits@_W@std@@V?$allocator@_W@2@@0@QB_W@Z 00401100 f i AnnotateBarWindow.obj
 0001:00000140       ??$_Allocate@$07U_Default_allocate_traits@std@@$0A@@std@@YAPAXI@Z 00401140 f i AnnotateBarWindow.obj
 0001:00000180       ??$_Allocate_manually_vector_aligned@U_Default_allocate_traits@std@@@std@@YAPAXI@Z 00401180 f i AnnotateBarWindow.obj
 0001:000001f0       ??$_Construct_in_place@PAU?$_Tree_node@PAVIClosedCaptionControllerEvent@ZOOMSDK@@PAX@std@@AAPAU12@@std@@YAXAAPAU?$_Tree_node@PAVIClosedCaptionControllerEvent@ZOOMSDK@@PAX@0@0@Z 004011f0 f i sdk_util.obj
 0001:000001f0       ??$_Construct_in_place@PA_WABQA_W@std@@YAXAAPA_WABQA_W@Z 004011f0 f i AnnotateBarWindow.obj
 0001:000001f0       ??$_Construct_in_place@PAU?$_Tree_node@PAVIMeetingVideoCtrlEvent@ZOOMSDK@@PAX@std@@AAPAU12@@std@@YAXAAPAU?$_Tree_node@PAVIMeetingVideoCtrlEvent@ZOOMSDK@@PAX@0@0@Z 004011f0 f i sdk_util.obj
 0001:000001f0       ??$_Construct_in_place@PAU?$_List_node@HPAX@std@@AAPAU12@@std@@YAXAAPAU?$_List_node@HPAX@0@0@Z 004011f0 f i participant_ui.obj
 0001:000001f0       ??$_Construct_in_place@PAU?$_Tree_node@PAVIMeetingParticipantsCtrlEvent@ZOOMSDK@@PAX@std@@ABQAU12@@std@@YAXAAPAU?$_Tree_node@PAVIMeetingParticipantsCtrlEvent@ZOOMSDK@@PAX@0@ABQAU10@@Z 004011f0 f i sdk_util.obj
 0001:000001f0       ??$_Construct_in_place@PAU?$_Tree_node@PAVIMeetingVideoCtrlEvent@ZOOMSDK@@PAX@std@@ABQAU12@@std@@YAXAAPAU?$_Tree_node@PAVIMeetingVideoCtrlEvent@ZOOMSDK@@PAX@0@ABQAU10@@Z 004011f0 f i sdk_util.obj
 0001:000001f0       ??$_Construct_in_place@PAU?$_Tree_node@PAVIAuthServiceEvent@ZOOMSDK@@PAX@std@@AAPAU12@@std@@YAXAAPAU?$_Tree_node@PAVIAuthServiceEvent@ZOOMSDK@@PAX@0@0@Z 004011f0 f i sdk_util.obj
 0001:000001f0       ??$_Construct_in_place@PAU?$_Tree_node@U?$pair@$$CBHW4bkItemType@@@std@@PAX@std@@ABQAU12@@std@@YAXAAPAU?$_Tree_node@U?$pair@$$CBHW4bkItemType@@@std@@PAX@0@ABQAU10@@Z 004011f0 f i settings_ui.obj
 0001:000001f0       ??$_Construct_in_place@PAU?$_Tree_node@PAVIClosedCaptionControllerEvent@ZOOMSDK@@PAX@std@@ABQAU12@@std@@YAXAAPAU?$_Tree_node@PAVIClosedCaptionControllerEvent@ZOOMSDK@@PAX@0@ABQAU10@@Z 004011f0 f i sdk_util.obj
 0001:000001f0       ??$_Construct_in_place@PAU?$_Tree_node@PAVIMeetingServiceEvent@ZOOMSDK@@PAX@std@@ABQAU12@@std@@YAXAAPAU?$_Tree_node@PAVIMeetingServiceEvent@ZOOMSDK@@PAX@0@ABQAU10@@Z 004011f0 f i sdk_util.obj
 0001:000001f0       ??$_Construct_in_place@PAU?$_Tree_node@PAVIMeetingParticipantsCtrlEvent@ZOOMSDK@@PAX@std@@AAPAU12@@std@@YAXAAPAU?$_Tree_node@PAVIMeetingParticipantsCtrlEvent@ZOOMSDK@@PAX@0@0@Z 004011f0 f i sdk_util.obj
 0001:000001f0       ??$_Construct_in_place@PAU?$_Tree_node@PAVIMeetingChatCtrlEvent@ZOOMSDK@@PAX@std@@ABQAU12@@std@@YAXAAPAU?$_Tree_node@PAVIMeetingChatCtrlEvent@ZOOMSDK@@PAX@0@ABQAU10@@Z 004011f0 f i sdk_util.obj
 0001:000001f0       ??$_Construct_in_place@PAU?$_Tree_node@PAVISDKInMeetingServiceMgrEvent@@PAX@std@@AAPAU12@@std@@YAXAAPAU?$_Tree_node@PAVISDKInMeetingServiceMgrEvent@@PAX@0@0@Z 004011f0 f i sdk_util.obj
 0001:000001f0       ??$_Construct_in_place@PAU?$_Tree_node@PAVIAuthServiceEvent@ZOOMSDK@@PAX@std@@ABQAU12@@std@@YAXAAPAU?$_Tree_node@PAVIAuthServiceEvent@ZOOMSDK@@PAX@0@ABQAU10@@Z 004011f0 f i sdk_util.obj
 0001:000001f0       ??$_Construct_in_place@PAU?$_Tree_node@U?$pair@$$CBIPAVIUserInfo@ZOOMSDK@@@std@@PAX@std@@AAPAU12@@std@@YAXAAPAU?$_Tree_node@U?$pair@$$CBIPAVIUserInfo@ZOOMSDK@@@std@@PAX@0@0@Z 004011f0 f i user_manager.obj
 0001:000001f0       ??$_Construct_in_place@PAU?$_Tree_node@U?$pair@$$CBHW4bkItemType@@@std@@PAX@std@@AAPAU12@@std@@YAXAAPAU?$_Tree_node@U?$pair@$$CBHW4bkItemType@@@std@@PAX@0@0@Z 004011f0 f i settings_ui.obj
 0001:000001f0       ??$_Construct_in_place@PAU?$_Tree_node@PAVIMeetingChatCtrlEvent@ZOOMSDK@@PAX@std@@AAPAU12@@std@@YAXAAPAU?$_Tree_node@PAVIMeetingChatCtrlEvent@ZOOMSDK@@PAX@0@0@Z 004011f0 f i sdk_util.obj
 0001:000001f0       ??$_Construct_in_place@PAU?$_Tree_node@U?$pair@$$CBIPAVIUserInfo@ZOOMSDK@@@std@@PAX@std@@ABQAU12@@std@@YAXAAPAU?$_Tree_node@U?$pair@$$CBIPAVIUserInfo@ZOOMSDK@@@std@@PAX@0@ABQAU10@@Z 004011f0 f i user_manager.obj
 0001:000001f0       ??$_Construct_in_place@PAU?$_Tree_node@PAVIMeetingServiceEvent@ZOOMSDK@@PAX@std@@AAPAU12@@std@@YAXAAPAU?$_Tree_node@PAVIMeetingServiceEvent@ZOOMSDK@@PAX@0@0@Z 004011f0 f i sdk_util.obj
 0001:000001f0       ??$_Construct_in_place@PAU?$_List_node@HPAX@std@@ABQAU12@@std@@YAXAAPAU?$_List_node@HPAX@0@ABQAU10@@Z 004011f0 f i participant_ui.obj
 0001:000001f0       ??$_Construct_in_place@PAU?$_Tree_node@PAVIPreMeetingServiceEvent@ZOOMSDK@@PAX@std@@ABQAU12@@std@@YAXAAPAU?$_Tree_node@PAVIPreMeetingServiceEvent@ZOOMSDK@@PAX@0@ABQAU10@@Z 004011f0 f i sdk_util.obj
 0001:000001f0       ??$_Construct_in_place@PAU?$_Tree_node@PAVIPreMeetingServiceEvent@ZOOMSDK@@PAX@std@@AAPAU12@@std@@YAXAAPAU?$_Tree_node@PAVIPreMeetingServiceEvent@ZOOMSDK@@PAX@0@0@Z 004011f0 f i sdk_util.obj
 0001:000001f0       ??$_Construct_in_place@PAU?$_Tree_node@PAVISDKInMeetingServiceMgrEvent@@PAX@std@@ABQAU12@@std@@YAXAAPAU?$_Tree_node@PAVISDKInMeetingServiceMgrEvent@@PAX@0@ABQAU10@@Z 004011f0 f i sdk_util.obj
 0001:00000230       ??$_Get_unwrapped@AAV?$_Tree_unchecked_const_iterator@V?$_Tree_val@U?$_Tree_simple_types@PAVIMeetingChatCtrlEvent@ZOOMSDK@@@std@@@std@@U_Iterator_base0@2@@std@@@std@@YAAAV?$_Tree_unchecked_const_iterator@V?$_Tree_val@U?$_Tree_simple_types@PAVIMeetingChatCtrlEvent@ZOOMSDK@@@std@@@std@@U_Iterator_base0@2@@0@AAV10@@Z 00401230 f i sdk_util.obj
 0001:00000230       ??$_Get_unwrapped@AAV?$_Tree_unchecked_const_iterator@V?$_Tree_val@U?$_Tree_simple_types@PAVIMeetingServiceEvent@ZOOMSDK@@@std@@@std@@U_Iterator_base0@2@@std@@@std@@YAAAV?$_Tree_unchecked_const_iterator@V?$_Tree_val@U?$_Tree_simple_types@PAVIMeetingServiceEvent@ZOOMSDK@@@std@@@std@@U_Iterator_base0@2@@0@AAV10@@Z 00401230 f i sdk_util.obj
 0001:00000230       ??$addressof@PAU?$_Tree_node@PAVIPreMeetingServiceEvent@ZOOMSDK@@PAX@std@@@std@@YAPAPAU?$_Tree_node@PAVIPreMeetingServiceEvent@ZOOMSDK@@PAX@0@AAPAU10@@Z 00401230 f i sdk_util.obj
 0001:00000230       ??$addressof@PAVIAuthServiceEvent@ZOOMSDK@@@std@@YAPAPAVIAuthServiceEvent@ZOOMSDK@@AAPAV12@@Z 00401230 f i sdk_util.obj
 0001:00000230       ??$addressof@_W@std@@YAPA_WAA_W@Z 00401230 f i schedule_meeting_ui.obj
 0001:00000230       ??$_Get_unwrapped@AAV?$_Tree_unchecked_const_iterator@V?$_Tree_val@U?$_Tree_simple_types@PAVIClosedCaptionControllerEvent@ZOOMSDK@@@std@@@std@@U_Iterator_base0@2@@std@@@std@@YAAAV?$_Tree_unchecked_const_iterator@V?$_Tree_val@U?$_Tree_simple_types@PAVIClosedCaptionControllerEvent@ZOOMSDK@@@std@@@std@@U_Iterator_base0@2@@0@AAV10@@Z 00401230 f i sdk_util.obj
 0001:00000230       ??$addressof@PAU?$_Tree_node@PAVIMeetingChatCtrlEvent@ZOOMSDK@@PAX@std@@@std@@YAPAPAU?$_Tree_node@PAVIMeetingChatCtrlEvent@ZOOMSDK@@PAX@0@AAPAU10@@Z 00401230 f i sdk_util.obj
 0001:00000230       ??$addressof@V?$_String_val@U?$_Simple_types@_W@std@@@std@@@std@@YAPAV?$_String_val@U?$_Simple_types@_W@std@@@0@AAV10@@Z 00401230 f i chat_controller_ui.obj
 0001:00000230       ??$addressof@PAU?$_Tree_node@PAVIMeetingVideoCtrlEvent@ZOOMSDK@@PAX@std@@@std@@YAPAPAU?$_Tree_node@PAVIMeetingVideoCtrlEvent@ZOOMSDK@@PAX@0@AAPAU10@@Z 00401230 f i sdk_util.obj
 0001:00000230       ??$forward@V?$tuple@$$V@std@@@std@@YA$$QAV?$tuple@$$V@0@AAV10@@Z 00401230 f i user_manager.obj
 0001:00000230       ??$addressof@PAU?$_Tree_node@PAVIMeetingParticipantsCtrlEvent@ZOOMSDK@@PAX@std@@@std@@YAPAPAU?$_Tree_node@PAVIMeetingParticipantsCtrlEvent@ZOOMSDK@@PAX@0@AAPAU10@@Z 00401230 f i sdk_util.obj
 0001:00000230       ??$forward@PAU?$_Tree_node@U?$pair@$$CBIPAVIUserInfo@ZOOMSDK@@@std@@PAX@std@@@std@@YA$$QAPAU?$_Tree_node@U?$pair@$$CBIPAVIUserInfo@ZOOMSDK@@@std@@PAX@0@AAPAU10@@Z 00401230 f i user_manager.obj
 0001:00000230       ??$forward@AAPAU?$_Tree_node@PAVIMeetingParticipantsCtrlEvent@ZOOMSDK@@PAX@std@@@std@@YAAAPAU?$_Tree_node@PAVIMeetingParticipantsCtrlEvent@ZOOMSDK@@PAX@0@AAPAU10@@Z 00401230 f i sdk_util.obj
 0001:00000230       ??$forward@ABH@std@@YAABHABH@Z 00401230 f i participant_ui.obj
 0001:00000230       ??$forward@ABQAVIAuthServiceEvent@ZOOMSDK@@@std@@YAABQAVIAuthServiceEvent@ZOOMSDK@@ABQAV12@@Z 00401230 f i sdk_util.obj
 0001:00000230       ??$forward@AAPAU?$_Tree_node@PAVIPreMeetingServiceEvent@ZOOMSDK@@PAX@std@@@std@@YAAAPAU?$_Tree_node@PAVIPreMeetingServiceEvent@ZOOMSDK@@PAX@0@AAPAU10@@Z 00401230 f i sdk_util.obj
 0001:00000230       ??$addressof@V?$_List_val@U?$_List_simple_types@H@std@@@std@@@std@@YAPAV?$_List_val@U?$_List_simple_types@H@std@@@0@AAV10@@Z 00401230 f i participant_ui.obj
 0001:00000230       ??$addressof@$$CBV?$_Tree_val@U?$_Tree_simple_types@PAVIMeetingServiceEvent@ZOOMSDK@@@std@@@std@@@std@@YAPBV?$_Tree_val@U?$_Tree_simple_types@PAVIMeetingServiceEvent@ZOOMSDK@@@std@@@0@ABV10@@Z 00401230 f i sdk_util.obj
 0001:00000230       ??$addressof@PAU?$_Tree_node@PAVIMeetingServiceEvent@ZOOMSDK@@PAX@std@@@std@@YAPAPAU?$_Tree_node@PAVIMeetingServiceEvent@ZOOMSDK@@PAX@0@AAPAU10@@Z 00401230 f i sdk_util.obj
 0001:00000230       ??$forward@AAPAU?$_List_node@HPAX@std@@@std@@YAAAPAU?$_List_node@HPAX@0@AAPAU10@@Z 00401230 f i participant_ui.obj
 0001:00000230       ??$_Unfancy@PAVIAlternativeHostInfo@ZOOMSDK@@@std@@YAPAPAVIAlternativeHostInfo@ZOOMSDK@@PAPAV12@@Z 00401230 f i schedule_meeting_ui.obj
 0001:00000230       ??$forward@ABQAVISDKInMeetingServiceMgrEvent@@@std@@YAABQAVISDKInMeetingServiceMgrEvent@@ABQAV1@@Z 00401230 f i sdk_util.obj
 0001:00000230       ??$move@AAV?$basic_string@_WU?$char_traits@_W@std@@V?$allocator@_W@2@@std@@@std@@YA$$QAV?$basic_string@_WU?$char_traits@_W@std@@V?$allocator@_W@2@@0@AAV10@@Z 00401230 f i chat_controller_ui.obj
 0001:00000230       ?_Extract@?$_In_place_key_extract_set@PAVIAuthServiceEvent@ZOOMSDK@@PAV12@@std@@SAABQAVIAuthServiceEvent@ZOOMSDK@@ABQAV34@@Z 00401230 f i sdk_util.obj
 0001:00000230       ?_Extract@?$_In_place_key_extract_set@PAVIClosedCaptionControllerEvent@ZOOMSDK@@PAV12@@std@@SAABQAVIClosedCaptionControllerEvent@ZOOMSDK@@ABQAV34@@Z 00401230 f i sdk_util.obj
 0001:00000230       ??$forward@ABQAU?$_Tree_node@PAVISDKInMeetingServiceMgrEvent@@PAX@std@@@std@@YAABQAU?$_Tree_node@PAVISDKInMeetingServiceMgrEvent@@PAX@0@ABQAU10@@Z 00401230 f i sdk_util.obj
 0001:00000230       ??$addressof@V?$_Tree_val@U?$_Tree_simple_types@PAVIMeetingChatCtrlEvent@ZOOMSDK@@@std@@@std@@@std@@YAPAV?$_Tree_val@U?$_Tree_simple_types@PAVIMeetingChatCtrlEvent@ZOOMSDK@@@std@@@0@AAV10@@Z 00401230 f i sdk_util.obj
 0001:00000230       ??$addressof@V?$_Tree_val@U?$_Tree_simple_types@PAVIMeetingServiceEvent@ZOOMSDK@@@std@@@std@@@std@@YAPAV?$_Tree_val@U?$_Tree_simple_types@PAVIMeetingServiceEvent@ZOOMSDK@@@std@@@0@AAV10@@Z 00401230 f i sdk_util.obj
 0001:00000230       ??$forward@V?$basic_string@_WU?$char_traits@_W@std@@V?$allocator@_W@2@@std@@@std@@YA$$QAV?$basic_string@_WU?$char_traits@_W@std@@V?$allocator@_W@2@@0@AAV10@@Z 00401230 f i custom_ui_share_flow.obj
 0001:00000230       ?_Kfn@?$_Tset_traits@PAVIPreMeetingServiceEvent@ZOOMSDK@@U?$less@PAVIPreMeetingServiceEvent@ZOOMSDK@@@std@@V?$allocator@PAVIPreMeetingServiceEvent@ZOOMSDK@@@4@$0A@@std@@SAABQAVIPreMeetingServiceEvent@ZOOMSDK@@ABQAV34@@Z 00401230 f i sdk_util.obj
 0001:00000230       ??$addressof@PAVIClosedCaptionControllerEvent@ZOOMSDK@@@std@@YAPAPAVIClosedCaptionControllerEvent@ZOOMSDK@@AAPAV12@@Z 00401230 f i sdk_util.obj
 0001:00000230       ??$_Kfn@$$CBIPAVIUserInfo@ZOOMSDK@@@?$_Tmap_traits@IPAVIUserInfo@ZOOMSDK@@U?$less@I@std@@V?$allocator@U?$pair@$$CBIPAVIUserInfo@ZOOMSDK@@@std@@@4@$0A@@std@@SAABIABU?$pair@$$CBIPAVIUserInfo@ZOOMSDK@@@1@@Z 00401230 f i user_manager.obj
 0001:00000230       ??$forward@PAU?$_Tree_node@PAVIMeetingParticipantsCtrlEvent@ZOOMSDK@@PAX@std@@@std@@YA$$QAPAU?$_Tree_node@PAVIMeetingParticipantsCtrlEvent@ZOOMSDK@@PAX@0@AAPAU10@@Z 00401230 f i sdk_util.obj
 0001:00000230       ??$forward@AAV?$allocator@_W@std@@@std@@YAAAV?$allocator@_W@0@AAV10@@Z 00401230 f i chat_controller_ui.obj
 0001:00000230       ?_Kfn@?$_Tset_traits@PAVISDKInMeetingServiceMgrEvent@@U?$less@PAVISDKInMeetingServiceMgrEvent@@@std@@V?$allocator@PAVISDKInMeetingServiceMgrEvent@@@3@$0A@@std@@SAABQAVISDKInMeetingServiceMgrEvent@@ABQAV3@@Z 00401230 f i sdk_util.obj
 0001:00000230       ??$forward@V?$tuple@ABI@std@@@std@@YA$$QAV?$tuple@ABI@0@AAV10@@Z 00401230 f i user_manager.obj
 0001:00000230       ?_Extract@?$_In_place_key_extract_set@PAVIMeetingChatCtrlEvent@ZOOMSDK@@PAV12@@std@@SAABQAVIMeetingChatCtrlEvent@ZOOMSDK@@ABQAV34@@Z 00401230 f i sdk_util.obj
 0001:00000230       ??$forward@ABU?$less@PAVIMeetingChatCtrlEvent@ZOOMSDK@@@std@@@std@@YAABU?$less@PAVIMeetingChatCtrlEvent@ZOOMSDK@@@0@ABU10@@Z 00401230 f i sdk_util.obj
 0001:00000230       ??$addressof@$$CBV?$_Tree_val@U?$_Tree_simple_types@PAVIMeetingVideoCtrlEvent@ZOOMSDK@@@std@@@std@@@std@@YAPBV?$_Tree_val@U?$_Tree_simple_types@PAVIMeetingVideoCtrlEvent@ZOOMSDK@@@std@@@0@ABV10@@Z 00401230 f i sdk_util.obj
 0001:00000230       ??$move@AAD@std@@YA$$QADAAD@Z 00401230 f i sdk_util.obj
 0001:00000230       ??$forward@AAW4bkItemType@@@std@@YAAAW4bkItemType@@AAW41@@Z 00401230 f i settings_ui.obj
 0001:00000230       ??$forward@AAPAU?$_Tree_node@U?$pair@$$CBIPAVIUserInfo@ZOOMSDK@@@std@@PAX@std@@@std@@YAAAPAU?$_Tree_node@U?$pair@$$CBIPAVIUserInfo@ZOOMSDK@@@std@@PAX@0@AAPAU10@@Z 00401230 f i user_manager.obj
 0001:00000230       ??$forward@V?$allocator@_W@std@@@std@@YA$$QAV?$allocator@_W@0@AAV10@@Z 00401230 f i chat_controller_ui.obj
 0001:00000230       ??$forward@ABQAVIMeetingVideoCtrlEvent@ZOOMSDK@@@std@@YAABQAVIMeetingVideoCtrlEvent@ZOOMSDK@@ABQAV12@@Z 00401230 f i sdk_util.obj
 0001:00000230       ??$forward@_N@std@@YA$$QA_NAA_N@Z 00401230 f i sdk_util.obj
 0001:00000230       ??$forward@ABU?$less@PAVISDKInMeetingServiceMgrEvent@@@std@@@std@@YAABU?$less@PAVISDKInMeetingServiceMgrEvent@@@0@ABU10@@Z 00401230 f i sdk_util.obj
 0001:00000230       ??$forward@V?$_Tree_const_iterator@V?$_Tree_val@U?$_Tree_simple_types@PAVISDKInMeetingServiceMgrEvent@@@std@@@std@@@std@@@std@@YA$$QAV?$_Tree_const_iterator@V?$_Tree_val@U?$_Tree_simple_types@PAVISDKInMeetingServiceMgrEvent@@@std@@@std@@@0@AAV10@@Z 00401230 f i sdk_util.obj
 0001:00000230       ??$forward@ABQAU?$_Tree_node@PAVIMeetingServiceEvent@ZOOMSDK@@PAX@std@@@std@@YAABQAU?$_Tree_node@PAVIMeetingServiceEvent@ZOOMSDK@@PAX@0@ABQAU10@@Z 00401230 f i sdk_util.obj
 0001:00000230       ??$forward@V?$_Tree_const_iterator@V?$_Tree_val@U?$_Tree_simple_types@PAVIAuthServiceEvent@ZOOMSDK@@@std@@@std@@@std@@@std@@YA$$QAV?$_Tree_const_iterator@V?$_Tree_val@U?$_Tree_simple_types@PAVIAuthServiceEvent@ZOOMSDK@@@std@@@std@@@0@AAV10@@Z 00401230 f i sdk_util.obj
 0001:00000230       ??$forward@AB_N@std@@YAAB_NAB_N@Z 00401230 f i sdk_util.obj
 0001:00000230       ??$forward@ABQAU?$_Tree_node@PAVIPreMeetingServiceEvent@ZOOMSDK@@PAX@std@@@std@@YAABQAU?$_Tree_node@PAVIPreMeetingServiceEvent@ZOOMSDK@@PAX@0@ABQAU10@@Z 00401230 f i sdk_util.obj
 0001:00000230       ??$_Unfancy@V?$basic_string@_WU?$char_traits@_W@std@@V?$allocator@_W@2@@std@@@std@@YAPAV?$basic_string@_WU?$char_traits@_W@std@@V?$allocator@_W@2@@0@PAV10@@Z 00401230 f i custom_ui_share_flow.obj
 0001:00000230       ??$forward@ABQAVIAlternativeHostInfo@ZOOMSDK@@@std@@YAABQAVIAlternativeHostInfo@ZOOMSDK@@ABQAV12@@Z 00401230 f i schedule_meeting_ui.obj
 0001:00000230       ??$_Get_unwrapped@AAV?$_Tree_unchecked_const_iterator@V?$_Tree_val@U?$_Tree_simple_types@PAVIAuthServiceEvent@ZOOMSDK@@@std@@@std@@U_Iterator_base0@2@@std@@@std@@YAAAV?$_Tree_unchecked_const_iterator@V?$_Tree_val@U?$_Tree_simple_types@PAVIAuthServiceEvent@ZOOMSDK@@@std@@@std@@U_Iterator_base0@2@@0@AAV10@@Z 00401230 f i sdk_util.obj
 0001:00000230       ??$forward@ABV?$basic_string@_WU?$char_traits@_W@std@@V?$allocator@_W@2@@std@@@std@@YAABV?$basic_string@_WU?$char_traits@_W@std@@V?$allocator@_W@2@@0@ABV10@@Z 00401230 f i schedule_meeting_ui.obj
 0001:00000230       ??$forward@PAU?$_Tree_node@PAVIClosedCaptionControllerEvent@ZOOMSDK@@PAX@std@@@std@@YA$$QAPAU?$_Tree_node@PAVIClosedCaptionControllerEvent@ZOOMSDK@@PAX@0@AAPAU10@@Z 00401230 f i sdk_util.obj
 0001:00000230       ??$addressof@PAU?$_Tree_node@U?$pair@$$CBHW4bkItemType@@@std@@PAX@std@@@std@@YAPAPAU?$_Tree_node@U?$pair@$$CBHW4bkItemType@@@std@@PAX@0@AAPAU10@@Z 00401230 f i settings_ui.obj
 0001:00000230       ??$addressof@PAVIMeetingChatCtrlEvent@ZOOMSDK@@@std@@YAPAPAVIMeetingChatCtrlEvent@ZOOMSDK@@AAPAV12@@Z 00401230 f i sdk_util.obj
 0001:00000230       ??$forward@ABQAU?$_Tree_node@PAVIAuthServiceEvent@ZOOMSDK@@PAX@std@@@std@@YAABQAU?$_Tree_node@PAVIAuthServiceEvent@ZOOMSDK@@PAX@0@ABQAU10@@Z 00401230 f i sdk_util.obj
 0001:00000230       ??$forward@ABUpiecewise_construct_t@std@@@std@@YAABUpiecewise_construct_t@0@ABU10@@Z 00401230 f i user_manager.obj
 0001:00000230       ??$addressof@PAVIPreMeetingServiceEvent@ZOOMSDK@@@std@@YAPAPAVIPreMeetingServiceEvent@ZOOMSDK@@AAPAV12@@Z 00401230 f i sdk_util.obj
 0001:00000230       ??$_Get_unwrapped@AAV?$_Tree_unchecked_const_iterator@V?$_Tree_val@U?$_Tree_simple_types@PAVISDKInMeetingServiceMgrEvent@@@std@@@std@@U_Iterator_base0@2@@std@@@std@@YAAAV?$_Tree_unchecked_const_iterator@V?$_Tree_val@U?$_Tree_simple_types@PAVISDKInMeetingServiceMgrEvent@@@std@@@std@@U_Iterator_base0@2@@0@AAV10@@Z 00401230 f i sdk_util.obj
 0001:00000230       ??$forward@ABQAVIVirtualBGImageInfo@ZOOMSDK@@@std@@YAABQAVIVirtualBGImageInfo@ZOOMSDK@@ABQAV12@@Z 00401230 f i settings_ui.obj
 0001:00000230       ??$forward@ABQAU?$_Tree_node@PAVIClosedCaptionControllerEvent@ZOOMSDK@@PAX@std@@@std@@YAABQAU?$_Tree_node@PAVIClosedCaptionControllerEvent@ZOOMSDK@@PAX@0@ABQAU10@@Z 00401230 f i sdk_util.obj
 0001:00000230       ??$forward@ABQAVIUserInfo@ZOOMSDK@@@std@@YAABQAVIUserInfo@ZOOMSDK@@ABQAV12@@Z 00401230 f i user_manager.obj
 0001:00000230       ??$_Get_unwrapped@AAV?$_Tree_unchecked_const_iterator@V?$_Tree_val@U?$_Tree_simple_types@PAVIMeetingParticipantsCtrlEvent@ZOOMSDK@@@std@@@std@@U_Iterator_base0@2@@std@@@std@@YAAAV?$_Tree_unchecked_const_iterator@V?$_Tree_val@U?$_Tree_simple_types@PAVIMeetingParticipantsCtrlEvent@ZOOMSDK@@@std@@@std@@U_Iterator_base0@2@@0@AAV10@@Z 00401230 f i sdk_util.obj
 0001:00000230       ??$move@AAV?$allocator@_W@std@@@std@@YA$$QAV?$allocator@_W@0@AAV10@@Z 00401230 f i chat_controller_ui.obj
 0001:00000230       ?_Kfn@?$_Tset_traits@PAVIMeetingServiceEvent@ZOOMSDK@@U?$less@PAVIMeetingServiceEvent@ZOOMSDK@@@std@@V?$allocator@PAVIMeetingServiceEvent@ZOOMSDK@@@4@$0A@@std@@SAABQAVIMeetingServiceEvent@ZOOMSDK@@ABQAV34@@Z 00401230 f i sdk_util.obj
 0001:00000230       ??$forward@ABU?$less@I@std@@@std@@YAABU?$less@I@0@ABU10@@Z 00401230 f i user_manager.obj
 0001:00000230       ??$move@AAV?$tuple@ABI@std@@@std@@YA$$QAV?$tuple@ABI@0@AAV10@@Z 00401230 f i user_manager.obj
 0001:00000230       ??$forward@ABQAVIMeetingParticipantsCtrlEvent@ZOOMSDK@@@std@@YAABQAVIMeetingParticipantsCtrlEvent@ZOOMSDK@@ABQAV12@@Z 00401230 f i sdk_util.obj
 0001:00000230       ??$forward@ABQAU?$_Tree_node@PAVIMeetingChatCtrlEvent@ZOOMSDK@@PAX@std@@@std@@YAABQAU?$_Tree_node@PAVIMeetingChatCtrlEvent@ZOOMSDK@@PAX@0@ABQAU10@@Z 00401230 f i sdk_util.obj
 0001:00000230       ??$addressof@V?$_Tree_val@U?$_Tree_simple_types@PAVIAuthServiceEvent@ZOOMSDK@@@std@@@std@@@std@@YAPAV?$_Tree_val@U?$_Tree_simple_types@PAVIAuthServiceEvent@ZOOMSDK@@@std@@@0@AAV10@@Z 00401230 f i sdk_util.obj
 0001:00000230       ??$addressof@PAU?$_Tree_node@PAVIAuthServiceEvent@ZOOMSDK@@PAX@std@@@std@@YAPAPAU?$_Tree_node@PAVIAuthServiceEvent@ZOOMSDK@@PAX@0@AAPAU10@@Z 00401230 f i sdk_util.obj
 0001:00000230       ??$forward@ABQA_W@std@@YAABQA_WABQA_W@Z 00401230 f i AnnotateBarWindow.obj
 0001:00000230       ??$forward@AAPAU?$_Tree_node@PAVISDKInMeetingServiceMgrEvent@@PAX@std@@@std@@YAAAPAU?$_Tree_node@PAVISDKInMeetingServiceMgrEvent@@PAX@0@AAPAU10@@Z 00401230 f i sdk_util.obj
 0001:00000230       ??$addressof@PAVIMeetingVideoCtrlEvent@ZOOMSDK@@@std@@YAPAPAVIMeetingVideoCtrlEvent@ZOOMSDK@@AAPAV12@@Z 00401230 f i sdk_util.obj
 0001:00000230       ??$addressof@V?$_Vector_val@U?$_Simple_types@PAVIUserInfo@ZOOMSDK@@@std@@@std@@@std@@YAPAV?$_Vector_val@U?$_Simple_types@PAVIUserInfo@ZOOMSDK@@@std@@@0@AAV10@@Z 00401230 f i user_manager.obj
 0001:00000230       ??$forward@ABU?$less@PAVIMeetingVideoCtrlEvent@ZOOMSDK@@@std@@@std@@YAABU?$less@PAVIMeetingVideoCtrlEvent@ZOOMSDK@@@0@ABU10@@Z 00401230 f i sdk_util.obj
 0001:00000230       ??$_Unfancy@PAVIUserInfo@ZOOMSDK@@@std@@YAPAPAVIUserInfo@ZOOMSDK@@PAPAV12@@Z 00401230 f i user_manager.obj
 0001:00000230       ??$move@AAPAVIUserInfo@ZOOMSDK@@@std@@YA$$QAPAVIUserInfo@ZOOMSDK@@AAPAV12@@Z 00401230 f i user_manager.obj
 0001:00000230       ??$addressof@U?$pair@$$CBIPAVIUserInfo@ZOOMSDK@@@std@@@std@@YAPAU?$pair@$$CBIPAVIUserInfo@ZOOMSDK@@@0@AAU10@@Z 00401230 f i user_manager.obj
 0001:00000230       ?_Kfn@?$_Tset_traits@PAVIAuthServiceEvent@ZOOMSDK@@U?$less@PAVIAuthServiceEvent@ZOOMSDK@@@std@@V?$allocator@PAVIAuthServiceEvent@ZOOMSDK@@@4@$0A@@std@@SAABQAVIAuthServiceEvent@ZOOMSDK@@ABQAV34@@Z 00401230 f i sdk_util.obj
 0001:00000230       ??$forward@ABU?$less@PAVIPreMeetingServiceEvent@ZOOMSDK@@@std@@@std@@YAABU?$less@PAVIPreMeetingServiceEvent@ZOOMSDK@@@0@ABU10@@Z 00401230 f i sdk_util.obj
 0001:00000230       ??$_Kfn@$$CBHW4bkItemType@@@?$_Tmap_traits@HW4bkItemType@@U?$less@H@std@@V?$allocator@U?$pair@$$CBHW4bkItemType@@@std@@@3@$0A@@std@@SAABHABU?$pair@$$CBHW4bkItemType@@@1@@Z 00401230 f i settings_ui.obj
 0001:00000230       ??$addressof@V?$_Tree_val@U?$_Tree_simple_types@U?$pair@$$CBHW4bkItemType@@@std@@@std@@@std@@@std@@YAPAV?$_Tree_val@U?$_Tree_simple_types@U?$pair@$$CBHW4bkItemType@@@std@@@std@@@0@AAV10@@Z 00401230 f i settings_ui.obj
 0001:00000230       ??$addressof@PA_W@std@@YAPAPA_WAAPA_W@Z 00401230 f i AnnotateBarWindow.obj
 0001:00000230       ??$forward@AAPAU?$_Tree_node@PAVIAuthServiceEvent@ZOOMSDK@@PAX@std@@@std@@YAAAPAU?$_Tree_node@PAVIAuthServiceEvent@ZOOMSDK@@PAX@0@AAPAU10@@Z 00401230 f i sdk_util.obj
 0001:00000230       ??$addressof@V?$_Tree_val@U?$_Tree_simple_types@U?$pair@$$CBIPAVIUserInfo@ZOOMSDK@@@std@@@std@@@std@@@std@@YAPAV?$_Tree_val@U?$_Tree_simple_types@U?$pair@$$CBIPAVIUserInfo@ZOOMSDK@@@std@@@std@@@0@AAV10@@Z 00401230 f i user_manager.obj
 0001:00000230       ??$_Unfancy@PAVIInterpreterInfo@ZOOMSDK@@@std@@YAPAPAVIInterpreterInfo@ZOOMSDK@@PAPAV12@@Z 00401230 f i schedule_meeting_ui.obj
 0001:00000230       ??$_Unfancy@PAVIVirtualBGImageInfo@ZOOMSDK@@@std@@YAPAPAVIVirtualBGImageInfo@ZOOMSDK@@PAPAV12@@Z 00401230 f i settings_ui.obj
 0001:00000230       ?_Extract@?$_In_place_key_extract_set@PAVIMeetingVideoCtrlEvent@ZOOMSDK@@PAV12@@std@@SAABQAVIMeetingVideoCtrlEvent@ZOOMSDK@@ABQAV34@@Z 00401230 f i sdk_util.obj
 0001:00000230       ?_Kfn@?$_Tset_traits@PAVIMeetingChatCtrlEvent@ZOOMSDK@@U?$less@PAVIMeetingChatCtrlEvent@ZOOMSDK@@@std@@V?$allocator@PAVIMeetingChatCtrlEvent@ZOOMSDK@@@4@$0A@@std@@SAABQAVIMeetingChatCtrlEvent@ZOOMSDK@@ABQAV34@@Z 00401230 f i sdk_util.obj
 0001:00000230       ??$forward@W4bkItemType@@@std@@YA$$QAW4bkItemType@@AAW41@@Z 00401230 f i settings_ui.obj
 0001:00000230       ??$addressof@$$CBV?$_Tree_val@U?$_Tree_simple_types@PAVIPreMeetingServiceEvent@ZOOMSDK@@@std@@@std@@@std@@YAPBV?$_Tree_val@U?$_Tree_simple_types@PAVIPreMeetingServiceEvent@ZOOMSDK@@@std@@@0@ABV10@@Z 00401230 f i sdk_util.obj
 0001:00000230       ??$forward@U?$pair@IPAVIUserInfo@ZOOMSDK@@@std@@@std@@YA$$QAU?$pair@IPAVIUserInfo@ZOOMSDK@@@0@AAU10@@Z 00401230 f i user_manager.obj
 0001:00000230       ??$addressof@PAVISDKInMeetingServiceMgrEvent@@@std@@YAPAPAVISDKInMeetingServiceMgrEvent@@AAPAV1@@Z 00401230 f i sdk_util.obj
 0001:00000230       ??$addressof@H@std@@YAPAHAAH@Z 00401230 f i participant_ui.obj
 0001:00000230       ??$forward@ABQAU?$_Tree_node@U?$pair@$$CBIPAVIUserInfo@ZOOMSDK@@@std@@PAX@std@@@std@@YAABQAU?$_Tree_node@U?$pair@$$CBIPAVIUserInfo@ZOOMSDK@@@std@@PAX@0@ABQAU10@@Z 00401230 f i user_manager.obj
 0001:00000230       ?select_on_container_copy_construction@?$_Default_allocator_traits@V?$allocator@_W@std@@@std@@SA?AV?$allocator@_W@2@ABV32@@Z 00401230 f i schedule_meeting_ui.obj
 0001:00000230       ??$forward@ABU?$less@PAVIMeetingServiceEvent@ZOOMSDK@@@std@@@std@@YAABU?$less@PAVIMeetingServiceEvent@ZOOMSDK@@@0@ABU10@@Z 00401230 f i sdk_util.obj
 0001:00000230       ?_Kfn@?$_Tset_traits@PAVIClosedCaptionControllerEvent@ZOOMSDK@@U?$less@PAVIClosedCaptionControllerEvent@ZOOMSDK@@@std@@V?$allocator@PAVIClosedCaptionControllerEvent@ZOOMSDK@@@4@$0A@@std@@SAABQAVIClosedCaptionControllerEvent@ZOOMSDK@@ABQAV34@@Z 00401230 f i sdk_util.obj
 0001:00000230       ?_Extract@?$_In_place_key_extract_set@PAVIMeetingServiceEvent@ZOOMSDK@@PAV12@@std@@SAABQAVIMeetingServiceEvent@ZOOMSDK@@ABQAV34@@Z 00401230 f i sdk_util.obj
 0001:00000230       ??$forward@U_Zero_then_variadic_args_t@std@@@std@@YA$$QAU_Zero_then_variadic_args_t@0@AAU10@@Z 00401230 f i sdk_util.obj
 0001:00000230       ??$_Get_unwrapped@AAV?$_Tree_unchecked_const_iterator@V?$_Tree_val@U?$_Tree_simple_types@PAVIPreMeetingServiceEvent@ZOOMSDK@@@std@@@std@@U_Iterator_base0@2@@std@@@std@@YAAAV?$_Tree_unchecked_const_iterator@V?$_Tree_val@U?$_Tree_simple_types@PAVIPreMeetingServiceEvent@ZOOMSDK@@@std@@@std@@U_Iterator_base0@2@@0@AAV10@@Z 00401230 f i sdk_util.obj
 0001:00000230       ??$forward@ABU?$less@PAVIAuthServiceEvent@ZOOMSDK@@@std@@@std@@YAABU?$less@PAVIAuthServiceEvent@ZOOMSDK@@@0@ABU10@@Z 00401230 f i sdk_util.obj
 0001:00000230       ??$forward@ABU?$less@PAVIClosedCaptionControllerEvent@ZOOMSDK@@@std@@@std@@YAABU?$less@PAVIClosedCaptionControllerEvent@ZOOMSDK@@@0@ABU10@@Z 00401230 f i sdk_util.obj
 0001:00000230       ??$forward@AAPAU?$_Tree_node@PAVIMeetingChatCtrlEvent@ZOOMSDK@@PAX@std@@@std@@YAAAPAU?$_Tree_node@PAVIMeetingChatCtrlEvent@ZOOMSDK@@PAX@0@AAPAU10@@Z 00401230 f i sdk_util.obj
 0001:00000230       ??$forward@PAU?$_Tree_node@PAVIMeetingServiceEvent@ZOOMSDK@@PAX@std@@@std@@YA$$QAPAU?$_Tree_node@PAVIMeetingServiceEvent@ZOOMSDK@@PAX@0@AAPAU10@@Z 00401230 f i sdk_util.obj
 0001:00000230       ??$forward@ABQAVIMeetingServiceEvent@ZOOMSDK@@@std@@YAABQAVIMeetingServiceEvent@ZOOMSDK@@ABQAV12@@Z 00401230 f i sdk_util.obj
 0001:00000230       ??$forward@ABQAU?$_Tree_node@U?$pair@$$CBHW4bkItemType@@@std@@PAX@std@@@std@@YAABQAU?$_Tree_node@U?$pair@$$CBHW4bkItemType@@@std@@PAX@0@ABQAU10@@Z 00401230 f i settings_ui.obj
 0001:00000230       ??$forward@AAPAU?$_Tree_node@PAVIClosedCaptionControllerEvent@ZOOMSDK@@PAX@std@@@std@@YAAAPAU?$_Tree_node@PAVIClosedCaptionControllerEvent@ZOOMSDK@@PAX@0@AAPAU10@@Z 00401230 f i sdk_util.obj
 0001:00000230       ??$forward@PAU?$_Tree_node@U?$pair@$$CBHW4bkItemType@@@std@@PAX@std@@@std@@YA$$QAPAU?$_Tree_node@U?$pair@$$CBHW4bkItemType@@@std@@PAX@0@AAPAU10@@Z 00401230 f i settings_ui.obj
 0001:00000230       ??$addressof@$$CBV?$_Tree_val@U?$_Tree_simple_types@PAVIMeetingChatCtrlEvent@ZOOMSDK@@@std@@@std@@@std@@YAPBV?$_Tree_val@U?$_Tree_simple_types@PAVIMeetingChatCtrlEvent@ZOOMSDK@@@std@@@0@ABV10@@Z 00401230 f i sdk_util.obj
 0001:00000230       ?_Extract@?$_In_place_key_extract_set@PAVIMeetingParticipantsCtrlEvent@ZOOMSDK@@PAV12@@std@@SAABQAVIMeetingParticipantsCtrlEvent@ZOOMSDK@@ABQAV34@@Z 00401230 f i sdk_util.obj
 0001:00000230       ??$forward@V?$_Tree_const_iterator@V?$_Tree_val@U?$_Tree_simple_types@PAVIMeetingParticipantsCtrlEvent@ZOOMSDK@@@std@@@std@@@std@@@std@@YA$$QAV?$_Tree_const_iterator@V?$_Tree_val@U?$_Tree_simple_types@PAVIMeetingParticipantsCtrlEvent@ZOOMSDK@@@std@@@std@@@0@AAV10@@Z 00401230 f i sdk_util.obj
 0001:00000230       ??$addressof@U?$pair@$$CBHW4bkItemType@@@std@@@std@@YAPAU?$pair@$$CBHW4bkItemType@@@0@AAU10@@Z 00401230 f i settings_ui.obj
 0001:00000230       ??$_Convert_size@I@std@@YAII@Z 00401230 f i AnnotateBarWindow.obj
 0001:00000230       ??$addressof@$$CBV?$_String_val@U?$_Simple_types@_W@std@@@std@@@std@@YAPBV?$_String_val@U?$_Simple_types@_W@std@@@0@ABV10@@Z 00401230 f i chat_controller_ui.obj
 0001:00000230       ?_Kfn@?$_Tset_traits@PAVIMeetingParticipantsCtrlEvent@ZOOMSDK@@U?$less@PAVIMeetingParticipantsCtrlEvent@ZOOMSDK@@@std@@V?$allocator@PAVIMeetingParticipantsCtrlEvent@ZOOMSDK@@@4@$0A@@std@@SAABQAVIMeetingParticipantsCtrlEvent@ZOOMSDK@@ABQAV34@@Z 00401230 f i sdk_util.obj
 0001:00000230       ?_Kfn@?$_Tset_traits@PAVIMeetingVideoCtrlEvent@ZOOMSDK@@U?$less@PAVIMeetingVideoCtrlEvent@ZOOMSDK@@@std@@V?$allocator@PAVIMeetingVideoCtrlEvent@ZOOMSDK@@@4@$0A@@std@@SAABQAVIMeetingVideoCtrlEvent@ZOOMSDK@@ABQAV34@@Z 00401230 f i sdk_util.obj
 0001:00000230       ??$forward@V?$_Tree_const_iterator@V?$_Tree_val@U?$_Tree_simple_types@PAVIClosedCaptionControllerEvent@ZOOMSDK@@@std@@@std@@@std@@@std@@YA$$QAV?$_Tree_const_iterator@V?$_Tree_val@U?$_Tree_simple_types@PAVIClosedCaptionControllerEvent@ZOOMSDK@@@std@@@std@@@0@AAV10@@Z 00401230 f i sdk_util.obj
 0001:00000230       ??$forward@ABI@std@@YAABIABI@Z 00401230 f i user_manager.obj
 0001:00000230       ??$forward@AAPAU?$_Tree_node@PAVIMeetingServiceEvent@ZOOMSDK@@PAX@std@@@std@@YAAAPAU?$_Tree_node@PAVIMeetingServiceEvent@ZOOMSDK@@PAX@0@AAPAU10@@Z 00401230 f i sdk_util.obj
 0001:00000230       ??$forward@ABQAVIInterpreterInfo@ZOOMSDK@@@std@@YAABQAVIInterpreterInfo@ZOOMSDK@@ABQAV12@@Z 00401230 f i schedule_meeting_ui.obj
 0001:00000230       ??$forward@AAPAU?$_Tree_node@U?$pair@$$CBHW4bkItemType@@@std@@PAX@std@@@std@@YAAAPAU?$_Tree_node@U?$pair@$$CBHW4bkItemType@@@std@@PAX@0@AAPAU10@@Z 00401230 f i settings_ui.obj
 0001:00000230       ??$addressof@PAU?$_Tree_node@PAVIClosedCaptionControllerEvent@ZOOMSDK@@PAX@std@@@std@@YAPAPAU?$_Tree_node@PAVIClosedCaptionControllerEvent@ZOOMSDK@@PAX@0@AAPAU10@@Z 00401230 f i sdk_util.obj
 0001:00000230       ?_Extract@?$_In_place_key_extract_set@PAVIPreMeetingServiceEvent@ZOOMSDK@@PAV12@@std@@SAABQAVIPreMeetingServiceEvent@ZOOMSDK@@ABQAV34@@Z 00401230 f i sdk_util.obj
 0001:00000230       ??$forward@ABQAU?$_List_node@HPAX@std@@@std@@YAABQAU?$_List_node@HPAX@0@ABQAU10@@Z 00401230 f i participant_ui.obj
 0001:00000230       ??$forward@AAPAVIUserInfo@ZOOMSDK@@@std@@YAAAPAVIUserInfo@ZOOMSDK@@AAPAV12@@Z 00401230 f i user_manager.obj
 0001:00000230       ??$forward@AAPAU?$_Tree_node@PAVIMeetingVideoCtrlEvent@ZOOMSDK@@PAX@std@@@std@@YAAAPAU?$_Tree_node@PAVIMeetingVideoCtrlEvent@ZOOMSDK@@PAX@0@AAPAU10@@Z 00401230 f i sdk_util.obj
 0001:00000230       ??$addressof@V?$_Tree_val@U?$_Tree_simple_types@PAVIPreMeetingServiceEvent@ZOOMSDK@@@std@@@std@@@std@@YAPAV?$_Tree_val@U?$_Tree_simple_types@PAVIPreMeetingServiceEvent@ZOOMSDK@@@std@@@0@AAV10@@Z 00401230 f i sdk_util.obj
 0001:00000230       ??$forward@PAVIUserInfo@ZOOMSDK@@@std@@YA$$QAPAVIUserInfo@ZOOMSDK@@AAPAV12@@Z 00401230 f i user_manager.obj
 0001:00000230       ??$forward@I@std@@YA$$QAIAAI@Z 00401230 f i settings_ui.obj
 0001:00000230       ??$forward@ABU?$less@H@std@@@std@@YAABU?$less@H@0@ABU10@@Z 00401230 f i settings_ui.obj
 0001:00000230       ??$addressof@$$CBV?$basic_string@_WU?$char_traits@_W@std@@V?$allocator@_W@2@@std@@@std@@YAPBV?$basic_string@_WU?$char_traits@_W@std@@V?$allocator@_W@2@@0@ABV10@@Z 00401230 f i custom_ui_share_flow.obj
 0001:00000230       ??$addressof@PAVIMeetingServiceEvent@ZOOMSDK@@@std@@YAPAPAVIMeetingServiceEvent@ZOOMSDK@@AAPAV12@@Z 00401230 f i sdk_util.obj
 0001:00000230       ??$forward@V?$_Tree_const_iterator@V?$_Tree_val@U?$_Tree_simple_types@PAVIPreMeetingServiceEvent@ZOOMSDK@@@std@@@std@@@std@@@std@@YA$$QAV?$_Tree_const_iterator@V?$_Tree_val@U?$_Tree_simple_types@PAVIPreMeetingServiceEvent@ZOOMSDK@@@std@@@std@@@0@AAV10@@Z 00401230 f i sdk_util.obj
 0001:00000230       ??$forward@ABU?$less@PAVIMeetingParticipantsCtrlEvent@ZOOMSDK@@@std@@@std@@YAABU?$less@PAVIMeetingParticipantsCtrlEvent@ZOOMSDK@@@0@ABU10@@Z 00401230 f i sdk_util.obj
 0001:00000230       ??$addressof@PAU?$_Tree_node@PAVISDKInMeetingServiceMgrEvent@@PAX@std@@@std@@YAPAPAU?$_Tree_node@PAVISDKInMeetingServiceMgrEvent@@PAX@0@AAPAU10@@Z 00401230 f i sdk_util.obj
 0001:00000230       ??$addressof@V?$basic_string@_WU?$char_traits@_W@std@@V?$allocator@_W@2@@std@@@std@@YAPAV?$basic_string@_WU?$char_traits@_W@std@@V?$allocator@_W@2@@0@AAV10@@Z 00401230 f i chat_controller_ui.obj
 0001:00000230       ??$forward@ABQAU?$_Tree_node@PAVIMeetingParticipantsCtrlEvent@ZOOMSDK@@PAX@std@@@std@@YAABQAU?$_Tree_node@PAVIMeetingParticipantsCtrlEvent@ZOOMSDK@@PAX@0@ABQAU10@@Z 00401230 f i sdk_util.obj
 0001:00000230       ??$forward@ABQAVIClosedCaptionControllerEvent@ZOOMSDK@@@std@@YAABQAVIClosedCaptionControllerEvent@ZOOMSDK@@ABQAV12@@Z 00401230 f i sdk_util.obj
 0001:00000230       ??$addressof@$$CBV?$_Tree_val@U?$_Tree_simple_types@PAVIClosedCaptionControllerEvent@ZOOMSDK@@@std@@@std@@@std@@YAPBV?$_Tree_val@U?$_Tree_simple_types@PAVIClosedCaptionControllerEvent@ZOOMSDK@@@std@@@0@ABV10@@Z 00401230 f i sdk_util.obj
 0001:00000230       ??$addressof@PAVIMeetingParticipantsCtrlEvent@ZOOMSDK@@@std@@YAPAPAVIMeetingParticipantsCtrlEvent@ZOOMSDK@@AAPAV12@@Z 00401230 f i sdk_util.obj
 0001:00000230       ??$addressof@V?$basic_stringbuf@_WU?$char_traits@_W@std@@V?$allocator@_W@2@@std@@@std@@YAPAV?$basic_stringbuf@_WU?$char_traits@_W@std@@V?$allocator@_W@2@@0@AAV10@@Z 00401230 f i schedule_meeting_ui.obj
 0001:00000230       ??$addressof@PAU?$_Tree_node@U?$pair@$$CBIPAVIUserInfo@ZOOMSDK@@@std@@PAX@std@@@std@@YAPAPAU?$_Tree_node@U?$pair@$$CBIPAVIUserInfo@ZOOMSDK@@@std@@PAX@0@AAPAU10@@Z 00401230 f i user_manager.obj
 0001:00000230       ??$forward@PAU?$_Tree_node@PAVIAuthServiceEvent@ZOOMSDK@@PAX@std@@@std@@YA$$QAPAU?$_Tree_node@PAVIAuthServiceEvent@ZOOMSDK@@PAX@0@AAPAU10@@Z 00401230 f i sdk_util.obj
 0001:00000230       ?_Extract@?$_In_place_key_extract_map@HU?$pair@HW4bkItemType@@@std@@@std@@SAABHABU?$pair@HW4bkItemType@@@2@@Z 00401230 f i settings_ui.obj
 0001:00000230       ??$forward@ABQAU?$_Tree_node@PAVIMeetingVideoCtrlEvent@ZOOMSDK@@PAX@std@@@std@@YAABQAU?$_Tree_node@PAVIMeetingVideoCtrlEvent@ZOOMSDK@@PAX@0@ABQAU10@@Z 00401230 f i sdk_util.obj
 0001:00000230       ??$forward@V?$_Tree_const_iterator@V?$_Tree_val@U?$_Tree_simple_types@PAVIMeetingVideoCtrlEvent@ZOOMSDK@@@std@@@std@@@std@@@std@@YA$$QAV?$_Tree_const_iterator@V?$_Tree_val@U?$_Tree_simple_types@PAVIMeetingVideoCtrlEvent@ZOOMSDK@@@std@@@std@@@0@AAV10@@Z 00401230 f i sdk_util.obj
 0001:00000230       ??$forward@PAU?$_Tree_node@PAVIPreMeetingServiceEvent@ZOOMSDK@@PAX@std@@@std@@YA$$QAPAU?$_Tree_node@PAVIPreMeetingServiceEvent@ZOOMSDK@@PAX@0@AAPAU10@@Z 00401230 f i sdk_util.obj
 0001:00000230       ??$addressof@V?$_Tree_val@U?$_Tree_simple_types@PAVIMeetingParticipantsCtrlEvent@ZOOMSDK@@@std@@@std@@@std@@YAPAV?$_Tree_val@U?$_Tree_simple_types@PAVIMeetingParticipantsCtrlEvent@ZOOMSDK@@@std@@@0@AAV10@@Z 00401230 f i sdk_util.obj
 0001:00000230       ??$addressof@PAU?$_List_node@HPAX@std@@@std@@YAPAPAU?$_List_node@HPAX@0@AAPAU10@@Z 00401230 f i participant_ui.obj
 0001:00000230       ??$addressof@$$CBV?$_Tree_val@U?$_Tree_simple_types@PAVISDKInMeetingServiceMgrEvent@@@std@@@std@@@std@@YAPBV?$_Tree_val@U?$_Tree_simple_types@PAVISDKInMeetingServiceMgrEvent@@@std@@@0@ABV10@@Z 00401230 f i sdk_util.obj
 0001:00000230       ??$addressof@$$CBV?$_Tree_val@U?$_Tree_simple_types@PAVIAuthServiceEvent@ZOOMSDK@@@std@@@std@@@std@@YAPBV?$_Tree_val@U?$_Tree_simple_types@PAVIAuthServiceEvent@ZOOMSDK@@@std@@@0@ABV10@@Z 00401230 f i sdk_util.obj
 0001:00000230       ??$addressof@$$CBV?$_Tree_val@U?$_Tree_simple_types@U?$pair@$$CBIPAVIUserInfo@ZOOMSDK@@@std@@@std@@@std@@@std@@YAPBV?$_Tree_val@U?$_Tree_simple_types@U?$pair@$$CBIPAVIUserInfo@ZOOMSDK@@@std@@@std@@@0@ABV10@@Z 00401230 f i user_manager.obj
 0001:00000230       ??$forward@ABQAVIPreMeetingServiceEvent@ZOOMSDK@@@std@@YAABQAVIPreMeetingServiceEvent@ZOOMSDK@@ABQAV12@@Z 00401230 f i sdk_util.obj
 0001:00000230       ??$forward@V?$_Tree_iterator@V?$_Tree_val@U?$_Tree_simple_types@U?$pair@$$CBIPAVIUserInfo@ZOOMSDK@@@std@@@std@@@std@@@std@@@std@@YA$$QAV?$_Tree_iterator@V?$_Tree_val@U?$_Tree_simple_types@U?$pair@$$CBIPAVIUserInfo@ZOOMSDK@@@std@@@std@@@std@@@0@AAV10@@Z 00401230 f i user_manager.obj
 0001:00000230       ??$forward@PAU?$_Tree_node@PAVISDKInMeetingServiceMgrEvent@@PAX@std@@@std@@YA$$QAPAU?$_Tree_node@PAVISDKInMeetingServiceMgrEvent@@PAX@0@AAPAU10@@Z 00401230 f i sdk_util.obj
 0001:00000230       ?_Extract@?$_In_place_key_extract_map@IU?$pair@IPAVIUserInfo@ZOOMSDK@@@std@@@std@@SAABIABU?$pair@IPAVIUserInfo@ZOOMSDK@@@2@@Z 00401230 f i user_manager.obj
 0001:00000230       ??$addressof@V?$_Tree_val@U?$_Tree_simple_types@PAVISDKInMeetingServiceMgrEvent@@@std@@@std@@@std@@YAPAV?$_Tree_val@U?$_Tree_simple_types@PAVISDKInMeetingServiceMgrEvent@@@std@@@0@AAV10@@Z 00401230 f i sdk_util.obj
 0001:00000230       ??$addressof@$$CBV?$_Tree_val@U?$_Tree_simple_types@PAVIMeetingParticipantsCtrlEvent@ZOOMSDK@@@std@@@std@@@std@@YAPBV?$_Tree_val@U?$_Tree_simple_types@PAVIMeetingParticipantsCtrlEvent@ZOOMSDK@@@std@@@0@ABV10@@Z 00401230 f i sdk_util.obj
 0001:00000230       ??$_Unfancy@_W@std@@YAPA_WPA_W@Z 00401230 f i AnnotateBarWindow.obj
 0001:00000230       ??$forward@H@std@@YA$$QAHAAH@Z 00401230 f i settings_ui.obj
 0001:00000230       ??$move@AAV?$basic_istream@_WU?$char_traits@_W@std@@@std@@@std@@YA$$QAV?$basic_istream@_WU?$char_traits@_W@std@@@0@AAV10@@Z 00401230 f i schedule_meeting_ui.obj
 0001:00000230       ??$forward@V?$_Tree_const_iterator@V?$_Tree_val@U?$_Tree_simple_types@PAVIMeetingServiceEvent@ZOOMSDK@@@std@@@std@@@std@@@std@@YA$$QAV?$_Tree_const_iterator@V?$_Tree_val@U?$_Tree_simple_types@PAVIMeetingServiceEvent@ZOOMSDK@@@std@@@std@@@0@AAV10@@Z 00401230 f i sdk_util.obj
 0001:00000230       ??$addressof@$$CBV?$_Tree_val@U?$_Tree_simple_types@U?$pair@$$CBHW4bkItemType@@@std@@@std@@@std@@@std@@YAPBV?$_Tree_val@U?$_Tree_simple_types@U?$pair@$$CBHW4bkItemType@@@std@@@std@@@0@ABV10@@Z 00401230 f i settings_ui.obj
 0001:00000230       ?_Extract@?$_In_place_key_extract_set@PAVISDKInMeetingServiceMgrEvent@@PAV1@@std@@SAABQAVISDKInMeetingServiceMgrEvent@@ABQAV3@@Z 00401230 f i sdk_util.obj
 0001:00000230       ??$forward@V?$_Tree_const_iterator@V?$_Tree_val@U?$_Tree_simple_types@PAVIMeetingChatCtrlEvent@ZOOMSDK@@@std@@@std@@@std@@@std@@YA$$QAV?$_Tree_const_iterator@V?$_Tree_val@U?$_Tree_simple_types@PAVIMeetingChatCtrlEvent@ZOOMSDK@@@std@@@std@@@0@AAV10@@Z 00401230 f i sdk_util.obj
 0001:00000230       ??$forward@PAU?$_Tree_node@PAVIMeetingChatCtrlEvent@ZOOMSDK@@PAX@std@@@std@@YA$$QAPAU?$_Tree_node@PAVIMeetingChatCtrlEvent@ZOOMSDK@@PAX@0@AAPAU10@@Z 00401230 f i sdk_util.obj
 0001:00000230       ??$forward@PAU?$_Tree_node@PAVIMeetingVideoCtrlEvent@ZOOMSDK@@PAX@std@@@std@@YA$$QAPAU?$_Tree_node@PAVIMeetingVideoCtrlEvent@ZOOMSDK@@PAX@0@AAPAU10@@Z 00401230 f i sdk_util.obj
 0001:00000230       ??$forward@U?$pair@HW4bkItemType@@@std@@@std@@YA$$QAU?$pair@HW4bkItemType@@@0@AAU10@@Z 00401230 f i settings_ui.obj
 0001:00000230       ??$forward@V?$_Tree_iterator@V?$_Tree_val@U?$_Tree_simple_types@U?$pair@$$CBHW4bkItemType@@@std@@@std@@@std@@@std@@@std@@YA$$QAV?$_Tree_iterator@V?$_Tree_val@U?$_Tree_simple_types@U?$pair@$$CBHW4bkItemType@@@std@@@std@@@std@@@0@AAV10@@Z 00401230 f i settings_ui.obj
 0001:00000230       ??$addressof@V?$_Tree_val@U?$_Tree_simple_types@PAVIClosedCaptionControllerEvent@ZOOMSDK@@@std@@@std@@@std@@YAPAV?$_Tree_val@U?$_Tree_simple_types@PAVIClosedCaptionControllerEvent@ZOOMSDK@@@std@@@0@AAV10@@Z 00401230 f i sdk_util.obj
 0001:00000230       ??$addressof@V?$_Tree_val@U?$_Tree_simple_types@PAVIMeetingVideoCtrlEvent@ZOOMSDK@@@std@@@std@@@std@@YAPAV?$_Tree_val@U?$_Tree_simple_types@PAVIMeetingVideoCtrlEvent@ZOOMSDK@@@std@@@0@AAV10@@Z 00401230 f i sdk_util.obj
 0001:00000230       ??$forward@ABQAVIMeetingChatCtrlEvent@ZOOMSDK@@@std@@YAABQAVIMeetingChatCtrlEvent@ZOOMSDK@@ABQAV12@@Z 00401230 f i sdk_util.obj
 0001:00000240       ??$_Deallocate@$07$0A@@std@@YAXPAXI@Z 00401240 f i AnnotateBarWindow.obj
 0001:000002a0       ??$_Adl_verify_range@V?$_Tree_const_iterator@V?$_Tree_val@U?$_Tree_simple_types@PAVIPreMeetingServiceEvent@ZOOMSDK@@@std@@@std@@@std@@V12@@std@@YAXABV?$_Tree_const_iterator@V?$_Tree_val@U?$_Tree_simple_types@PAVIPreMeetingServiceEvent@ZOOMSDK@@@std@@@std@@@0@0@Z 004012a0 f i sdk_util.obj
 0001:000002a0       ??$_Destroy_range@V?$allocator@PAVIUserInfo@ZOOMSDK@@@std@@@std@@YAXPAPAVIUserInfo@ZOOMSDK@@QAPAV12@AAV?$allocator@PAVIUserInfo@ZOOMSDK@@@0@@Z 004012a0 f i user_manager.obj
 0001:000002a0       ??$_Adl_verify_range@V?$_Tree_const_iterator@V?$_Tree_val@U?$_Tree_simple_types@PAVIMeetingParticipantsCtrlEvent@ZOOMSDK@@@std@@@std@@@std@@V12@@std@@YAXABV?$_Tree_const_iterator@V?$_Tree_val@U?$_Tree_simple_types@PAVIMeetingParticipantsCtrlEvent@ZOOMSDK@@@std@@@std@@@0@0@Z 004012a0 f i sdk_util.obj
 0001:000002a0       ??$destroy@PAVIMeetingParticipantsCtrlEvent@ZOOMSDK@@@?$_Default_allocator_traits@V?$allocator@U?$_Tree_node@PAVIMeetingParticipantsCtrlEvent@ZOOMSDK@@PAX@std@@@std@@@std@@SAXAAV?$allocator@U?$_Tree_node@PAVIMeetingParticipantsCtrlEvent@ZOOMSDK@@PAX@std@@@1@QAPAVIMeetingParticipantsCtrlEvent@ZOOMSDK@@@Z 004012a0 f i sdk_util.obj
 0001:000002a0       ??$_Destroy_in_place@PAU?$_Tree_node@PAVIClosedCaptionControllerEvent@ZOOMSDK@@PAX@std@@@std@@YAXAAPAU?$_Tree_node@PAVIClosedCaptionControllerEvent@ZOOMSDK@@PAX@0@@Z 004012a0 f i sdk_util.obj
 0001:000002a0       ??$_Adl_verify_range@V?$_Tree_unchecked_const_iterator@V?$_Tree_val@U?$_Tree_simple_types@PAVIMeetingChatCtrlEvent@ZOOMSDK@@@std@@@std@@U_Iterator_base0@2@@std@@V12@@std@@YAXABV?$_Tree_unchecked_const_iterator@V?$_Tree_val@U?$_Tree_simple_types@PAVIMeetingChatCtrlEvent@ZOOMSDK@@@std@@@std@@U_Iterator_base0@2@@0@0@Z 004012a0 f i sdk_util.obj
 0001:000002a0       ??$_Destroy_in_place@PAU?$_Tree_node@PAVIMeetingChatCtrlEvent@ZOOMSDK@@PAX@std@@@std@@YAXAAPAU?$_Tree_node@PAVIMeetingChatCtrlEvent@ZOOMSDK@@PAX@0@@Z 004012a0 f i sdk_util.obj
 0001:000002a0       ??$_Adl_verify_range@V?$_Tree_const_iterator@V?$_Tree_val@U?$_Tree_simple_types@PAVIMeetingChatCtrlEvent@ZOOMSDK@@@std@@@std@@@std@@V12@@std@@YAXABV?$_Tree_const_iterator@V?$_Tree_val@U?$_Tree_simple_types@PAVIMeetingChatCtrlEvent@ZOOMSDK@@@std@@@std@@@0@0@Z 004012a0 f i sdk_util.obj
 0001:000002a0       ??$_Destroy_range@V?$allocator@PAVIAlternativeHostInfo@ZOOMSDK@@@std@@@std@@YAXPAPAVIAlternativeHostInfo@ZOOMSDK@@QAPAV12@AAV?$allocator@PAVIAlternativeHostInfo@ZOOMSDK@@@0@@Z 004012a0 f i schedule_meeting_ui.obj
 0001:000002a0       ??$_Destroy_in_place@PAU?$_Tree_node@PAVIMeetingVideoCtrlEvent@ZOOMSDK@@PAX@std@@@std@@YAXAAPAU?$_Tree_node@PAVIMeetingVideoCtrlEvent@ZOOMSDK@@PAX@0@@Z 004012a0 f i sdk_util.obj
 0001:000002a0       ??$_Adl_verify_range@V?$_Tree_const_iterator@V?$_Tree_val@U?$_Tree_simple_types@PAVIMeetingServiceEvent@ZOOMSDK@@@std@@@std@@@std@@V12@@std@@YAXABV?$_Tree_const_iterator@V?$_Tree_val@U?$_Tree_simple_types@PAVIMeetingServiceEvent@ZOOMSDK@@@std@@@std@@@0@0@Z 004012a0 f i sdk_util.obj
 0001:000002a0       ??$destroy@U?$pair@$$CBIPAVIUserInfo@ZOOMSDK@@@std@@@?$_Default_allocator_traits@V?$allocator@U?$_Tree_node@U?$pair@$$CBIPAVIUserInfo@ZOOMSDK@@@std@@PAX@std@@@std@@@std@@SAXAAV?$allocator@U?$_Tree_node@U?$pair@$$CBIPAVIUserInfo@ZOOMSDK@@@std@@PAX@std@@@1@QAU?$pair@$$CBIPAVIUserInfo@ZOOMSDK@@@1@@Z 004012a0 f i user_manager.obj
 0001:000002a0       ??$destroy@PAVIMeetingChatCtrlEvent@ZOOMSDK@@@?$_Default_allocator_traits@V?$allocator@U?$_Tree_node@PAVIMeetingChatCtrlEvent@ZOOMSDK@@PAX@std@@@std@@@std@@SAXAAV?$allocator@U?$_Tree_node@PAVIMeetingChatCtrlEvent@ZOOMSDK@@PAX@std@@@1@QAPAVIMeetingChatCtrlEvent@ZOOMSDK@@@Z 004012a0 f i sdk_util.obj
 0001:000002a0       ??$_Adl_verify_range@V?$_Tree_unchecked_const_iterator@V?$_Tree_val@U?$_Tree_simple_types@PAVIAuthServiceEvent@ZOOMSDK@@@std@@@std@@U_Iterator_base0@2@@std@@V12@@std@@YAXABV?$_Tree_unchecked_const_iterator@V?$_Tree_val@U?$_Tree_simple_types@PAVIAuthServiceEvent@ZOOMSDK@@@std@@@std@@U_Iterator_base0@2@@0@0@Z 004012a0 f i sdk_util.obj
 0001:000002a0       ??$_Destroy_in_place@PAU?$_Tree_node@U?$pair@$$CBHW4bkItemType@@@std@@PAX@std@@@std@@YAXAAPAU?$_Tree_node@U?$pair@$$CBHW4bkItemType@@@std@@PAX@0@@Z 004012a0 f i settings_ui.obj
 0001:000002a0       ??$destroy@PAVISDKInMeetingServiceMgrEvent@@@?$_Default_allocator_traits@V?$allocator@U?$_Tree_node@PAVISDKInMeetingServiceMgrEvent@@PAX@std@@@std@@@std@@SAXAAV?$allocator@U?$_Tree_node@PAVISDKInMeetingServiceMgrEvent@@PAX@std@@@1@QAPAVISDKInMeetingServiceMgrEvent@@@Z 004012a0 f i sdk_util.obj
 0001:000002a0       ??$_Pocca@V?$allocator@_W@std@@@std@@YAXAAV?$allocator@_W@0@ABV10@@Z 004012a0 f i custom_ui_share_flow.obj
 0001:000002a0       ??$_Destroy_in_place@PAU?$_Tree_node@PAVIMeetingServiceEvent@ZOOMSDK@@PAX@std@@@std@@YAXAAPAU?$_Tree_node@PAVIMeetingServiceEvent@ZOOMSDK@@PAX@0@@Z 004012a0 f i sdk_util.obj
 0001:000002a0       ??$destroy@U?$pair@$$CBHW4bkItemType@@@std@@@?$_Default_allocator_traits@V?$allocator@U?$_Tree_node@U?$pair@$$CBHW4bkItemType@@@std@@PAX@std@@@std@@@std@@SAXAAV?$allocator@U?$_Tree_node@U?$pair@$$CBHW4bkItemType@@@std@@PAX@std@@@1@QAU?$pair@$$CBHW4bkItemType@@@1@@Z 004012a0 f i settings_ui.obj
 0001:000002a0       ??$destroy@PAVIUserInfo@ZOOMSDK@@@?$_Default_allocator_traits@V?$allocator@PAVIUserInfo@ZOOMSDK@@@std@@@std@@SAXAAV?$allocator@PAVIUserInfo@ZOOMSDK@@@1@QAPAVIUserInfo@ZOOMSDK@@@Z 004012a0 f i user_manager.obj
 0001:000002a0       ??$_Adl_verify_range@V?$_Tree_unchecked_const_iterator@V?$_Tree_val@U?$_Tree_simple_types@PAVISDKInMeetingServiceMgrEvent@@@std@@@std@@U_Iterator_base0@2@@std@@V12@@std@@YAXABV?$_Tree_unchecked_const_iterator@V?$_Tree_val@U?$_Tree_simple_types@PAVISDKInMeetingServiceMgrEvent@@@std@@@std@@U_Iterator_base0@2@@0@0@Z 004012a0 f i sdk_util.obj
 0001:000002a0       ?__global_delete@@YAXPAXI@Z 004012a0 f i AnnotateBarWindow.obj
 0001:000002a0       ??$destroy@PAVIMeetingVideoCtrlEvent@ZOOMSDK@@@?$_Default_allocator_traits@V?$allocator@U?$_Tree_node@PAVIMeetingVideoCtrlEvent@ZOOMSDK@@PAX@std@@@std@@@std@@SAXAAV?$allocator@U?$_Tree_node@PAVIMeetingVideoCtrlEvent@ZOOMSDK@@PAX@std@@@1@QAPAVIMeetingVideoCtrlEvent@ZOOMSDK@@@Z 004012a0 f i sdk_util.obj
 0001:000002a0       ??$GetDefaultValueT@PAVIInterpreterInfo@ZOOMSDK@@@@YAXAAPAVIInterpreterInfo@ZOOMSDK@@@Z 004012a0 f i schedule_meeting_ui.obj
 0001:000002a0       ??$_Destroy_in_place@PAU?$_Tree_node@U?$pair@$$CBIPAVIUserInfo@ZOOMSDK@@@std@@PAX@std@@@std@@YAXAAPAU?$_Tree_node@U?$pair@$$CBIPAVIUserInfo@ZOOMSDK@@@std@@PAX@0@@Z 004012a0 f i user_manager.obj
 0001:000002a0       ??$destroy@PAVIAuthServiceEvent@ZOOMSDK@@@?$_Default_allocator_traits@V?$allocator@U?$_Tree_node@PAVIAuthServiceEvent@ZOOMSDK@@PAX@std@@@std@@@std@@SAXAAV?$allocator@U?$_Tree_node@PAVIAuthServiceEvent@ZOOMSDK@@PAX@std@@@1@QAPAVIAuthServiceEvent@ZOOMSDK@@@Z 004012a0 f i sdk_util.obj
 0001:000002a0       ??$destroy@H@?$_Default_allocator_traits@V?$allocator@U?$_List_node@HPAX@std@@@std@@@std@@SAXAAV?$allocator@U?$_List_node@HPAX@std@@@1@QAH@Z 004012a0 f i participant_ui.obj
 0001:000002a0       ??$_Destroy_range@V?$allocator@PAVIInterpreterInfo@ZOOMSDK@@@std@@@std@@YAXPAPAVIInterpreterInfo@ZOOMSDK@@QAPAV12@AAV?$allocator@PAVIInterpreterInfo@ZOOMSDK@@@0@@Z 004012a0 f i schedule_meeting_ui.obj
 0001:000002a0       ??$destroy@PAVIPreMeetingServiceEvent@ZOOMSDK@@@?$_Default_allocator_traits@V?$allocator@U?$_Tree_node@PAVIPreMeetingServiceEvent@ZOOMSDK@@PAX@std@@@std@@@std@@SAXAAV?$allocator@U?$_Tree_node@PAVIPreMeetingServiceEvent@ZOOMSDK@@PAX@std@@@1@QAPAVIPreMeetingServiceEvent@ZOOMSDK@@@Z 004012a0 f i sdk_util.obj
 0001:000002a0       ?__empty_global_delete@@YAXPAXI@Z 004012a0 f i AnnotateBarWindow.obj
 0001:000002a0       ??$_Destroy_in_place@PAU?$_Tree_node@PAVIPreMeetingServiceEvent@ZOOMSDK@@PAX@std@@@std@@YAXAAPAU?$_Tree_node@PAVIPreMeetingServiceEvent@ZOOMSDK@@PAX@0@@Z 004012a0 f i sdk_util.obj
 0001:000002a0       ??$destroy@PAVIClosedCaptionControllerEvent@ZOOMSDK@@@?$_Default_allocator_traits@V?$allocator@U?$_Tree_node@PAVIClosedCaptionControllerEvent@ZOOMSDK@@PAX@std@@@std@@@std@@SAXAAV?$allocator@U?$_Tree_node@PAVIClosedCaptionControllerEvent@ZOOMSDK@@PAX@std@@@1@QAPAVIClosedCaptionControllerEvent@ZOOMSDK@@@Z 004012a0 f i sdk_util.obj
 0001:000002a0       ??$_Adl_verify_range@V?$_Tree_const_iterator@V?$_Tree_val@U?$_Tree_simple_types@PAVIMeetingVideoCtrlEvent@ZOOMSDK@@@std@@@std@@@std@@V12@@std@@YAXABV?$_Tree_const_iterator@V?$_Tree_val@U?$_Tree_simple_types@PAVIMeetingVideoCtrlEvent@ZOOMSDK@@@std@@@std@@@0@0@Z 004012a0 f i sdk_util.obj
 0001:000002a0       ??$_Adl_verify_range@V?$_Tree_const_iterator@V?$_Tree_val@U?$_Tree_simple_types@PAVIClosedCaptionControllerEvent@ZOOMSDK@@@std@@@std@@@std@@V12@@std@@YAXABV?$_Tree_const_iterator@V?$_Tree_val@U?$_Tree_simple_types@PAVIClosedCaptionControllerEvent@ZOOMSDK@@@std@@@std@@@0@0@Z 004012a0 f i sdk_util.obj
 0001:000002a0       ??$_Destroy_in_place@PAU?$_Tree_node@PAVIAuthServiceEvent@ZOOMSDK@@PAX@std@@@std@@YAXAAPAU?$_Tree_node@PAVIAuthServiceEvent@ZOOMSDK@@PAX@0@@Z 004012a0 f i sdk_util.obj
 0001:000002a0       ??$destroy@PAVIMeetingServiceEvent@ZOOMSDK@@@?$_Default_allocator_traits@V?$allocator@U?$_Tree_node@PAVIMeetingServiceEvent@ZOOMSDK@@PAX@std@@@std@@@std@@SAXAAV?$allocator@U?$_Tree_node@PAVIMeetingServiceEvent@ZOOMSDK@@PAX@std@@@1@QAPAVIMeetingServiceEvent@ZOOMSDK@@@Z 004012a0 f i sdk_util.obj
 0001:000002a0       ??$_Destroy_in_place@PA_W@std@@YAXAAPA_W@Z 004012a0 f i AnnotateBarWindow.obj
 0001:000002a0       ??$_Adl_verify_range@V?$_Tree_const_iterator@V?$_Tree_val@U?$_Tree_simple_types@PAVIAuthServiceEvent@ZOOMSDK@@@std@@@std@@@std@@V12@@std@@YAXABV?$_Tree_const_iterator@V?$_Tree_val@U?$_Tree_simple_types@PAVIAuthServiceEvent@ZOOMSDK@@@std@@@std@@@0@0@Z 004012a0 f i sdk_util.obj
 0001:000002a0       ??$_Adl_verify_range@V?$_Tree_unchecked_const_iterator@V?$_Tree_val@U?$_Tree_simple_types@PAVIMeetingParticipantsCtrlEvent@ZOOMSDK@@@std@@@std@@U_Iterator_base0@2@@std@@V12@@std@@YAXABV?$_Tree_unchecked_const_iterator@V?$_Tree_val@U?$_Tree_simple_types@PAVIMeetingParticipantsCtrlEvent@ZOOMSDK@@@std@@@std@@U_Iterator_base0@2@@0@0@Z 004012a0 f i sdk_util.obj
 0001:000002a0       ??$_Destroy_range@V?$allocator@PAVIVirtualBGImageInfo@ZOOMSDK@@@std@@@std@@YAXPAPAVIVirtualBGImageInfo@ZOOMSDK@@QAPAV12@AAV?$allocator@PAVIVirtualBGImageInfo@ZOOMSDK@@@0@@Z 004012a0 f i settings_ui.obj
 0001:000002a0       ??$_Adl_verify_range@V?$_Tree_unchecked_const_iterator@V?$_Tree_val@U?$_Tree_simple_types@PAVIMeetingServiceEvent@ZOOMSDK@@@std@@@std@@U_Iterator_base0@2@@std@@V12@@std@@YAXABV?$_Tree_unchecked_const_iterator@V?$_Tree_val@U?$_Tree_simple_types@PAVIMeetingServiceEvent@ZOOMSDK@@@std@@@std@@U_Iterator_base0@2@@0@0@Z 004012a0 f i sdk_util.obj
 0001:000002a0       ??$GetDefaultValueT@PAVIAlternativeHostInfo@ZOOMSDK@@@@YAXAAPAVIAlternativeHostInfo@ZOOMSDK@@@Z 004012a0 f i schedule_meeting_ui.obj
 0001:000002a0       ??$_Destroy_in_place@PAU?$_Tree_node@PAVISDKInMeetingServiceMgrEvent@@PAX@std@@@std@@YAXAAPAU?$_Tree_node@PAVISDKInMeetingServiceMgrEvent@@PAX@0@@Z 004012a0 f i sdk_util.obj
 0001:000002a0       ??$_Adl_verify_range@V?$_Tree_unchecked_const_iterator@V?$_Tree_val@U?$_Tree_simple_types@PAVIPreMeetingServiceEvent@ZOOMSDK@@@std@@@std@@U_Iterator_base0@2@@std@@V12@@std@@YAXABV?$_Tree_unchecked_const_iterator@V?$_Tree_val@U?$_Tree_simple_types@PAVIPreMeetingServiceEvent@ZOOMSDK@@@std@@@std@@U_Iterator_base0@2@@0@0@Z 004012a0 f i sdk_util.obj
 0001:000002a0       ??$_Destroy_in_place@PAU?$_Tree_node@PAVIMeetingParticipantsCtrlEvent@ZOOMSDK@@PAX@std@@@std@@YAXAAPAU?$_Tree_node@PAVIMeetingParticipantsCtrlEvent@ZOOMSDK@@PAX@0@@Z 004012a0 f i sdk_util.obj
 0001:000002a0       ??$_Adl_verify_range@V?$_Tree_const_iterator@V?$_Tree_val@U?$_Tree_simple_types@PAVISDKInMeetingServiceMgrEvent@@@std@@@std@@@std@@V12@@std@@YAXABV?$_Tree_const_iterator@V?$_Tree_val@U?$_Tree_simple_types@PAVISDKInMeetingServiceMgrEvent@@@std@@@std@@@0@0@Z 004012a0 f i sdk_util.obj
 0001:000002a0       ??$_Adl_verify_range@V?$_Tree_unchecked_const_iterator@V?$_Tree_val@U?$_Tree_simple_types@PAVIClosedCaptionControllerEvent@ZOOMSDK@@@std@@@std@@U_Iterator_base0@2@@std@@V12@@std@@YAXABV?$_Tree_unchecked_const_iterator@V?$_Tree_val@U?$_Tree_simple_types@PAVIClosedCaptionControllerEvent@ZOOMSDK@@@std@@@std@@U_Iterator_base0@2@@0@0@Z 004012a0 f i sdk_util.obj
 0001:000002a0       ??$_Destroy_in_place@PAU?$_List_node@HPAX@std@@@std@@YAXAAPAU?$_List_node@HPAX@0@@Z 004012a0 f i participant_ui.obj
 0001:000002b0       ??$_Get_size_of_n@$01@std@@YAII@Z 004012b0 f i AnnotateBarWindow.obj
 0001:000002e0       ??$_Reallocate_for@V<lambda_03628ca18370b1f44a99b655e704819b>@@PB_W@?$basic_string@_WU?$char_traits@_W@std@@V?$allocator@_W@2@@std@@AAEAAV01@IV<lambda_03628ca18370b1f44a99b655e704819b>@@PB_W@Z 004012e0 f i AnnotateBarWindow.obj
 0001:000003b0       ??$_Traits_equal@U?$char_traits@_W@std@@@std@@YA_NQB_WI0I@Z 004013b0 f i AnnotateBarWindow.obj
 0001:000003f0       ??$max@PA_W@std@@YAABQA_WABQA_W0@Z 004013f0 f i schedule_meeting_ui.obj
 0001:000003f0       ??$max@I@std@@YAABIABI0@Z  004013f0 f i AnnotateBarWindow.obj
 0001:00000420       ??$min@I@std@@YAABIABI0@Z  00401420 f i AnnotateBarWindow.obj
 0001:00000450       ??0?$_String_val@U?$_Simple_types@_W@std@@@std@@QAE@XZ 00401450 f i AnnotateBarWindow.obj
 0001:00000480       ?_Get_first@?$_Compressed_pair@V?$allocator@U?$_Tree_node@PAVIMeetingServiceEvent@ZOOMSDK@@PAX@std@@@std@@V?$_Tree_val@U?$_Tree_simple_types@PAVIMeetingServiceEvent@ZOOMSDK@@@std@@@2@$00@std@@QAEAAV?$allocator@U?$_Tree_node@PAVIMeetingServiceEvent@ZOOMSDK@@PAX@std@@@2@XZ 00401480 f i sdk_util.obj
 0001:00000480       ??0CMoreFeaturesWorkflow@@QAE@XZ 00401480 f i more_features_workflow.obj
 0001:00000480       ?_Get_first@?$_Compressed_pair@V?$allocator@U?$_Tree_node@PAVIAuthServiceEvent@ZOOMSDK@@PAX@std@@@std@@V?$_Tree_val@U?$_Tree_simple_types@PAVIAuthServiceEvent@ZOOMSDK@@@std@@@2@$00@std@@QBEABV?$allocator@U?$_Tree_node@PAVIAuthServiceEvent@ZOOMSDK@@PAX@std@@@2@XZ 00401480 f i sdk_util.obj
 0001:00000480       ??0?$allocator@U?$_Tree_node@PAVIMeetingServiceEvent@ZOOMSDK@@PAX@std@@@std@@QAE@XZ 00401480 f i sdk_util.obj
 0001:00000480       ?_Get_first@?$_Compressed_pair@U?$less@PAVIMeetingVideoCtrlEvent@ZOOMSDK@@@std@@V?$_Compressed_pair@V?$allocator@U?$_Tree_node@PAVIMeetingVideoCtrlEvent@ZOOMSDK@@PAX@std@@@std@@V?$_Tree_val@U?$_Tree_simple_types@PAVIMeetingVideoCtrlEvent@ZOOMSDK@@@std@@@2@$00@2@$00@std@@QBEABU?$less@PAVIMeetingVideoCtrlEvent@ZOOMSDK@@@2@XZ 00401480 f i sdk_util.obj
 0001:00000480       ?_Get_first@?$_Compressed_pair@V?$allocator@U?$_Tree_node@U?$pair@$$CBIPAVIUserInfo@ZOOMSDK@@@std@@PAX@std@@@std@@V?$_Tree_val@U?$_Tree_simple_types@U?$pair@$$CBIPAVIUserInfo@ZOOMSDK@@@std@@@std@@@2@$00@std@@QBEABV?$allocator@U?$_Tree_node@U?$pair@$$CBIPAVIUserInfo@ZOOMSDK@@@std@@PAX@std@@@2@XZ 00401480 f i user_manager.obj
 0001:00000480       ??0?$tuple@$$V@std@@QAE@XZ 00401480 f i user_manager.obj
 0001:00000480       ?_Get_first@?$_Compressed_pair@U?$less@I@std@@V?$_Compressed_pair@V?$allocator@U?$_Tree_node@U?$pair@$$CBIPAVIUserInfo@ZOOMSDK@@@std@@PAX@std@@@std@@V?$_Tree_val@U?$_Tree_simple_types@U?$pair@$$CBIPAVIUserInfo@ZOOMSDK@@@std@@@std@@@2@$00@2@$00@std@@QBEABU?$less@I@2@XZ 00401480 f i user_manager.obj
 0001:00000480       ?_Get_first@?$_Compressed_pair@U?$less@H@std@@V?$_Compressed_pair@V?$allocator@U?$_Tree_node@U?$pair@$$CBHW4bkItemType@@@std@@PAX@std@@@std@@V?$_Tree_val@U?$_Tree_simple_types@U?$pair@$$CBHW4bkItemType@@@std@@@std@@@2@$00@2@$00@std@@QBEABU?$less@H@2@XZ 00401480 f i settings_ui.obj
 0001:00000480       ?_Get_first@?$_Compressed_pair@V?$allocator@U?$_List_node@HPAX@std@@@std@@V?$_List_val@U?$_List_simple_types@H@std@@@2@$00@std@@QBEABV?$allocator@U?$_List_node@HPAX@std@@@2@XZ 00401480 f i participant_ui.obj
 0001:00000480       ??0?$allocator@_W@std@@QAE@XZ 00401480 f i AnnotateBarWindow.obj
 0001:00000480       ?_Get_first@?$_Compressed_pair@V?$allocator@U?$_Tree_node@PAVIMeetingVideoCtrlEvent@ZOOMSDK@@PAX@std@@@std@@V?$_Tree_val@U?$_Tree_simple_types@PAVIMeetingVideoCtrlEvent@ZOOMSDK@@@std@@@2@$00@std@@QBEABV?$allocator@U?$_Tree_node@PAVIMeetingVideoCtrlEvent@ZOOMSDK@@PAX@std@@@2@XZ 00401480 f i sdk_util.obj
 0001:00000480       ??0?$allocator@U?$_Tree_node@PAVIMeetingVideoCtrlEvent@ZOOMSDK@@PAX@std@@@std@@QAE@XZ 00401480 f i sdk_util.obj
 0001:00000480       ?_Get_first@?$_Compressed_pair@V?$allocator@PAVIVirtualBGImageInfo@ZOOMSDK@@@std@@V?$_Vector_val@U?$_Simple_types@PAVIVirtualBGImageInfo@ZOOMSDK@@@std@@@2@$00@std@@QBEABV?$allocator@PAVIVirtualBGImageInfo@ZOOMSDK@@@2@XZ 00401480 f i settings_ui.obj
 0001:00000480       ?_Get_first@?$_Compressed_pair@V?$allocator@U?$_Tree_node@U?$pair@$$CBHW4bkItemType@@@std@@PAX@std@@@std@@V?$_Tree_val@U?$_Tree_simple_types@U?$pair@$$CBHW4bkItemType@@@std@@@std@@@2@$00@std@@QAEAAV?$allocator@U?$_Tree_node@U?$pair@$$CBHW4bkItemType@@@std@@PAX@std@@@2@XZ 00401480 f i settings_ui.obj
 0001:00000480       ??0?$allocator@U?$_Tree_node@U?$pair@$$CBIPAVIUserInfo@ZOOMSDK@@@std@@PAX@std@@@std@@QAE@XZ 00401480 f i user_manager.obj
 0001:00000480       ??0?$allocator@U?$_Tree_node@PAVIClosedCaptionControllerEvent@ZOOMSDK@@PAX@std@@@std@@QAE@XZ 00401480 f i sdk_util.obj
 0001:00000480       ?GetMarkup@CDialogBuilder@DuiLib@@QAEPAVCMarkup@2@XZ 00401480 f i DuiLib:UIDlgBuilder.obj
 0001:00000480       ?_Get_first@?$_Compressed_pair@V?$allocator@PAVIVirtualBGImageInfo@ZOOMSDK@@@std@@V?$_Vector_val@U?$_Simple_types@PAVIVirtualBGImageInfo@ZOOMSDK@@@std@@@2@$00@std@@QAEAAV?$allocator@PAVIVirtualBGImageInfo@ZOOMSDK@@@2@XZ 00401480 f i settings_ui.obj
 0001:00000480       ?_Get_first@?$_Compressed_pair@V?$allocator@U?$_Tree_node@PAVIMeetingVideoCtrlEvent@ZOOMSDK@@PAX@std@@@std@@V?$_Tree_val@U?$_Tree_simple_types@PAVIMeetingVideoCtrlEvent@ZOOMSDK@@@std@@@2@$00@std@@QAEAAV?$allocator@U?$_Tree_node@PAVIMeetingVideoCtrlEvent@ZOOMSDK@@PAX@std@@@2@XZ 00401480 f i sdk_util.obj
 0001:00000480       ?_Get_first@?$_Compressed_pair@V?$allocator@U?$_Tree_node@PAVIClosedCaptionControllerEvent@ZOOMSDK@@PAX@std@@@std@@V?$_Tree_val@U?$_Tree_simple_types@PAVIClosedCaptionControllerEvent@ZOOMSDK@@@std@@@2@$00@std@@QAEAAV?$allocator@U?$_Tree_node@PAVIClosedCaptionControllerEvent@ZOOMSDK@@PAX@std@@@2@XZ 00401480 f i sdk_util.obj
 0001:00000480       ?_Get_first@?$_Compressed_pair@V?$allocator@U?$_Tree_node@PAVIClosedCaptionControllerEvent@ZOOMSDK@@PAX@std@@@std@@V?$_Tree_val@U?$_Tree_simple_types@PAVIClosedCaptionControllerEvent@ZOOMSDK@@@std@@@2@$00@std@@QBEABV?$allocator@U?$_Tree_node@PAVIClosedCaptionControllerEvent@ZOOMSDK@@PAX@std@@@2@XZ 00401480 f i sdk_util.obj
 0001:00000480       ?_Get_first@?$_Compressed_pair@V?$allocator@PAVIAlternativeHostInfo@ZOOMSDK@@@std@@V?$_Vector_val@U?$_Simple_types@PAVIAlternativeHostInfo@ZOOMSDK@@@std@@@2@$00@std@@QAEAAV?$allocator@PAVIAlternativeHostInfo@ZOOMSDK@@@2@XZ 00401480 f i schedule_meeting_ui.obj
 0001:00000480       ??0_Bxty@?$_String_val@U?$_Simple_types@_W@std@@@std@@QAE@XZ 00401480 f i AnnotateBarWindow.obj
 0001:00000480       ?_Get_first@?$_Compressed_pair@U?$less@PAVIMeetingServiceEvent@ZOOMSDK@@@std@@V?$_Compressed_pair@V?$allocator@U?$_Tree_node@PAVIMeetingServiceEvent@ZOOMSDK@@PAX@std@@@std@@V?$_Tree_val@U?$_Tree_simple_types@PAVIMeetingServiceEvent@ZOOMSDK@@@std@@@2@$00@2@$00@std@@QBEABU?$less@PAVIMeetingServiceEvent@ZOOMSDK@@@2@XZ 00401480 f i sdk_util.obj
 0001:00000480       ??0?$allocator@PAVIUserInfo@ZOOMSDK@@@std@@QAE@XZ 00401480 f i user_manager.obj
 0001:00000480       ?_Get_first@?$_Compressed_pair@V?$allocator@U?$_Tree_node@U?$pair@$$CBIPAVIUserInfo@ZOOMSDK@@@std@@PAX@std@@@std@@V?$_Tree_val@U?$_Tree_simple_types@U?$pair@$$CBIPAVIUserInfo@ZOOMSDK@@@std@@@std@@@2@$00@std@@QAEAAV?$allocator@U?$_Tree_node@U?$pair@$$CBIPAVIUserInfo@ZOOMSDK@@@std@@PAX@std@@@2@XZ 00401480 f i user_manager.obj
 0001:00000480       ??0?$allocator@U?$_Tree_node@U?$pair@$$CBHW4bkItemType@@@std@@PAX@std@@@std@@QAE@XZ 00401480 f i settings_ui.obj
 0001:00000480       ?_Get_first@?$_Compressed_pair@V?$allocator@PAVIAlternativeHostInfo@ZOOMSDK@@@std@@V?$_Vector_val@U?$_Simple_types@PAVIAlternativeHostInfo@ZOOMSDK@@@std@@@2@$00@std@@QBEABV?$allocator@PAVIAlternativeHostInfo@ZOOMSDK@@@2@XZ 00401480 f i schedule_meeting_ui.obj
 0001:00000480       ?_Get_first@?$_Compressed_pair@U?$less@PAVIMeetingChatCtrlEvent@ZOOMSDK@@@std@@V?$_Compressed_pair@V?$allocator@U?$_Tree_node@PAVIMeetingChatCtrlEvent@ZOOMSDK@@PAX@std@@@std@@V?$_Tree_val@U?$_Tree_simple_types@PAVIMeetingChatCtrlEvent@ZOOMSDK@@@std@@@2@$00@2@$00@std@@QBEABU?$less@PAVIMeetingChatCtrlEvent@ZOOMSDK@@@2@XZ 00401480 f i sdk_util.obj
 0001:00000480       ?_Get_first@?$_Compressed_pair@V?$allocator@U?$_Tree_node@PAVISDKInMeetingServiceMgrEvent@@PAX@std@@@std@@V?$_Tree_val@U?$_Tree_simple_types@PAVISDKInMeetingServiceMgrEvent@@@std@@@2@$00@std@@QAEAAV?$allocator@U?$_Tree_node@PAVISDKInMeetingServiceMgrEvent@@PAX@std@@@2@XZ 00401480 f i sdk_util.obj
 0001:00000480       ?_Get_first@?$_Compressed_pair@V?$allocator@_W@std@@V?$_String_val@U?$_Simple_types@_W@std@@@2@$00@std@@QBEABV?$allocator@_W@2@XZ 00401480 f i AnnotateBarWindow.obj
 0001:00000480       ??0?$allocator@PAVIAlternativeHostInfo@ZOOMSDK@@@std@@QAE@XZ 00401480 f i schedule_meeting_ui.obj
 0001:00000480       ??0?$allocator@PAVIInterpreterInfo@ZOOMSDK@@@std@@QAE@XZ 00401480 f i schedule_meeting_ui.obj
 0001:00000480       ?_Get_first@?$_Compressed_pair@V?$allocator@U?$_Tree_node@PAVIMeetingChatCtrlEvent@ZOOMSDK@@PAX@std@@@std@@V?$_Tree_val@U?$_Tree_simple_types@PAVIMeetingChatCtrlEvent@ZOOMSDK@@@std@@@2@$00@std@@QBEABV?$allocator@U?$_Tree_node@PAVIMeetingChatCtrlEvent@ZOOMSDK@@PAX@std@@@2@XZ 00401480 f i sdk_util.obj
 0001:00000480       ??0?$allocator@V?$basic_string@_WU?$char_traits@_W@std@@V?$allocator@_W@2@@std@@@std@@QAE@XZ 00401480 f i custom_ui_share_flow.obj
 0001:00000480       ?_Get_first@?$_Compressed_pair@V?$allocator@U?$_Tree_node@PAVIMeetingParticipantsCtrlEvent@ZOOMSDK@@PAX@std@@@std@@V?$_Tree_val@U?$_Tree_simple_types@PAVIMeetingParticipantsCtrlEvent@ZOOMSDK@@@std@@@2@$00@std@@QAEAAV?$allocator@U?$_Tree_node@PAVIMeetingParticipantsCtrlEvent@ZOOMSDK@@PAX@std@@@2@XZ 00401480 f i sdk_util.obj
 0001:00000480       ?_Get_first@?$_Compressed_pair@V?$allocator@U?$_Tree_node@U?$pair@$$CBHW4bkItemType@@@std@@PAX@std@@@std@@V?$_Tree_val@U?$_Tree_simple_types@U?$pair@$$CBHW4bkItemType@@@std@@@std@@@2@$00@std@@QBEABV?$allocator@U?$_Tree_node@U?$pair@$$CBHW4bkItemType@@@std@@PAX@std@@@2@XZ 00401480 f i settings_ui.obj
 0001:00000480       ?_Get_first@?$_Compressed_pair@V?$allocator@PAVIUserInfo@ZOOMSDK@@@std@@V?$_Vector_val@U?$_Simple_types@PAVIUserInfo@ZOOMSDK@@@std@@@2@$00@std@@QBEABV?$allocator@PAVIUserInfo@ZOOMSDK@@@2@XZ 00401480 f i user_manager.obj
 0001:00000480       ?_Get_first@?$_Compressed_pair@V?$allocator@V?$basic_string@_WU?$char_traits@_W@std@@V?$allocator@_W@2@@std@@@std@@V?$_Vector_val@U?$_Simple_types@V?$basic_string@_WU?$char_traits@_W@std@@V?$allocator@_W@2@@std@@@std@@@2@$00@std@@QBEABV?$allocator@V?$basic_string@_WU?$char_traits@_W@std@@V?$allocator@_W@2@@std@@@2@XZ 00401480 f i custom_ui_share_flow.obj
 0001:00000480       ?_Get_first@?$_Compressed_pair@V?$allocator@U?$_Tree_node@PAVIPreMeetingServiceEvent@ZOOMSDK@@PAX@std@@@std@@V?$_Tree_val@U?$_Tree_simple_types@PAVIPreMeetingServiceEvent@ZOOMSDK@@@std@@@2@$00@std@@QBEABV?$allocator@U?$_Tree_node@PAVIPreMeetingServiceEvent@ZOOMSDK@@PAX@std@@@2@XZ 00401480 f i sdk_util.obj
 0001:00000480       ?_Get_first@?$_Compressed_pair@V?$allocator@U?$_Tree_node@PAVIAuthServiceEvent@ZOOMSDK@@PAX@std@@@std@@V?$_Tree_val@U?$_Tree_simple_types@PAVIAuthServiceEvent@ZOOMSDK@@@std@@@2@$00@std@@QAEAAV?$allocator@U?$_Tree_node@PAVIAuthServiceEvent@ZOOMSDK@@PAX@std@@@2@XZ 00401480 f i sdk_util.obj
 0001:00000480       ??0?$allocator@U?$_List_node@HPAX@std@@@std@@QAE@XZ 00401480 f i participant_ui.obj
 0001:00000480       ?_Get_first@?$_Compressed_pair@U?$less@PAVIPreMeetingServiceEvent@ZOOMSDK@@@std@@V?$_Compressed_pair@V?$allocator@U?$_Tree_node@PAVIPreMeetingServiceEvent@ZOOMSDK@@PAX@std@@@std@@V?$_Tree_val@U?$_Tree_simple_types@PAVIPreMeetingServiceEvent@ZOOMSDK@@@std@@@2@$00@2@$00@std@@QBEABU?$less@PAVIPreMeetingServiceEvent@ZOOMSDK@@@2@XZ 00401480 f i sdk_util.obj
 0001:00000480       ??0?$allocator@U?$_Tree_node@PAVIPreMeetingServiceEvent@ZOOMSDK@@PAX@std@@@std@@QAE@XZ 00401480 f i sdk_util.obj
 0001:00000480       ?_Get_first@?$_Compressed_pair@V?$allocator@U?$_Tree_node@PAVIMeetingServiceEvent@ZOOMSDK@@PAX@std@@@std@@V?$_Tree_val@U?$_Tree_simple_types@PAVIMeetingServiceEvent@ZOOMSDK@@@std@@@2@$00@std@@QBEABV?$allocator@U?$_Tree_node@PAVIMeetingServiceEvent@ZOOMSDK@@PAX@std@@@2@XZ 00401480 f i sdk_util.obj
 0001:00000480       ?_Get_first@?$_Compressed_pair@V?$allocator@U?$_Tree_node@PAVIMeetingChatCtrlEvent@ZOOMSDK@@PAX@std@@@std@@V?$_Tree_val@U?$_Tree_simple_types@PAVIMeetingChatCtrlEvent@ZOOMSDK@@@std@@@2@$00@std@@QAEAAV?$allocator@U?$_Tree_node@PAVIMeetingChatCtrlEvent@ZOOMSDK@@PAX@std@@@2@XZ 00401480 f i sdk_util.obj
 0001:00000480       ?_Get_first@?$_Compressed_pair@V?$allocator@V?$basic_string@_WU?$char_traits@_W@std@@V?$allocator@_W@2@@std@@@std@@V?$_Vector_val@U?$_Simple_types@V?$basic_string@_WU?$char_traits@_W@std@@V?$allocator@_W@2@@std@@@std@@@2@$00@std@@QAEAAV?$allocator@V?$basic_string@_WU?$char_traits@_W@std@@V?$allocator@_W@2@@std@@@2@XZ 00401480 f i custom_ui_share_flow.obj
 0001:00000480       ?_Get_first@?$_Compressed_pair@V?$allocator@_W@std@@V?$_String_val@U?$_Simple_types@_W@std@@@2@$00@std@@QAEAAV?$allocator@_W@2@XZ 00401480 f i AnnotateBarWindow.obj
 0001:00000480       ?_Get_first@?$_Compressed_pair@U?$less@PAVIAuthServiceEvent@ZOOMSDK@@@std@@V?$_Compressed_pair@V?$allocator@U?$_Tree_node@PAVIAuthServiceEvent@ZOOMSDK@@PAX@std@@@std@@V?$_Tree_val@U?$_Tree_simple_types@PAVIAuthServiceEvent@ZOOMSDK@@@std@@@2@$00@2@$00@std@@QBEABU?$less@PAVIAuthServiceEvent@ZOOMSDK@@@2@XZ 00401480 f i sdk_util.obj
 0001:00000480       ?_Get_first@?$_Compressed_pair@U?$less@PAVIClosedCaptionControllerEvent@ZOOMSDK@@@std@@V?$_Compressed_pair@V?$allocator@U?$_Tree_node@PAVIClosedCaptionControllerEvent@ZOOMSDK@@PAX@std@@@std@@V?$_Tree_val@U?$_Tree_simple_types@PAVIClosedCaptionControllerEvent@ZOOMSDK@@@std@@@2@$00@2@$00@std@@QBEABU?$less@PAVIClosedCaptionControllerEvent@ZOOMSDK@@@2@XZ 00401480 f i sdk_util.obj
 0001:00000480       ?_Get_first@?$_Compressed_pair@V?$allocator@U?$_Tree_node@PAVIPreMeetingServiceEvent@ZOOMSDK@@PAX@std@@@std@@V?$_Tree_val@U?$_Tree_simple_types@PAVIPreMeetingServiceEvent@ZOOMSDK@@@std@@@2@$00@std@@QAEAAV?$allocator@U?$_Tree_node@PAVIPreMeetingServiceEvent@ZOOMSDK@@PAX@std@@@2@XZ 00401480 f i sdk_util.obj
 0001:00000480       ?_Get_first@?$_Compressed_pair@V?$allocator@PAVIInterpreterInfo@ZOOMSDK@@@std@@V?$_Vector_val@U?$_Simple_types@PAVIInterpreterInfo@ZOOMSDK@@@std@@@2@$00@std@@QBEABV?$allocator@PAVIInterpreterInfo@ZOOMSDK@@@2@XZ 00401480 f i schedule_meeting_ui.obj
 0001:00000480       ??0?$allocator@U?$_Tree_node@PAVIMeetingParticipantsCtrlEvent@ZOOMSDK@@PAX@std@@@std@@QAE@XZ 00401480 f i sdk_util.obj
 0001:00000480       ??0?$allocator@U?$_Tree_node@PAVIAuthServiceEvent@ZOOMSDK@@PAX@std@@@std@@QAE@XZ 00401480 f i sdk_util.obj
 0001:00000480       ?_Get_first@?$_Compressed_pair@V?$allocator@U?$_Tree_node@PAVISDKInMeetingServiceMgrEvent@@PAX@std@@@std@@V?$_Tree_val@U?$_Tree_simple_types@PAVISDKInMeetingServiceMgrEvent@@@std@@@2@$00@std@@QBEABV?$allocator@U?$_Tree_node@PAVISDKInMeetingServiceMgrEvent@@PAX@std@@@2@XZ 00401480 f i sdk_util.obj
 0001:00000480       ?_Get_first@?$_Compressed_pair@V?$allocator@PAVIInterpreterInfo@ZOOMSDK@@@std@@V?$_Vector_val@U?$_Simple_types@PAVIInterpreterInfo@ZOOMSDK@@@std@@@2@$00@std@@QAEAAV?$allocator@PAVIInterpreterInfo@ZOOMSDK@@@2@XZ 00401480 f i schedule_meeting_ui.obj
 0001:00000480       ??0?$allocator@PAVIVirtualBGImageInfo@ZOOMSDK@@@std@@QAE@XZ 00401480 f i settings_ui.obj
 0001:00000480       ??0?$allocator@U?$_Tree_node@PAVIMeetingChatCtrlEvent@ZOOMSDK@@PAX@std@@@std@@QAE@XZ 00401480 f i sdk_util.obj
 0001:00000480       ?_Get_first@?$_Compressed_pair@V?$allocator@U?$_List_node@HPAX@std@@@std@@V?$_List_val@U?$_List_simple_types@H@std@@@2@$00@std@@QAEAAV?$allocator@U?$_List_node@HPAX@std@@@2@XZ 00401480 f i participant_ui.obj
 0001:00000480       ?_Get_first@?$_Compressed_pair@V?$allocator@U?$_Tree_node@PAVIMeetingParticipantsCtrlEvent@ZOOMSDK@@PAX@std@@@std@@V?$_Tree_val@U?$_Tree_simple_types@PAVIMeetingParticipantsCtrlEvent@ZOOMSDK@@@std@@@2@$00@std@@QBEABV?$allocator@U?$_Tree_node@PAVIMeetingParticipantsCtrlEvent@ZOOMSDK@@PAX@std@@@2@XZ 00401480 f i sdk_util.obj
 0001:00000480       ?_Get_first@?$_Compressed_pair@U?$less@PAVISDKInMeetingServiceMgrEvent@@@std@@V?$_Compressed_pair@V?$allocator@U?$_Tree_node@PAVISDKInMeetingServiceMgrEvent@@PAX@std@@@std@@V?$_Tree_val@U?$_Tree_simple_types@PAVISDKInMeetingServiceMgrEvent@@@std@@@2@$00@2@$00@std@@QBEABU?$less@PAVISDKInMeetingServiceMgrEvent@@@2@XZ 00401480 f i sdk_util.obj
 0001:00000480       ?_Get_first@?$_Compressed_pair@U?$less@PAVIMeetingParticipantsCtrlEvent@ZOOMSDK@@@std@@V?$_Compressed_pair@V?$allocator@U?$_Tree_node@PAVIMeetingParticipantsCtrlEvent@ZOOMSDK@@PAX@std@@@std@@V?$_Tree_val@U?$_Tree_simple_types@PAVIMeetingParticipantsCtrlEvent@ZOOMSDK@@@std@@@2@$00@2@$00@std@@QBEABU?$less@PAVIMeetingParticipantsCtrlEvent@ZOOMSDK@@@2@XZ 00401480 f i sdk_util.obj
 0001:00000480       ?_Get_first@?$_Compressed_pair@V?$allocator@PAVIUserInfo@ZOOMSDK@@@std@@V?$_Vector_val@U?$_Simple_types@PAVIUserInfo@ZOOMSDK@@@std@@@2@$00@std@@QAEAAV?$allocator@PAVIUserInfo@ZOOMSDK@@@2@XZ 00401480 f i user_manager.obj
 0001:00000480       ??0?$allocator@U?$_Tree_node@PAVISDKInMeetingServiceMgrEvent@@PAX@std@@@std@@QAE@XZ 00401480 f i sdk_util.obj
 0001:00000490       ??0?$basic_string@_WU?$char_traits@_W@std@@V?$allocator@_W@2@@std@@QAE@QB_W@Z 00401490 f i AnnotateBarWindow.obj
 0001:00000520       ??0AnnotateBarWindow@@QAE@PAVICustomizedShareRender@ZOOMSDK@@@Z 00401520 f   AnnotateBarWindow.obj
 0001:00000680       ??0CComCriticalSection@ATL@@QAE@XZ 00401680 f i AnnotateBarWindow.obj
 0001:000006b0       ??0INotifyUI@DuiLib@@QAE@XZ 004016b0 f i AnnotateBarWindow.obj
 0001:000006d0       ??0_Fake_proxy_ptr_impl@std@@QAE@ABU_Fake_allocator@1@ABU_Container_base0@1@@Z 004016d0 f i AnnotateBarWindow.obj
 0001:000006e0       ??0bad_alloc@std@@AAE@QBD@Z 004016e0 f i AnnotateBarWindow.obj
 0001:00000710       ??0bad_alloc@std@@QAE@ABV01@@Z 00401710 f i AnnotateBarWindow.obj
 0001:00000740       ??0bad_array_new_length@std@@QAE@ABV01@@Z 00401740 f i AnnotateBarWindow.obj
 0001:00000770       ??0bad_array_new_length@std@@QAE@XZ 00401770 f i AnnotateBarWindow.obj
 0001:000007a0       ??0exception@std@@QAE@ABV01@@Z 004017a0 f i AnnotateBarWindow.obj
 0001:000007e0       ??0exception@std@@QAE@QBDH@Z 004017e0 f i AnnotateBarWindow.obj
 0001:00000810       ??1?$_Compressed_pair@V?$allocator@_W@std@@V?$_String_val@U?$_Simple_types@_W@std@@@2@$00@std@@QAE@XZ 00401810 f i AnnotateBarWindow.obj
 0001:00000830       ??1?$_String_val@U?$_Simple_types@_W@std@@@std@@QAE@XZ 00401830 f i AnnotateBarWindow.obj
 0001:00000850       ??1?$basic_string@_WU?$char_traits@_W@std@@V?$allocator@_W@2@@std@@QAE@XZ 00401850 f i AnnotateBarWindow.obj
 0001:00000870       ??1AnnotateBarWindow@@QAE@XZ 00401870 f   AnnotateBarWindow.obj
 0001:00000a70       ?OnNoWindowToShowPreview@CSDKCustomUIWorkFlow@@UAEXXZ 00401a70 f i custom_ui_mgr_flow.obj
 0001:00000a70       ?OnNoVideoDeviceIsUseful@CSDKVirtualBGSettingsWorkFlow@@UAEXXZ 00401a70 f i SETTINGS_virtualBG_workflow.obj
 0001:00000a70       ??1CMoreFeaturesWorkflow@@QAE@XZ 00401a70 f i more_features_workflow.obj
 0001:00000a70       ?OnSelectedVideoDeviceIsChanged@CSDKVirtualBGSettingsWorkFlow@@UAEXXZ 00401a70 f i SETTINGS_virtualBG_workflow.obj
 0001:00000a70       ??1CComCriticalSection@ATL@@QAE@XZ 00401a70 f i AnnotateBarWindow.obj
 0001:00000a70       ?OnSelectedVideoDeviceIsChanged@CSDKCustomUIWorkFlow@@UAEXXZ 00401a70 f i custom_ui_mgr_flow.obj
 0001:00000a70       ?onZoomIdentityExpired@CSDKLoginCBHandler@@UAEXXZ 00401a70 f i LOGIN_sdk_login_UI.obj
 0001:00000a70       ?_Orphan_all@_Container_base0@std@@QAEXXZ 00401a70 f i AnnotateBarWindow.obj
 0001:00000a70       ?Cleanup@CAuthSDKWorkFlow@@QAEXXZ 00401a70 f i sdk_init_auth_ui.obj
 0001:00000a70       ?onZoomIdentityExpired@CAuthSDKWorkFlow@@UAEXXZ 00401a70 f i init_auth_sdk_workflow.obj
 0001:00000a70       ?Cleanup@CSDKGeneralSettingsWorkFlow@@QAEXXZ 00401a70 f i settings_ui.obj
 0001:00000a70       ?CleanUp@CSDKFeatureCustomSettingsWorkFlow@@QAEXXZ 00401a70 f i settings_ui.obj
 0001:00000a70       ?onZoomInviteDialogFailed@CSDKCustomUIWorkFlow@@UAEXXZ 00401a70 f i custom_ui_mgr_flow.obj
 0001:00000a70       ?DoInit@CControlUI@DuiLib@@UAEXXZ 00401a70 f i DuiLib:UIControl.obj
 0001:00000a70       ?onLogout@CAuthSDKWorkFlow@@UAEXXZ 00401a70 f i init_auth_sdk_workflow.obj
 0001:00000a70       ?OnSelectedAudioDeviceIsChanged@CSDKCustomUIWorkFlow@@UAEXXZ 00401a70 f i custom_ui_mgr_flow.obj
 0001:00000a70       ??1_Bxty@?$_String_val@U?$_Simple_types@_W@std@@@std@@QAE@XZ 00401a70 f i AnnotateBarWindow.obj
 0001:00000a70       ?Cleanup@CSDKUICustomSettingsWorkFlow@@QAEXXZ 00401a70 f i settings_ui.obj
 0001:00000a70       ?onVBImageDidDownloaded@CSDKVirtualBGSettingsUIGroup@@UAEXXZ 00401a70 f i settings_ui.obj
 0001:00000a70       ?onBreakoutRoomBtnClicked@CSDKCustomUIWorkFlow@@UAEXXZ 00401a70 f i custom_ui_mgr_flow.obj
 0001:00000a70       ?Cleanup@CSDKWithoutLoginStartJoinMeetingFlow@@QAEXXZ 00401a70 f i LOGIN_sdk_login_UI.obj
 0001:00000a70       ?Cleanup@CSDKRestAPIUserWorkFlow@@QAEXXZ 00401a70 f i LOGIN_sdk_login_UI.obj
 0001:00000a70       ?onLogout@CSDKWithoutLoginStartJoinMeetingFlow@@UAEXXZ 00401a70 f i LOGIN_join_meeting_only_workflow.obj
 0001:00000a70       ?onEndMeetingBtnClicked@CSDKCustomUIWorkFlow@@UAEXXZ 00401a70 f i custom_ui_mgr_flow.obj
 0001:00000a70       ?CustomizeDemoResource@CInitSDKWorkFlow@@QAEXXZ 00401a70 f i init_auth_sdk_workflow.obj
 0001:00000a70       ?onStartShareBtnClicked@CSDKCustomUIWorkFlow@@UAEXXZ 00401a70 f i custom_ui_mgr_flow.obj
 0001:00000a70       ?DoStopDirectShareBtnClick@CSDKLoggedInUIMgr@@IAEXXZ 00401a70 f i LoggedIn_sdk_controller_ui.obj
 0001:00000a70       ?Cleanup@CSDKJoinMeetingForLoginUserFlow@@QAEXXZ 00401a70 f i Join_meeting_for_login_user_ui.obj
 0001:00000a70       ?Cleanup@CSDKLoginWithSSOFlow@@QAEXXZ 00401a70 f i LOGIN_sdk_login_UI.obj
 0001:00000a70       ?onSharingContentStartRecving@CCustomizeInMeetingUIMgr@@UAEXXZ 00401a70 f i custom_ui_mgr.obj
 0001:00000a70       ?onSelectedVBImageChanged@CSDKVirtualBGSettingsUIGroup@@UAEXXZ 00401a70 f i settings_ui.obj
 0001:00000a70       ?Cleanup@CSDKAudioSettingsWorkFlow@@QAEXXZ 00401a70 f i settings_ui.obj
 0001:00000a70       ?onCustomLiveStreamMenuClicked@CSDKCustomUIWorkFlow@@UAEXXZ 00401a70 f i custom_ui_mgr_flow.obj
 0001:00000a70       ?onZoomIdentityExpired@CSDKWithoutLoginStartJoinMeetingFlow@@UAEXXZ 00401a70 f i LOGIN_join_meeting_only_workflow.obj
 0001:00000a70       ?Cleanup@CSDKRecordingSettingsWorkFlow@@QAEXXZ 00401a70 f i settings_ui.obj
 0001:00000a70       ?DoInit@CComboUI@DuiLib@@UAEXXZ 00401a70 f i DuiLib:UICombo.obj
 0001:00000a70       ?onZoomAuthIdentityExpired@CSDKLoginCBHandler@@UAEXXZ 00401a70 f i LOGIN_sdk_login_UI.obj
 0001:00000a70       ?onZoomAuthIdentityExpired@CAuthSDKWorkFlow@@UAEXXZ 00401a70 f i init_auth_sdk_workflow.obj
 0001:00000a70       ?Cleanup@CSDKVideoSettingsWorkFlow@@QAEXXZ 00401a70 f i settings_ui.obj
 0001:00000a70       ?onZoomAuthIdentityExpired@CSDKWithoutLoginStartJoinMeetingFlow@@UAEXXZ 00401a70 f i LOGIN_join_meeting_only_workflow.obj
 0001:00000a70       ?OnNoWindowToShowPreview@CSDKVirtualBGSettingsWorkFlow@@UAEXXZ 00401a70 f i SETTINGS_virtualBG_workflow.obj
 0001:00000a70       ?_Release@_Fake_proxy_ptr_impl@std@@QAEXXZ 00401a70 f i AnnotateBarWindow.obj
 0001:00000a70       ?onCCBTNClicked@CSDKCustomUIWorkFlow@@UAEXXZ 00401a70 f i custom_ui_mgr_flow.obj
 0001:00000a70       ?onLogout@CSDKLoginCBHandler@@UAEXXZ 00401a70 f i LOGIN_sdk_login_UI.obj
 0001:00000a70       ?OnNoVideoDeviceIsUseful@CSDKCustomUIWorkFlow@@UAEXXZ 00401a70 f i custom_ui_mgr_flow.obj
 0001:00000a70       ?onParticipantListBtnClicked@CSDKCustomUIWorkFlow@@UAEXXZ 00401a70 f i custom_ui_mgr_flow.obj
 0001:00000a70       ?onAudioMenuBtnClicked@CSDKCustomUIWorkFlow@@UAEXXZ 00401a70 f i custom_ui_mgr_flow.obj
 0001:00000a80       ??1CDialogBuilder@DuiLib@@QAE@XZ 00401a80 f i AnnotateBarWindow.obj
 0001:00000aa0       ??1bad_alloc@std@@UAE@XZ   00401aa0 f i AnnotateBarWindow.obj
 0001:00000ac0       ??1bad_array_new_length@std@@UAE@XZ 00401ac0 f i AnnotateBarWindow.obj
 0001:00000ae0       ??1exception@std@@UAE@XZ   00401ae0 f i AnnotateBarWindow.obj
 0001:00000b10       ??2@YAPAXIPAX@Z            00401b10 f i AnnotateBarWindow.obj
 0001:00000b20       ??R<lambda_03628ca18370b1f44a99b655e704819b>@@QBEXQA_WIQB_W@Z 00401b20 f i AnnotateBarWindow.obj
 0001:00000b60       ??_GAnnotateClearWindow@@QAEPAXI@Z 00401b60 f i AnnotateBarWindow.obj
 0001:00000ba0       ??_GAnnotateDrawWindow@@QAEPAXI@Z 00401ba0 f i AnnotateBarWindow.obj
 0001:00000be0       ??_GAnnotateFormatWindow@@QAEPAXI@Z 00401be0 f i AnnotateBarWindow.obj
 0001:00000c20       ??_GAnnotateSpolightWindow@@QAEPAXI@Z 00401c20 f i AnnotateBarWindow.obj
 0001:00000c60       ??_GAnnotateStampWindow@@QAEPAXI@Z 00401c60 f i AnnotateBarWindow.obj
 0001:00000ca0       ??_Gbad_alloc@std@@UAEPAXI@Z 00401ca0 f i AnnotateBarWindow.obj
 0001:00000ca0       ??_Ebad_alloc@std@@UAEPAXI@Z 00401ca0 f i AnnotateBarWindow.obj
 0001:00000cd0       ??_Gbad_array_new_length@std@@UAEPAXI@Z 00401cd0 f i AnnotateBarWindow.obj
 0001:00000cd0       ??_Ebad_array_new_length@std@@UAEPAXI@Z 00401cd0 f i AnnotateBarWindow.obj
 0001:00000d00       ??_Gexception@std@@UAEPAXI@Z 00401d00 f i AnnotateBarWindow.obj
 0001:00000d00       ??_Eexception@std@@UAEPAXI@Z 00401d00 f i AnnotateBarWindow.obj
 0001:00000d30       ?GetClassStyle@CameraControlWindow@@UBEIXZ 00401d30 f i CameraControlWindow.obj
 0001:00000d30       ?GetClassStyle@AnnotateSpolightWindow@@UBEIXZ 00401d30 f i AnnotateSpolightWindow.obj
 0001:00000d30       ?GetClassStyle@CSDKJoinMeetingForLoginUserUIMgr@@UBEIXZ 00401d30 f i Join_meeting_for_login_user_ui.obj
 0001:00000d30       ?GetClassStyle@CSDKMeetingChatUIMgr@@UBEIXZ 00401d30 f i chat_controller_ui.obj
 0001:00000d30       ?GetClassStyle@AnnotateFormatWindow@@UBEIXZ 00401d30 f i AnnotateFormatWindow.obj
 0001:00000d30       ?GetClassStyle@CSDKLoggedInUIMgr@@UBEIXZ 00401d30 f i LoggedIn_sdk_controller_ui.obj
 0001:00000d30       ?GetClassStyle@AnnotateStampWindow@@UBEIXZ 00401d30 f i AnnotateStampWindow.obj
 0001:00000d30       ?GetClassStyle@AnnotateBarWindow@@UBEIXZ 00401d30 f i AnnotateBarWindow.obj
 0001:00000d30       ?GetClassStyle@CInvitationUIMgr@@UBEIXZ 00401d30 f i invitation_ui.obj
 0001:00000d30       ?GetClassStyle@ViewOptionsWindow@@UBEIXZ 00401d30 f i ViewOptionsWindow.obj
 0001:00000d30       ?GetClassStyle@ShareToolbarWindow@@UBEIXZ 00401d30 f i ShareToolbarWindow.obj
 0001:00000d30       ?GetClassStyle@CSDKSettingsUIMgr@@UBEIXZ 00401d30 f i settings_ui.obj
 0001:00000d30       ?GetClassStyle@CSDKSheduleMeetingUIMgr@@UBEIXZ 00401d30 f i schedule_meeting_ui.obj
 0001:00000d30       ?GetClassStyle@AnnotateDrawWindow@@UBEIXZ 00401d30 f i AnnotateDrawWindow.obj
 0001:00000d30       ?GetClassStyle@CCloseCaptionUIMgr@@UBEIXZ 00401d30 f i close_caption_ui.obj
 0001:00000d30       ?GetClassStyle@AnnotateClearWindow@@UBEIXZ 00401d30 f i AnnotateClearWindow.obj
 0001:00000d30       ?GetClassStyle@CSDKLoginUIMgr@@UBEIXZ 00401d30 f i LOGIN_sdk_login_UI.obj
 0001:00000d30       ?GetClassStyle@CSDKInitAuthUIMgr@@UBEIXZ 00401d30 f i sdk_init_auth_ui.obj
 0001:00000d40       ?GetSkinRes@AnnotateBarWindow@@UAEIXZ 00401d40 f i AnnotateBarWindow.obj
 0001:00000d50       ?GetWindowClassName@CMoreMenuUIMgr@@UBEPB_WXZ 00401d50 f i more_menu_ui.obj
 0001:00000d50       ?GetWindowClassName@AnnotateDrawWindow@@UBEPB_WXZ 00401d50 f i AnnotateDrawWindow.obj
 0001:00000d50       ?GetWindowClassName@CCustomizeUIShareSelectUI@@UBEPB_WXZ 00401d50 f i custom_ui_share_mgr.obj
 0001:00000d50       ?GetWindowClassName@AnnotateClearWindow@@UBEPB_WXZ 00401d50 f i AnnotateClearWindow.obj
 0001:00000d50       ?GetWindowClassName@AnnotateSpolightWindow@@UBEPB_WXZ 00401d50 f i AnnotateSpolightWindow.obj
 0001:00000d50       ?GetWindowClassName@CSDKSheduleMeetingUIMgr@@UBEPB_WXZ 00401d50 f i schedule_meeting_ui.obj
 0001:00000d50       ?GetWindowClassName@CSDKSettingsUIMgr@@UBEPB_WXZ 00401d50 f i settings_ui.obj
 0001:00000d50       ?GetWindowClassName@CMoreFeaturesUIMgr@@UBEPB_WXZ 00401d50 f i more_features_ui.obj
 0001:00000d50       ?GetWindowClassName@AnnotateStampWindow@@UBEPB_WXZ 00401d50 f i AnnotateStampWindow.obj
 0001:00000d50       ?GetWindowClassName@AnnotateFormatWindow@@UBEPB_WXZ 00401d50 f i AnnotateFormatWindow.obj
 0001:00000d50       ?GetWindowClassName@CArrowWindow@@UBEPB_WXZ 00401d50 f i arrow_window.obj
 0001:00000d50       ?GetWindowClassName@ShareToolbarWindow@@UBEPB_WXZ 00401d50 f i ShareToolbarWindow.obj
 0001:00000d50       ?GetWindowClassName@AnnotateBarWindow@@UBEPB_WXZ 00401d50 f i AnnotateBarWindow.obj
 0001:00000d50       ?GetWindowClassName@CSDKJoinMeetingForLoginUserUIMgr@@UBEPB_WXZ 00401d50 f i Join_meeting_for_login_user_ui.obj
 0001:00000d50       ?GetWindowClassName@CSDKLoginUIMgr@@UBEPB_WXZ 00401d50 f i LOGIN_sdk_login_UI.obj
 0001:00000d50       ?GetWindowClassName@CToolbarBottom@@UBEPB_WXZ 00401d50 f i toolbar_bottom_ui.obj
 0001:00000d50       ?GetWindowClassName@ViewOptionsWindow@@UBEPB_WXZ 00401d50 f i ViewOptionsWindow.obj
 0001:00000d50       ?GetWindowClassName@CCloseCaptionUIMgr@@UBEPB_WXZ 00401d50 f i close_caption_ui.obj
 0001:00000d50       ?GetWindowClassName@CSDKMeetingChatUIMgr@@UBEPB_WXZ 00401d50 f i chat_controller_ui.obj
 0001:00000d50       ?GetWindowClassName@CSDKLoggedInUIMgr@@UBEPB_WXZ 00401d50 f i LoggedIn_sdk_controller_ui.obj
 0001:00000d50       ?GetWindowClassName@CUtilWnd@@UBEPB_WXZ 00401d50 f i util_window.obj
 0001:00000d50       ?GetWindowClassName@CSDKInitAuthUIMgr@@UBEPB_WXZ 00401d50 f i sdk_init_auth_ui.obj
 0001:00000d50       ?GetWindowClassName@CParticipantUIMgr@@UBEPB_WXZ 00401d50 f i participant_ui.obj
 0001:00000d50       ?GetWindowClassName@CameraControlWindow@@UBEPB_WXZ 00401d50 f i CameraControlWindow.obj
 0001:00000d60       ?HandleMessage@AnnotateBarWindow@@UAEJIIJ@Z 00401d60 f   AnnotateBarWindow.obj
 0001:00000f70       ?HideBrotherWindows@AnnotateBarWindow@@AAEXPA_W@Z 00401f70 f   AnnotateBarWindow.obj
 0001:000010f0       ?HideOwnedWindows@AnnotateBarWindow@@QAEXXZ 004020f0 f   AnnotateBarWindow.obj
 0001:000011a0       ?Init@CComCriticalSection@ATL@@QAEJXZ 004021a0 f i AnnotateBarWindow.obj
 0001:000011e0       ?InitWindow@AnnotateBarWindow@@UAEXXZ 004021e0 f   AnnotateBarWindow.obj
 0001:000013c0       ?MoveWindowPosTo@AnnotateBarWindow@@QAEXPAUHWND__@@@Z 004023c0 f   AnnotateBarWindow.obj
 0001:00001440       ?Notify@AnnotateBarWindow@@UAEXAAUtagTNotifyUI@DuiLib@@@Z 00402440 f   AnnotateBarWindow.obj
 0001:00001820       ?OnClose@AnnotateBarWindow@@QAEJIIJAAH@Z 00402820 f   AnnotateBarWindow.obj
 0001:00001850       ?OnDestroy@AnnotateSpolightWindow@@QAEJIIJAAH@Z 00402850 f   AnnotateSpolightWindow.obj
 0001:00001850       ?OnDestroy@ShareToolbarWindow@@QAEJIIJAAH@Z 00402850 f   ShareToolbarWindow.obj
 0001:00001850       ?OnClose@AnnotateClearWindow@@QAEJIIJAAH@Z 00402850 f   AnnotateClearWindow.obj
 0001:00001850       ?OnDestroy@ViewOptionsWindow@@QAEJIIJAAH@Z 00402850 f   ViewOptionsWindow.obj
 0001:00001850       ?OnDestroy@AnnotateBarWindow@@QAEJIIJAAH@Z 00402850 f   AnnotateBarWindow.obj
 0001:00001850       ?OnClose@ViewOptionsWindow@@QAEJIIJAAH@Z 00402850 f   ViewOptionsWindow.obj
 0001:00001850       ?OnClose@CameraControlWindow@@QAEJIIJAAH@Z 00402850 f   CameraControlWindow.obj
 0001:00001850       ?OnDestroy@AnnotateDrawWindow@@QAEJIIJAAH@Z 00402850 f   AnnotateDrawWindow.obj
 0001:00001850       ?OnDestroy@AnnotateClearWindow@@QAEJIIJAAH@Z 00402850 f   AnnotateClearWindow.obj
 0001:00001850       ?OnClose@AnnotateSpolightWindow@@QAEJIIJAAH@Z 00402850 f   AnnotateSpolightWindow.obj
 0001:00001850       ?OnClose@AnnotateStampWindow@@QAEJIIJAAH@Z 00402850 f   AnnotateStampWindow.obj
 0001:00001850       ?OnClose@CSDKJoinMeetingForLoginUserUIMgr@@QAEJIIJAAH@Z 00402850 f   Join_meeting_for_login_user_ui.obj
 0001:00001850       ?OnDestroy@AnnotateFormatWindow@@QAEJIIJAAH@Z 00402850 f   AnnotateFormatWindow.obj
 0001:00001850       ?OnDestroy@CameraControlWindow@@QAEJIIJAAH@Z 00402850 f   CameraControlWindow.obj
 0001:00001850       ?OnClose@AnnotateFormatWindow@@QAEJIIJAAH@Z 00402850 f   AnnotateFormatWindow.obj
 0001:00001850       ?OnClose@AnnotateDrawWindow@@QAEJIIJAAH@Z 00402850 f   AnnotateDrawWindow.obj
 0001:00001850       ?OnClose@ShareToolbarWindow@@QAEJIIJAAH@Z 00402850 f   ShareToolbarWindow.obj
 0001:00001850       ?OnDestroy@AnnotateStampWindow@@QAEJIIJAAH@Z 00402850 f   AnnotateStampWindow.obj
 0001:00001870       ?onLockShareStatus@CSDKCustomUIWorkFlow@@UAEX_N@Z 00402870 f i custom_ui_mgr_flow.obj
 0001:00001870       ?OnFinalMessage@CSDKSheduleMeetingUIMgr@@UAEXPAUHWND__@@@Z 00402870 f i schedule_meeting_ui.obj
 0001:00001870       ?PaintText@CControlUI@DuiLib@@UAEXPAUHDC__@@@Z 00402870 f i DuiLib:UIControl.obj
 0001:00001870       ?Notify@ClosedCaptionDisplayUI@@UAEXAAUtagTNotifyUI@DuiLib@@@Z 00402870 f i display_cc_ui.obj
 0001:00001870       ?onMeetingParameterNotification@CSDKRestAPIUserUIGroup@@UAEXPBUtagMeetingParameter@ZOOMSDK@@@Z 00402870 f i LOGIN_sdk_login_UI.obj
 0001:00001870       ?OnFinalMessage@CSDKSettingsUIMgr@@UAEXPAUHWND__@@@Z 00402870 f i settings_ui.obj
 0001:00001870       ?onActiveSpeakerVideoUserChanged@CUtilWnd@@UAEXI@Z 00402870 f i util_window.obj
 0001:00001870       ?onHostRequestStartVideo@CSDKCustomUIWorkFlow@@UAEXPAVIRequestStartVideoHandler@ZOOMSDK@@@Z 00402870 f i custom_ui_mgr_flow.obj
 0001:00001870       ?onActiveVideoUserChanged@CSDKCustomUIWorkFlow@@UAEXI@Z 00402870 f i custom_ui_mgr_flow.obj
 0001:00001870       ?onActiveVideoUserChanged@CUtilWnd@@UAEXI@Z 00402870 f i util_window.obj
 0001:00001870       ?OnFinalMessage@CameraControlWindow@@UAEXPAUHWND__@@@Z 00402870 f i CameraControlWindow.obj
 0001:00001870       ?OnFinalMessage@AnnotateClearWindow@@UAEXPAUHWND__@@@Z 00402870 f i AnnotateClearWindow.obj
 0001:00001870       ?onRecordPriviligeChanged@CSDKCustomUIWorkFlow@@UAEX_N@Z 00402870 f i custom_ui_mgr_flow.obj
 0001:00001870       ?onMeetingParameterNotification@CSDKWithoutLoginStartJoinMeetingFlow@@UAEXPBUtagMeetingParameter@ZOOMSDK@@@Z 00402870 f i LOGIN_join_meeting_only_workflow.obj
 0001:00001870       ?_Orphan_ptr@?$_Tree_val@U?$_Tree_simple_types@U?$pair@$$CBHW4bkItemType@@@std@@@std@@@std@@QAEXQAU?$_Tree_node@U?$pair@$$CBHW4bkItemType@@@std@@PAX@2@@Z 00402870 f i settings_ui.obj
 0001:00001870       ?onMeetingStatisticsWarningNotification@CSDKJoinMeetingForLoginUserUIGroup@@UAEXW4StatisticsWarningType@ZOOMSDK@@@Z 00402870 f i Join_meeting_for_login_user_ui.obj
 0001:00001870       ?OnFinalMessage@AnnotateStampWindow@@UAEXPAUHWND__@@@Z 00402870 f i AnnotateStampWindow.obj
 0001:00001870       ?_Compat@?$_Vector_const_iterator@V?$_Vector_val@U?$_Simple_types@PAVIUserInfo@ZOOMSDK@@@std@@@std@@@std@@QBEXABV12@@Z 00402870 f i user_manager.obj
 0001:00001870       ?OnFinalMessage@CSDKMeetingChatUIMgr@@UAEXPAUHWND__@@@Z 00402870 f i chat_controller_ui.obj
 0001:00001870       ?onMeetingStatisticsWarningNotification@CSDKWithoutLoginStartJoinMeetingFlow@@UAEXW4StatisticsWarningType@ZOOMSDK@@@Z 00402870 f i LOGIN_join_meeting_only_workflow.obj
 0001:00001870       ?OnFinalMessage@CSDKInitAuthUIMgr@@UAEXPAUHWND__@@@Z 00402870 f i sdk_init_auth_ui.obj
 0001:00001870       ?onMeetingParameterNotification@CSDKJoinMeetingForLoginUserFlow@@UAEXPBUtagMeetingParameter@ZOOMSDK@@@Z 00402870 f i Join_meeting_for_login_user_workflow.obj
 0001:00001870       ?onActiveSpeakerVideoUserChanged@CSDKCustomUIWorkFlow@@UAEXI@Z 00402870 f i custom_ui_mgr_flow.obj
 0001:00001870       ?onMeetingStatisticsWarningNotification@CSDKCustomUIWorkFlow@@UAEXW4StatisticsWarningType@ZOOMSDK@@@Z 00402870 f i custom_ui_mgr_flow.obj
 0001:00001870       ?_Orphan_ptr@?$_Tree_val@U?$_Tree_simple_types@PAVISDKInMeetingServiceMgrEvent@@@std@@@std@@QAEXQAU?$_Tree_node@PAVISDKInMeetingServiceMgrEvent@@PAX@2@@Z 00402870 f i sdk_util.obj
 0001:00001870       ?_Orphan_ptr@?$_Tree_val@U?$_Tree_simple_types@PAVIMeetingVideoCtrlEvent@ZOOMSDK@@@std@@@std@@QAEXQAU?$_Tree_node@PAVIMeetingVideoCtrlEvent@ZOOMSDK@@PAX@2@@Z 00402870 f i sdk_util.obj
 0001:00001870       ?OnFinalMessage@CWindowWnd@DuiLib@@MAEXPAUHWND__@@@Z 00402870 f i DuiLib:UIBase.obj
 0001:00001870       ?onCustomizedAnnotationObjDestroyed@CCustomizeInMeetingUIMgr@@UAEXPAVICustomizedAnnotationObj@ZOOMSDK@@@Z 00402870 f i custom_ui_mgr.obj
 0001:00001870       ?_Orphan_ptr@?$_Tree_val@U?$_Tree_simple_types@U?$pair@$$CBIPAVIUserInfo@ZOOMSDK@@@std@@@std@@@std@@QAEXQAU?$_Tree_node@U?$pair@$$CBIPAVIUserInfo@ZOOMSDK@@@std@@PAX@2@@Z 00402870 f i user_manager.obj
 0001:00001870       ?OnFinalMessage@CMoreMenuUIMgr@@UAEXPAUHWND__@@@Z 00402870 f i more_menu_ui.obj
 0001:00001870       ?onInviteBtnClicked@CSDKCustomUIWorkFlow@@UAEXAA_N@Z 00402870 f i custom_ui_mgr_flow.obj
 0001:00001870       ?_Orphan_ptr@?$_Tree_val@U?$_Tree_simple_types@PAVIMeetingServiceEvent@ZOOMSDK@@@std@@@std@@QAEXQAU?$_Tree_node@PAVIMeetingServiceEvent@ZOOMSDK@@PAX@2@@Z 00402870 f i sdk_util.obj
 0001:00001870       ?onSSLCertVerifyNotification@CInitSDKWorkFlow@@UAEXPAVISSLCertVerificationHandler@ZOOMSDK@@@Z 00402870 f i init_auth_sdk_workflow.obj
 0001:00001870       ?onMultiShareSwitchToSingleShareNeedConfirm@CSDKCustomUIWorkFlow@@UAEXPAVIShareSwitchMultiToSingleConfirmHandler@ZOOMSDK@@@Z 00402870 f i custom_ui_mgr_flow.obj
 0001:00001870       ?onHostChangeNotification@CSDKCustomUIWorkFlow@@UAEXI@Z 00402870 f i custom_ui_mgr_flow.obj
 0001:00001870       ?_Orphan_ptr@?$_Tree_val@U?$_Tree_simple_types@PAVIMeetingChatCtrlEvent@ZOOMSDK@@@std@@@std@@QAEXQAU?$_Tree_node@PAVIMeetingChatCtrlEvent@ZOOMSDK@@PAX@2@@Z 00402870 f i sdk_util.obj
 0001:00001870       ?_Adopt@_Iterator_base0@std@@QAEXPBX@Z 00402870 f i participant_ui.obj
 0001:00001870       ?_Orphan_ptr@?$_Tree_val@U?$_Tree_simple_types@PAVIPreMeetingServiceEvent@ZOOMSDK@@@std@@@std@@QAEXQAU?$_Tree_node@PAVIPreMeetingServiceEvent@ZOOMSDK@@PAX@2@@Z 00402870 f i sdk_util.obj
 0001:00001870       ?OnFinalMessage@CSDKJoinMeetingForLoginUserUIMgr@@UAEXPAUHWND__@@@Z 00402870 f i Join_meeting_for_login_user_ui.obj
 0001:00001870       ?OnFinalMessage@AnnotateSpolightWindow@@UAEXPAUHWND__@@@Z 00402870 f i AnnotateSpolightWindow.obj
 0001:00001870       ?onHostRequestStartAudio@CSDKCustomUIWorkFlow@@UAEXPAVIRequestStartAudioHandler@ZOOMSDK@@@Z 00402870 f i custom_ui_mgr_flow.obj
 0001:00001870       ?OnFinalMessage@CInvitationUIMgr@@UAEXPAUHWND__@@@Z 00402870 f i invitation_ui.obj
 0001:00001870       ?onAuthenticationReturn@CSDKWithoutLoginStartJoinMeetingFlow@@UAEXW4AuthResult@ZOOMSDK@@@Z 00402870 f i LOGIN_join_meeting_only_workflow.obj
 0001:00001870       ?onChatStautsChangedNotification@CSDKMeetingChatUIMgr@@UAEXPAUtagChatStatus@ZOOMSDK@@@Z 00402870 f i chat_controller_ui.obj
 0001:00001870       ?onMeetingStatisticsWarningNotification@CSDKLoggedInUIMgr@@UAEXW4StatisticsWarningType@ZOOMSDK@@@Z 00402870 f i LoggedIn_sdk_controller_ui.obj
 0001:00001870       ?OnFinalMessage@CMoreFeaturesUIMgr@@UAEXPAUHWND__@@@Z 00402870 f i more_features_ui.obj
 0001:00001870       ?OnFinalMessage@CCloseCaptionUIMgr@@UAEXPAUHWND__@@@Z 00402870 f i close_caption_ui.obj
 0001:00001870       ?_Orphan_ptr@?$_Tree_val@U?$_Tree_simple_types@PAVIAuthServiceEvent@ZOOMSDK@@@std@@@std@@QAEXQAU?$_Tree_node@PAVIAuthServiceEvent@ZOOMSDK@@PAX@2@@Z 00402870 f i sdk_util.obj
 0001:00001870       ?onUserActiveAudioChange@CSDKCustomUIWorkFlow@@UAEXPAV?$IList@I@ZOOMSDK@@@Z 00402870 f i custom_ui_mgr_flow.obj
 0001:00001870       ?OnFinalMessage@CSDKLoggedInUIMgr@@UAEXPAUHWND__@@@Z 00402870 f i LoggedIn_sdk_controller_ui.obj
 0001:00001870       ?_Orphan_ptr@?$_Tree_val@U?$_Tree_simple_types@PAVIMeetingParticipantsCtrlEvent@ZOOMSDK@@@std@@@std@@QAEXQAU?$_Tree_node@PAVIMeetingParticipantsCtrlEvent@ZOOMSDK@@PAX@2@@Z 00402870 f i sdk_util.obj
 0001:00001870       ?onRecordingStatus@CSDKCustomUIWorkFlow@@UAEXW4RecordingStatus@ZOOMSDK@@@Z 00402870 f i custom_ui_mgr_flow.obj
 0001:00001870       ?TxImmReleaseContext@CTxtWinHost@DuiLib@@UAEXPAUHIMC__@@@Z 00402870 f i DuiLib:UIRichEdit.obj
 0001:00001870       ?onAuthenticationReturn@CSDKLoginCBHandler@@UAEXW4AuthResult@ZOOMSDK@@@Z 00402870 f i LOGIN_sdk_login_UI.obj
 0001:00001870       ?onMeetingStatisticsWarningNotification@CSDKRestAPIUserUIGroup@@UAEXW4StatisticsWarningType@ZOOMSDK@@@Z 00402870 f i LOGIN_sdk_login_UI.obj
 0001:00001870       ?OnFinalMessage@CUtilWnd@@UAEXPAUHWND__@@@Z 00402870 f i util_window.obj
 0001:00001870       ?PaintStatusImage@CControlUI@DuiLib@@UAEXPAUHDC__@@@Z 00402870 f i DuiLib:UIControl.obj
 0001:00001870       ?OnFinalMessage@AnnotateDrawWindow@@UAEXPAUHWND__@@@Z 00402870 f i AnnotateDrawWindow.obj
 0001:00001870       ?onRecording2MP4Processing@CSDKCustomUIWorkFlow@@UAEXH@Z 00402870 f i custom_ui_mgr_flow.obj
 0001:00001870       ?onMeetingParameterNotification@CSDKJoinMeetingForLoginUserUIGroup@@UAEXPBUtagMeetingParameter@ZOOMSDK@@@Z 00402870 f i Join_meeting_for_login_user_ui.obj
 0001:00001870       ?OnFinalMessage@CCustomizeUIShareSelectUI@@UAEXPAUHWND__@@@Z 00402870 f i custom_ui_share_mgr.obj
 0001:00001870       ?OnFinalMessage@AnnotateBarWindow@@UAEXPAUHWND__@@@Z 00402870 f i AnnotateBarWindow.obj
 0001:00001870       ?onCloudRecordingStatus@CSDKCustomUIWorkFlow@@UAEXW4RecordingStatus@ZOOMSDK@@@Z 00402870 f i custom_ui_mgr_flow.obj
 0001:00001870       ?OnFinalMessage@CSDKLoginUIMgr@@UAEXPAUHWND__@@@Z 00402870 f i LOGIN_sdk_login_UI.obj
 0001:00001870       ?OnFinalMessage@AnnotateFormatWindow@@UAEXPAUHWND__@@@Z 00402870 f i AnnotateFormatWindow.obj
 0001:00001870       ?onChatStautsChangedNotification@CSDKCustomUIWorkFlow@@UAEXPAUtagChatStatus@ZOOMSDK@@@Z 00402870 f i custom_ui_mgr_flow.obj
 0001:00001870       ?Notify@CTreeViewUI@DuiLib@@UAEXAAUtagTNotifyUI@2@@Z 00402870 f i DuiLib:UITreeView.obj
 0001:00001870       ?onProxySettingNotification@CInitSDKWorkFlow@@UAEXPAVIProxySettingHandler@ZOOMSDK@@@Z 00402870 f i init_auth_sdk_workflow.obj
 0001:00001870       ?onMeetingParameterNotification@CSDKLoggedInUIMgr@@UAEXPBUtagMeetingParameter@ZOOMSDK@@@Z 00402870 f i LoggedIn_sdk_controller_ui.obj
 0001:00001870       ?OnFinalMessage@CParticipantUIMgr@@UAEXPAUHWND__@@@Z 00402870 f i participant_ui.obj
 0001:00001870       ?onSharingSourceUserIDNotification@CCustomizeInMeetingUIMgr@@UAEXI@Z 00402870 f i custom_ui_mgr.obj
 0001:00001870       ?OnNoAudioDeviceIsUseful@CSDKCustomUIWorkFlow@@UAEX_N@Z 00402870 f i custom_ui_mgr_flow.obj
 0001:00001870       ?onCustomizedLocalRecordingSourceNotification@CCustomizeInMeetingUIMgr@@UAEXPAVICustomizedLocalRecordingLayoutHelper@ZOOMSDK@@@Z 00402870 f i custom_ui_mgr.obj
 0001:00001870       ?OnFinalMessage@CArrowWindow@@UAEXPAUHWND__@@@Z 00402870 f i arrow_window.obj
 0001:00001870       ?onAssignedToSendCC@CSDKCustomUIWorkFlow@@UAEX_N@Z 00402870 f i custom_ui_mgr_flow.obj
 0001:00001870       ?OnFinalMessage@CToolbarBottom@@UAEXPAUHWND__@@@Z 00402870 f i toolbar_bottom_ui.obj
 0001:00001870       ?onMeetingStatisticsWarningNotification@CSDKWithoutLoginStartJoinMeetingUIGroup@@UAEXW4StatisticsWarningType@ZOOMSDK@@@Z 00402870 f i LOGIN_sdk_login_UI.obj
 0001:00001870       ?OnFinalMessage@ViewOptionsWindow@@UAEXPAUHWND__@@@Z 00402870 f i ViewOptionsWindow.obj
 0001:00001870       ?_Orphan_ptr@?$_Tree_val@U?$_Tree_simple_types@PAVIClosedCaptionControllerEvent@ZOOMSDK@@@std@@@std@@QAEXQAU?$_Tree_node@PAVIClosedCaptionControllerEvent@ZOOMSDK@@PAX@2@@Z 00402870 f i sdk_util.obj
 0001:00001870       ?onMeetingStatisticsWarningNotification@CSDKJoinMeetingForLoginUserFlow@@UAEXW4StatisticsWarningType@ZOOMSDK@@@Z 00402870 f i Join_meeting_for_login_user_workflow.obj
 0001:00001870       ?onMeetingParameterNotification@CSDKCustomUIWorkFlow@@UAEXPBUtagMeetingParameter@ZOOMSDK@@@Z 00402870 f i custom_ui_mgr_flow.obj
 0001:00001870       ?OnFinalMessage@ShareToolbarWindow@@UAEXPAUHWND__@@@Z 00402870 f i ShareToolbarWindow.obj
 0001:00001870       ?onShareContentNotification@CSDKCustomUIWorkFlow@@UAEXAAUtagShareInfo@ZOOMSDK@@@Z 00402870 f i custom_ui_mgr_flow.obj
 0001:00001870       ?HandleVideoContainerDestroyed@CCustomizeUIVideoMgr@@QAEXPAVICustomizedVideoContainer@ZOOMSDK@@@Z 00402870 f i custom_ui_video_mgr.obj
 0001:00001870       ?onMeetingParameterNotification@CSDKWithoutLoginStartJoinMeetingUIGroup@@UAEXPBUtagMeetingParameter@ZOOMSDK@@@Z 00402870 f i LOGIN_sdk_login_UI.obj
 0001:00001870       ?_Alloc_proxy@_Container_base0@std@@QAEXABU_Fake_allocator@2@@Z 00402870 f i chat_controller_ui.obj
 0001:00001880       ?Term@CComCriticalSection@ATL@@QAEJXZ 00402880 f i AnnotateBarWindow.obj
 0001:000018a0       ?_Adjust_manually_vector_aligned@std@@YAXAAPAXAAI@Z 004028a0 f i AnnotateBarWindow.obj
 0001:00001910       ?_Allocate@_Default_allocate_traits@std@@SAPAXI@Z 00402910 f i AnnotateBarWindow.obj
 0001:00001930       ?_AtlInitializeCriticalSectionEx@ATL@@YAHPAU_RTL_CRITICAL_SECTION@@KK@Z 00402930 f i AnnotateBarWindow.obj
 0001:00001950       ?_Calculate_growth@?$basic_string@_WU?$char_traits@_W@std@@V?$allocator@_W@2@@std@@ABEII@Z 00402950 f i AnnotateBarWindow.obj
 0001:00001980       ?_Calculate_growth@?$basic_string@_WU?$char_traits@_W@std@@V?$allocator@_W@2@@std@@CAIIII@Z 00402980 f i AnnotateBarWindow.obj
 0001:000019e0       ?_Equal@?$basic_string@_WU?$char_traits@_W@std@@V?$allocator@_W@2@@std@@QBE_NQB_W@Z 004029e0 f i AnnotateBarWindow.obj
 0001:00001a20       ?_Getal@?$_Tree@V?$_Tset_traits@PAVIClosedCaptionControllerEvent@ZOOMSDK@@U?$less@PAVIClosedCaptionControllerEvent@ZOOMSDK@@@std@@V?$allocator@PAVIClosedCaptionControllerEvent@ZOOMSDK@@@4@$0A@@std@@@std@@IBEABV?$allocator@U?$_Tree_node@PAVIClosedCaptionControllerEvent@ZOOMSDK@@PAX@std@@@2@XZ 00402a20 f i sdk_util.obj
 0001:00001a20       ?_Getal@?$basic_string@_WU?$char_traits@_W@std@@V?$allocator@_W@2@@std@@ABEABV?$allocator@_W@2@XZ 00402a20 f i AnnotateBarWindow.obj
 0001:00001a20       ?_Getcomp@?$_Tree@V?$_Tset_traits@PAVIMeetingChatCtrlEvent@ZOOMSDK@@U?$less@PAVIMeetingChatCtrlEvent@ZOOMSDK@@@std@@V?$allocator@PAVIMeetingChatCtrlEvent@ZOOMSDK@@@4@$0A@@std@@@std@@IBEABU?$less@PAVIMeetingChatCtrlEvent@ZOOMSDK@@@2@XZ 00402a20 f i sdk_util.obj
 0001:00001a20       ?_Getal@?$vector@PAVIAlternativeHostInfo@ZOOMSDK@@V?$allocator@PAVIAlternativeHostInfo@ZOOMSDK@@@std@@@std@@ABEABV?$allocator@PAVIAlternativeHostInfo@ZOOMSDK@@@2@XZ 00402a20 f i schedule_meeting_ui.obj
 0001:00001a20       ?_Getal@?$basic_string@_WU?$char_traits@_W@std@@V?$allocator@_W@2@@std@@AAEAAV?$allocator@_W@2@XZ 00402a20 f i AnnotateBarWindow.obj
 0001:00001a20       ?_Getcomp@?$_Tree@V?$_Tmap_traits@HW4bkItemType@@U?$less@H@std@@V?$allocator@U?$pair@$$CBHW4bkItemType@@@std@@@3@$0A@@std@@@std@@IBEABU?$less@H@2@XZ 00402a20 f i settings_ui.obj
 0001:00001a20       ?_Getal@?$_Tree@V?$_Tset_traits@PAVIMeetingServiceEvent@ZOOMSDK@@U?$less@PAVIMeetingServiceEvent@ZOOMSDK@@@std@@V?$allocator@PAVIMeetingServiceEvent@ZOOMSDK@@@4@$0A@@std@@@std@@IBEABV?$allocator@U?$_Tree_node@PAVIMeetingServiceEvent@ZOOMSDK@@PAX@std@@@2@XZ 00402a20 f i sdk_util.obj
 0001:00001a20       ?_Getal@?$_Tree@V?$_Tset_traits@PAVIMeetingParticipantsCtrlEvent@ZOOMSDK@@U?$less@PAVIMeetingParticipantsCtrlEvent@ZOOMSDK@@@std@@V?$allocator@PAVIMeetingParticipantsCtrlEvent@ZOOMSDK@@@4@$0A@@std@@@std@@IBEABV?$allocator@U?$_Tree_node@PAVIMeetingParticipantsCtrlEvent@ZOOMSDK@@PAX@std@@@2@XZ 00402a20 f i sdk_util.obj
 0001:00001a20       ?_Getal@?$_Tree@V?$_Tmap_traits@IPAVIUserInfo@ZOOMSDK@@U?$less@I@std@@V?$allocator@U?$pair@$$CBIPAVIUserInfo@ZOOMSDK@@@std@@@4@$0A@@std@@@std@@IBEABV?$allocator@U?$_Tree_node@U?$pair@$$CBIPAVIUserInfo@ZOOMSDK@@@std@@PAX@std@@@2@XZ 00402a20 f i user_manager.obj
 0001:00001a20       ?_Getcomp@?$_Tree@V?$_Tset_traits@PAVIPreMeetingServiceEvent@ZOOMSDK@@U?$less@PAVIPreMeetingServiceEvent@ZOOMSDK@@@std@@V?$allocator@PAVIPreMeetingServiceEvent@ZOOMSDK@@@4@$0A@@std@@@std@@IBEABU?$less@PAVIPreMeetingServiceEvent@ZOOMSDK@@@2@XZ 00402a20 f i sdk_util.obj
 0001:00001a20       ?_Getal@?$_Tree@V?$_Tmap_traits@IPAVIUserInfo@ZOOMSDK@@U?$less@I@std@@V?$allocator@U?$pair@$$CBIPAVIUserInfo@ZOOMSDK@@@std@@@4@$0A@@std@@@std@@IAEAAV?$allocator@U?$_Tree_node@U?$pair@$$CBIPAVIUserInfo@ZOOMSDK@@@std@@PAX@std@@@2@XZ 00402a20 f i user_manager.obj
 0001:00001a20       ?_Getal@?$vector@V?$basic_string@_WU?$char_traits@_W@std@@V?$allocator@_W@2@@std@@V?$allocator@V?$basic_string@_WU?$char_traits@_W@std@@V?$allocator@_W@2@@std@@@2@@std@@AAEAAV?$allocator@V?$basic_string@_WU?$char_traits@_W@std@@V?$allocator@_W@2@@std@@@2@XZ 00402a20 f i custom_ui_share_flow.obj
 0001:00001a20       ?_Getal@?$_Tree@V?$_Tset_traits@PAVIMeetingChatCtrlEvent@ZOOMSDK@@U?$less@PAVIMeetingChatCtrlEvent@ZOOMSDK@@@std@@V?$allocator@PAVIMeetingChatCtrlEvent@ZOOMSDK@@@4@$0A@@std@@@std@@IBEABV?$allocator@U?$_Tree_node@PAVIMeetingChatCtrlEvent@ZOOMSDK@@PAX@std@@@2@XZ 00402a20 f i sdk_util.obj
 0001:00001a20       ?_Getal@?$_Tree@V?$_Tmap_traits@HW4bkItemType@@U?$less@H@std@@V?$allocator@U?$pair@$$CBHW4bkItemType@@@std@@@3@$0A@@std@@@std@@IAEAAV?$allocator@U?$_Tree_node@U?$pair@$$CBHW4bkItemType@@@std@@PAX@std@@@2@XZ 00402a20 f i settings_ui.obj
 0001:00001a20       ?_Getcomp@?$_Tree@V?$_Tset_traits@PAVIClosedCaptionControllerEvent@ZOOMSDK@@U?$less@PAVIClosedCaptionControllerEvent@ZOOMSDK@@@std@@V?$allocator@PAVIClosedCaptionControllerEvent@ZOOMSDK@@@4@$0A@@std@@@std@@IBEABU?$less@PAVIClosedCaptionControllerEvent@ZOOMSDK@@@2@XZ 00402a20 f i sdk_util.obj
 0001:00001a20       ?_Getcomp@?$_Tree@V?$_Tmap_traits@IPAVIUserInfo@ZOOMSDK@@U?$less@I@std@@V?$allocator@U?$pair@$$CBIPAVIUserInfo@ZOOMSDK@@@std@@@4@$0A@@std@@@std@@IBEABU?$less@I@2@XZ 00402a20 f i user_manager.obj
 0001:00001a20       ?_Getcomp@?$_Tree@V?$_Tset_traits@PAVISDKInMeetingServiceMgrEvent@@U?$less@PAVISDKInMeetingServiceMgrEvent@@@std@@V?$allocator@PAVISDKInMeetingServiceMgrEvent@@@3@$0A@@std@@@std@@IBEABU?$less@PAVISDKInMeetingServiceMgrEvent@@@2@XZ 00402a20 f i sdk_util.obj
 0001:00001a20       ?_Getal@?$vector@PAVIAlternativeHostInfo@ZOOMSDK@@V?$allocator@PAVIAlternativeHostInfo@ZOOMSDK@@@std@@@std@@AAEAAV?$allocator@PAVIAlternativeHostInfo@ZOOMSDK@@@2@XZ 00402a20 f i schedule_meeting_ui.obj
 0001:00001a20       ?_Getal@?$_Tree@V?$_Tset_traits@PAVIClosedCaptionControllerEvent@ZOOMSDK@@U?$less@PAVIClosedCaptionControllerEvent@ZOOMSDK@@@std@@V?$allocator@PAVIClosedCaptionControllerEvent@ZOOMSDK@@@4@$0A@@std@@@std@@IAEAAV?$allocator@U?$_Tree_node@PAVIClosedCaptionControllerEvent@ZOOMSDK@@PAX@std@@@2@XZ 00402a20 f i sdk_util.obj
 0001:00001a20       ?_Getal@?$vector@V?$basic_string@_WU?$char_traits@_W@std@@V?$allocator@_W@2@@std@@V?$allocator@V?$basic_string@_WU?$char_traits@_W@std@@V?$allocator@_W@2@@std@@@2@@std@@ABEABV?$allocator@V?$basic_string@_WU?$char_traits@_W@std@@V?$allocator@_W@2@@std@@@2@XZ 00402a20 f i custom_ui_share_flow.obj
 0001:00001a20       ?_Getal@?$list@HV?$allocator@H@std@@@std@@AAEAAV?$allocator@U?$_List_node@HPAX@std@@@2@XZ 00402a20 f i participant_ui.obj
 0001:00001a20       ?_Getal@?$vector@PAVIUserInfo@ZOOMSDK@@V?$allocator@PAVIUserInfo@ZOOMSDK@@@std@@@std@@ABEABV?$allocator@PAVIUserInfo@ZOOMSDK@@@2@XZ 00402a20 f i user_manager.obj
 0001:00001a20       ?_Getcomp@?$_Tree@V?$_Tset_traits@PAVIAuthServiceEvent@ZOOMSDK@@U?$less@PAVIAuthServiceEvent@ZOOMSDK@@@std@@V?$allocator@PAVIAuthServiceEvent@ZOOMSDK@@@4@$0A@@std@@@std@@IBEABU?$less@PAVIAuthServiceEvent@ZOOMSDK@@@2@XZ 00402a20 f i sdk_util.obj
 0001:00001a20       ?_Getal@?$vector@PAVIVirtualBGImageInfo@ZOOMSDK@@V?$allocator@PAVIVirtualBGImageInfo@ZOOMSDK@@@std@@@std@@AAEAAV?$allocator@PAVIVirtualBGImageInfo@ZOOMSDK@@@2@XZ 00402a20 f i settings_ui.obj
 0001:00001a20       ?_Getal@?$_Tree@V?$_Tset_traits@PAVIMeetingVideoCtrlEvent@ZOOMSDK@@U?$less@PAVIMeetingVideoCtrlEvent@ZOOMSDK@@@std@@V?$allocator@PAVIMeetingVideoCtrlEvent@ZOOMSDK@@@4@$0A@@std@@@std@@IBEABV?$allocator@U?$_Tree_node@PAVIMeetingVideoCtrlEvent@ZOOMSDK@@PAX@std@@@2@XZ 00402a20 f i sdk_util.obj
 0001:00001a20       ?_Getcomp@?$_Tree@V?$_Tset_traits@PAVIMeetingParticipantsCtrlEvent@ZOOMSDK@@U?$less@PAVIMeetingParticipantsCtrlEvent@ZOOMSDK@@@std@@V?$allocator@PAVIMeetingParticipantsCtrlEvent@ZOOMSDK@@@4@$0A@@std@@@std@@IBEABU?$less@PAVIMeetingParticipantsCtrlEvent@ZOOMSDK@@@2@XZ 00402a20 f i sdk_util.obj
 0001:00001a20       ?_Getal@?$vector@PAVIInterpreterInfo@ZOOMSDK@@V?$allocator@PAVIInterpreterInfo@ZOOMSDK@@@std@@@std@@AAEAAV?$allocator@PAVIInterpreterInfo@ZOOMSDK@@@2@XZ 00402a20 f i schedule_meeting_ui.obj
 0001:00001a20       ?_Getal@?$_Tree@V?$_Tset_traits@PAVIAuthServiceEvent@ZOOMSDK@@U?$less@PAVIAuthServiceEvent@ZOOMSDK@@@std@@V?$allocator@PAVIAuthServiceEvent@ZOOMSDK@@@4@$0A@@std@@@std@@IAEAAV?$allocator@U?$_Tree_node@PAVIAuthServiceEvent@ZOOMSDK@@PAX@std@@@2@XZ 00402a20 f i sdk_util.obj
 0001:00001a20       ?_Getal@?$_Tree@V?$_Tset_traits@PAVIMeetingVideoCtrlEvent@ZOOMSDK@@U?$less@PAVIMeetingVideoCtrlEvent@ZOOMSDK@@@std@@V?$allocator@PAVIMeetingVideoCtrlEvent@ZOOMSDK@@@4@$0A@@std@@@std@@IAEAAV?$allocator@U?$_Tree_node@PAVIMeetingVideoCtrlEvent@ZOOMSDK@@PAX@std@@@2@XZ 00402a20 f i sdk_util.obj
 0001:00001a20       ?_Getal@?$_Tree@V?$_Tmap_traits@HW4bkItemType@@U?$less@H@std@@V?$allocator@U?$pair@$$CBHW4bkItemType@@@std@@@3@$0A@@std@@@std@@IBEABV?$allocator@U?$_Tree_node@U?$pair@$$CBHW4bkItemType@@@std@@PAX@std@@@2@XZ 00402a20 f i settings_ui.obj
 0001:00001a20       ?_Getal@?$_Tree@V?$_Tset_traits@PAVIPreMeetingServiceEvent@ZOOMSDK@@U?$less@PAVIPreMeetingServiceEvent@ZOOMSDK@@@std@@V?$allocator@PAVIPreMeetingServiceEvent@ZOOMSDK@@@4@$0A@@std@@@std@@IBEABV?$allocator@U?$_Tree_node@PAVIPreMeetingServiceEvent@ZOOMSDK@@PAX@std@@@2@XZ 00402a20 f i sdk_util.obj
 0001:00001a20       ?_Getal@?$vector@PAVIUserInfo@ZOOMSDK@@V?$allocator@PAVIUserInfo@ZOOMSDK@@@std@@@std@@AAEAAV?$allocator@PAVIUserInfo@ZOOMSDK@@@2@XZ 00402a20 f i user_manager.obj
 0001:00001a20       ?_Getal@?$_Tree@V?$_Tset_traits@PAVIMeetingChatCtrlEvent@ZOOMSDK@@U?$less@PAVIMeetingChatCtrlEvent@ZOOMSDK@@@std@@V?$allocator@PAVIMeetingChatCtrlEvent@ZOOMSDK@@@4@$0A@@std@@@std@@IAEAAV?$allocator@U?$_Tree_node@PAVIMeetingChatCtrlEvent@ZOOMSDK@@PAX@std@@@2@XZ 00402a20 f i sdk_util.obj
 0001:00001a20       ?_Getal@?$_Tree@V?$_Tset_traits@PAVIAuthServiceEvent@ZOOMSDK@@U?$less@PAVIAuthServiceEvent@ZOOMSDK@@@std@@V?$allocator@PAVIAuthServiceEvent@ZOOMSDK@@@4@$0A@@std@@@std@@IBEABV?$allocator@U?$_Tree_node@PAVIAuthServiceEvent@ZOOMSDK@@PAX@std@@@2@XZ 00402a20 f i sdk_util.obj
 0001:00001a20       ?_Getal@?$_Tree@V?$_Tset_traits@PAVISDKInMeetingServiceMgrEvent@@U?$less@PAVISDKInMeetingServiceMgrEvent@@@std@@V?$allocator@PAVISDKInMeetingServiceMgrEvent@@@3@$0A@@std@@@std@@IAEAAV?$allocator@U?$_Tree_node@PAVISDKInMeetingServiceMgrEvent@@PAX@std@@@2@XZ 00402a20 f i sdk_util.obj
 0001:00001a20       ?_Getal@?$vector@PAVIInterpreterInfo@ZOOMSDK@@V?$allocator@PAVIInterpreterInfo@ZOOMSDK@@@std@@@std@@ABEABV?$allocator@PAVIInterpreterInfo@ZOOMSDK@@@2@XZ 00402a20 f i schedule_meeting_ui.obj
 0001:00001a20       ?_Getcomp@?$_Tree@V?$_Tset_traits@PAVIMeetingVideoCtrlEvent@ZOOMSDK@@U?$less@PAVIMeetingVideoCtrlEvent@ZOOMSDK@@@std@@V?$allocator@PAVIMeetingVideoCtrlEvent@ZOOMSDK@@@4@$0A@@std@@@std@@IBEABU?$less@PAVIMeetingVideoCtrlEvent@ZOOMSDK@@@2@XZ 00402a20 f i sdk_util.obj
 0001:00001a20       ?_Getal@?$list@HV?$allocator@H@std@@@std@@ABEABV?$allocator@U?$_List_node@HPAX@std@@@2@XZ 00402a20 f i participant_ui.obj
 0001:00001a20       ?_Getal@?$_Tree@V?$_Tset_traits@PAVIMeetingParticipantsCtrlEvent@ZOOMSDK@@U?$less@PAVIMeetingParticipantsCtrlEvent@ZOOMSDK@@@std@@V?$allocator@PAVIMeetingParticipantsCtrlEvent@ZOOMSDK@@@4@$0A@@std@@@std@@IAEAAV?$allocator@U?$_Tree_node@PAVIMeetingParticipantsCtrlEvent@ZOOMSDK@@PAX@std@@@2@XZ 00402a20 f i sdk_util.obj
 0001:00001a20       ?_Getal@?$vector@PAVIVirtualBGImageInfo@ZOOMSDK@@V?$allocator@PAVIVirtualBGImageInfo@ZOOMSDK@@@std@@@std@@ABEABV?$allocator@PAVIVirtualBGImageInfo@ZOOMSDK@@@2@XZ 00402a20 f i settings_ui.obj
 0001:00001a20       ?_Getal@?$_Tree@V?$_Tset_traits@PAVISDKInMeetingServiceMgrEvent@@U?$less@PAVISDKInMeetingServiceMgrEvent@@@std@@V?$allocator@PAVISDKInMeetingServiceMgrEvent@@@3@$0A@@std@@@std@@IBEABV?$allocator@U?$_Tree_node@PAVISDKInMeetingServiceMgrEvent@@PAX@std@@@2@XZ 00402a20 f i sdk_util.obj
 0001:00001a20       ?_Getal@?$_Tree@V?$_Tset_traits@PAVIPreMeetingServiceEvent@ZOOMSDK@@U?$less@PAVIPreMeetingServiceEvent@ZOOMSDK@@@std@@V?$allocator@PAVIPreMeetingServiceEvent@ZOOMSDK@@@4@$0A@@std@@@std@@IAEAAV?$allocator@U?$_Tree_node@PAVIPreMeetingServiceEvent@ZOOMSDK@@PAX@std@@@2@XZ 00402a20 f i sdk_util.obj
 0001:00001a20       ?_Getcomp@?$_Tree@V?$_Tset_traits@PAVIMeetingServiceEvent@ZOOMSDK@@U?$less@PAVIMeetingServiceEvent@ZOOMSDK@@@std@@V?$allocator@PAVIMeetingServiceEvent@ZOOMSDK@@@4@$0A@@std@@@std@@IBEABU?$less@PAVIMeetingServiceEvent@ZOOMSDK@@@2@XZ 00402a20 f i sdk_util.obj
 0001:00001a20       ?_Getal@?$_Tree@V?$_Tset_traits@PAVIMeetingServiceEvent@ZOOMSDK@@U?$less@PAVIMeetingServiceEvent@ZOOMSDK@@@std@@V?$allocator@PAVIMeetingServiceEvent@ZOOMSDK@@@4@$0A@@std@@@std@@IAEAAV?$allocator@U?$_Tree_node@PAVIMeetingServiceEvent@ZOOMSDK@@PAX@std@@@2@XZ 00402a20 f i sdk_util.obj
 0001:00001a40       ?_Large_string_engaged@?$_String_val@U?$_Simple_types@_W@std@@@std@@QBE_NXZ 00402a40 f i AnnotateBarWindow.obj
 0001:00001a70       ?_Myptr@?$_String_val@U?$_Simple_types@_W@std@@@std@@QAEPA_WXZ 00402a70 f i AnnotateBarWindow.obj
 0001:00001a70       ?_Myptr@?$_String_val@U?$_Simple_types@_W@std@@@std@@QBEPB_WXZ 00402a70 f i AnnotateBarWindow.obj
 0001:00001ab0       ?_Throw_bad_array_new_length@std@@YAXXZ 00402ab0 f i AnnotateBarWindow.obj
 0001:00001ad0       ?_Tidy_deallocate@?$basic_string@_WU?$char_traits@_W@std@@V?$allocator@_W@2@@std@@AAEXXZ 00402ad0 f i AnnotateBarWindow.obj
 0001:00001b90       ?_Tidy_init@?$basic_string@_WU?$char_traits@_W@std@@V?$allocator@_W@2@@std@@AAEXXZ 00402b90 f i AnnotateBarWindow.obj
 0001:00001bd0       ?_Xlen_string@std@@YAXXZ   00402bd0 f i AnnotateBarWindow.obj
 0001:00001be0       ?allocate@?$allocator@_W@std@@QAEPA_WI@Z 00402be0 f i AnnotateBarWindow.obj
 0001:00001c10       ?assign@?$_WChar_traits@_W@std@@SAXAA_WAB_W@Z 00402c10 f i AnnotateBarWindow.obj
 0001:00001c30       ?assign@?$basic_string@_WU?$char_traits@_W@std@@V?$allocator@_W@2@@std@@QAEAAV12@QB_W@Z 00402c30 f i AnnotateBarWindow.obj
 0001:00001c60       ?assign@?$basic_string@_WU?$char_traits@_W@std@@V?$allocator@_W@2@@std@@QAEAAV12@QB_WI@Z 00402c60 f i AnnotateBarWindow.obj
 0001:00001ce0       ?compare@?$_WChar_traits@_W@std@@SAHQB_W0I@Z 00402ce0 f i AnnotateBarWindow.obj
 0001:00001d00       ?copy@?$_Char_traits@_WG@std@@SAPA_WQA_WQB_WI@Z 00402d00 f i AnnotateBarWindow.obj
 0001:00001d20       ?deallocate@?$allocator@_W@std@@QAEXQA_WI@Z 00402d20 f i AnnotateBarWindow.obj
 0001:00001d40       ?length@?$_WChar_traits@_W@std@@SAIPB_W@Z 00402d40 f i AnnotateBarWindow.obj
 0001:00001d80       ?max_size@?$_Default_allocator_traits@V?$allocator@_W@std@@@std@@SAIABV?$allocator@_W@2@@Z 00402d80 f i AnnotateBarWindow.obj
 0001:00001d80       ?max@?$numeric_limits@H@std@@SAHXZ 00402d80 f i AnnotateBarWindow.obj
 0001:00001d90       ?max_size@?$basic_string@_WU?$char_traits@_W@std@@V?$allocator@_W@2@@std@@QBEIXZ 00402d90 f i AnnotateBarWindow.obj
 0001:00001df0       ?move@?$_Char_traits@_WG@std@@SAPA_WQA_WQB_WI@Z 00402df0 f i AnnotateBarWindow.obj
 0001:00001e10       ?onClickClear@AnnotateBarWindow@@AAEXPAVICustomizedAnnotationObj@ZOOMSDK@@@Z 00402e10 f   AnnotateBarWindow.obj
 0001:00001f70       ?onClickDraw@AnnotateBarWindow@@AAEXPAVICustomizedAnnotationObj@ZOOMSDK@@@Z 00402f70 f   AnnotateBarWindow.obj
 0001:000020a0       ?onClickFormat@AnnotateBarWindow@@AAEXPAVICustomizedAnnotationObj@ZOOMSDK@@@Z 004030a0 f   AnnotateBarWindow.obj
 0001:000021d0       ?onClickSpotlight@AnnotateBarWindow@@AAEXPAVICustomizedAnnotationObj@ZOOMSDK@@@Z 004031d0 f   AnnotateBarWindow.obj
 0001:00002300       ?onClickStamp@AnnotateBarWindow@@AAEXPAVICustomizedAnnotationObj@ZOOMSDK@@@Z 00403300 f   AnnotateBarWindow.obj
 0001:00002430       ?what@exception@std@@UBEPBDXZ 00403430 f i AnnotateBarWindow.obj
 0001:00002460       _HRESULT_FROM_WIN32        00403460 f i AnnotateBarWindow.obj
 0001:000024a0       _wmemcmp                   004034a0 f i AnnotateBarWindow.obj
 0001:00002510       ??0AnnotateClearWindow@@QAE@PAVICustomizedAnnotationObj@ZOOMSDK@@@Z 00403510 f   AnnotateClearWindow.obj
 0001:00002590       ??1AnnotateClearWindow@@QAE@XZ 00403590 f   AnnotateClearWindow.obj
 0001:000025e0       ?GetSkinRes@AnnotateClearWindow@@UAEIXZ 004035e0 f i AnnotateClearWindow.obj
 0001:000025f0       ?HandleMessage@AnnotateClearWindow@@UAEJIIJ@Z 004035f0 f   AnnotateClearWindow.obj
 0001:00002810       ?InitWindow@AnnotateClearWindow@@UAEXXZ 00403810 f   AnnotateClearWindow.obj
 0001:00002870       ?MoveWindowPosTo@AnnotateClearWindow@@QAEXPAUHWND__@@@Z 00403870 f   AnnotateClearWindow.obj
 0001:00002900       ?Notify@AnnotateClearWindow@@UAEXAAUtagTNotifyUI@DuiLib@@@Z 00403900 f   AnnotateClearWindow.obj
 0001:000029b0       ??0AnnotateDrawWindow@@QAE@PAVICustomizedAnnotationObj@ZOOMSDK@@@Z 004039b0 f   AnnotateDrawWindow.obj
 0001:00002aa0       ??1AnnotateDrawWindow@@QAE@XZ 00403aa0 f   AnnotateDrawWindow.obj
 0001:00002af0       ?GetSkinRes@AnnotateDrawWindow@@UAEIXZ 00403af0 f i AnnotateDrawWindow.obj
 0001:00002b00       ?HandleMessage@AnnotateDrawWindow@@UAEJIIJ@Z 00403b00 f   AnnotateDrawWindow.obj
 0001:00002d20       ?InitWindow@AnnotateDrawWindow@@UAEXXZ 00403d20 f   AnnotateDrawWindow.obj
 0001:00002e60       ?MoveWindowPosTo@AnnotateDrawWindow@@QAEXPAUHWND__@@@Z 00403e60 f   AnnotateDrawWindow.obj
 0001:00002ef0       ?Notify@AnnotateDrawWindow@@UAEXAAUtagTNotifyUI@DuiLib@@@Z 00403ef0 f   AnnotateDrawWindow.obj
 0001:00003180       ??0AnnotateFormatWindow@@QAE@PAVICustomizedAnnotationObj@ZOOMSDK@@@Z 00404180 f   AnnotateFormatWindow.obj
 0001:000032e0       ??1AnnotateFormatWindow@@QAE@XZ 004042e0 f   AnnotateFormatWindow.obj
 0001:00003330       ?GetSkinRes@AnnotateFormatWindow@@UAEIXZ 00404330 f i AnnotateFormatWindow.obj
 0001:00003340       ?HandleMessage@AnnotateFormatWindow@@UAEJIIJ@Z 00404340 f   AnnotateFormatWindow.obj
 0001:00003560       ?InitWindow@AnnotateFormatWindow@@UAEXXZ 00404560 f   AnnotateFormatWindow.obj
 0001:00003760       ?MoveWindowPosTo@AnnotateFormatWindow@@QAEXPAUHWND__@@@Z 00404760 f   AnnotateFormatWindow.obj
 0001:000037f0       ?Notify@AnnotateFormatWindow@@UAEXAAUtagTNotifyUI@DuiLib@@@Z 004047f0 f   AnnotateFormatWindow.obj
 0001:00003b40       ?onClickColor@AnnotateFormatWindow@@AAEXH@Z 00404b40 f   AnnotateFormatWindow.obj
 0001:00003c60       ??0AnnotateSpolightWindow@@QAE@PAVICustomizedAnnotationObj@ZOOMSDK@@@Z 00404c60 f   AnnotateSpolightWindow.obj
 0001:00003cd0       ??1AnnotateSpolightWindow@@QAE@XZ 00404cd0 f   AnnotateSpolightWindow.obj
 0001:00003d20       ?GetSkinRes@AnnotateSpolightWindow@@UAEIXZ 00404d20 f i AnnotateSpolightWindow.obj
 0001:00003d30       ?HandleMessage@AnnotateSpolightWindow@@UAEJIIJ@Z 00404d30 f   AnnotateSpolightWindow.obj
 0001:00003f50       ?InitWindow@AnnotateSpolightWindow@@UAEXXZ 00404f50 f   AnnotateSpolightWindow.obj
 0001:00003f90       ?MoveWindowPosTo@AnnotateSpolightWindow@@QAEXPAUHWND__@@@Z 00404f90 f   AnnotateSpolightWindow.obj
 0001:00004020       ?Notify@AnnotateSpolightWindow@@UAEXAAUtagTNotifyUI@DuiLib@@@Z 00405020 f   AnnotateSpolightWindow.obj
 0001:000040b0       ??0AnnotateStampWindow@@QAE@PAVICustomizedAnnotationObj@ZOOMSDK@@@Z 004050b0 f   AnnotateStampWindow.obj
 0001:00004150       ??1AnnotateStampWindow@@QAE@XZ 00405150 f   AnnotateStampWindow.obj
 0001:000041a0       ?GetSkinRes@AnnotateStampWindow@@UAEIXZ 004051a0 f i AnnotateStampWindow.obj
 0001:000041b0       ?HandleMessage@AnnotateStampWindow@@UAEJIIJ@Z 004051b0 f   AnnotateStampWindow.obj
 0001:000043d0       ?InitWindow@AnnotateStampWindow@@UAEXXZ 004053d0 f   AnnotateStampWindow.obj
 0001:00004480       ?MoveWindowPosTo@AnnotateStampWindow@@QAEXPAUHWND__@@@Z 00405480 f   AnnotateStampWindow.obj
 0001:00004510       ?Notify@AnnotateStampWindow@@UAEXAAUtagTNotifyUI@DuiLib@@@Z 00405510 f   AnnotateStampWindow.obj
 0001:00004620       ??0CArrowWindow@@QAE@PAVCCustomizeInMeetingUIMgr@@@Z 00405620 f   arrow_window.obj
 0001:000046a0       ??1CArrowWindow@@QAE@XZ    004056a0 f   arrow_window.obj
 0001:000046e0       ?DestroyWindow@CToolbarBottom@@QAE_NXZ 004056e0 f   toolbar_bottom_ui.obj
 0001:000046e0       ?DestroyWindow@CParticipantUIMgr@@QAE_NXZ 004056e0 f   participant_ui.obj
 0001:000046e0       ?DestroyWindow@CArrowWindow@@QAE_NXZ 004056e0 f   arrow_window.obj
 0001:00004720       ?DoButtonClick@CArrowWindow@@AAEXW4ArrowButtonType@@@Z 00405720 f   arrow_window.obj
 0001:00004750       ?EnableUsingButton@CArrowWindow@@QAEXW4ArrowButtonType@@_N@Z 00405750 f   arrow_window.obj
 0001:00004880       ?GetClassStyle@CMoreFeaturesUIMgr@@UBEIXZ 00405880 f i more_features_ui.obj
 0001:00004880       ?GetClassStyle@CUtilWnd@@UBEIXZ 00405880 f i util_window.obj
 0001:00004880       ?GetClassStyle@CParticipantUIMgr@@UBEIXZ 00405880 f i participant_ui.obj
 0001:00004880       ?GetClassStyle@CArrowWindow@@UBEIXZ 00405880 f i arrow_window.obj
 0001:00004880       ?GetClassStyle@CCustomizeUIShareSelectUI@@UBEIXZ 00405880 f i custom_ui_share_mgr.obj
 0001:00004880       ?GetClassStyle@CToolbarBottom@@UBEIXZ 00405880 f i toolbar_bottom_ui.obj
 0001:00004880       ?GetClassStyle@CMoreMenuUIMgr@@UBEIXZ 00405880 f i more_menu_ui.obj
 0001:00004890       ?GetSkinRes@CArrowWindow@@UAEIXZ 00405890 f i arrow_window.obj
 0001:000048a0       ?HandleMessage@CArrowWindow@@UAEJIIJ@Z 004058a0 f   arrow_window.obj
 0001:00004a50       ?HandleSizeChanged@CArrowWindow@@QAEXUtagRECT@@@Z 00405a50 f   arrow_window.obj
 0001:00004b70       ?InitWindow@CArrowWindow@@UAEXXZ 00405b70 f   arrow_window.obj
 0001:00004c80       ?IsWindow@CParticipantUIMgr@@QAE_NXZ 00405c80 f   participant_ui.obj
 0001:00004c80       ?IsWindow@CArrowWindow@@QAE_NXZ 00405c80 f   arrow_window.obj
 0001:00004c80       ?IsWindow@CToolbarBottom@@QAE_NXZ 00405c80 f   toolbar_bottom_ui.obj
 0001:00004cb0       ?Notify@CArrowWindow@@UAEXAAUtagTNotifyUI@DuiLib@@@Z 00405cb0 f   arrow_window.obj
 0001:00004d20       ??0CameraControlWindow@@QAE@PAVCCustomizeInMeetingUIMgr@@@Z 00405d20 f   CameraControlWindow.obj
 0001:00004dc0       ?GetSkinRes@CameraControlWindow@@UAEIXZ 00405dc0 f i CameraControlWindow.obj
 0001:00004dd0       ?HandleMessage@CameraControlWindow@@UAEJIIJ@Z 00405dd0 f   CameraControlWindow.obj
 0001:00004fe0       ?InitWindow@CameraControlWindow@@UAEXXZ 00405fe0 f   CameraControlWindow.obj
 0001:00005100       ?Notify@CameraControlWindow@@UAEXAAUtagTNotifyUI@DuiLib@@@Z 00406100 f   CameraControlWindow.obj
 0001:000053a0       ??$?0V?$allocator@_W@std@@$$V@?$_Compressed_pair@V?$allocator@_W@std@@V?$_String_val@U?$_Simple_types@_W@std@@@2@$00@std@@QAE@U_One_then_variadic_args_t@1@$$QAV?$allocator@_W@1@@Z 004063a0 f i chat_controller_ui.obj
 0001:000053a0       ??$?0AAV?$allocator@_W@std@@$$V@?$_Compressed_pair@V?$allocator@_W@std@@V?$_String_val@U?$_Simple_types@_W@std@@@2@$00@std@@QAE@U_One_then_variadic_args_t@1@AAV?$allocator@_W@1@@Z 004063a0 f i chat_controller_ui.obj
 0001:000053d0       ??$?H_WU?$char_traits@_W@std@@V?$allocator@_W@1@@std@@YA?AV?$basic_string@_WU?$char_traits@_W@std@@V?$allocator@_W@2@@0@$$QAV10@0@Z 004063d0 f i chat_controller_ui.obj
 0001:00005410       ??$?H_WU?$char_traits@_W@std@@V?$allocator@_W@1@@std@@YA?AV?$basic_string@_WU?$char_traits@_W@std@@V?$allocator@_W@2@@0@$$QAV10@ABV10@@Z 00406410 f i chat_controller_ui.obj
 0001:00005450       ??$?H_WU?$char_traits@_W@std@@V?$allocator@_W@1@@std@@YA?AV?$basic_string@_WU?$char_traits@_W@std@@V?$allocator@_W@2@@0@$$QAV10@QB_W@Z 00406450 f i chat_controller_ui.obj
 0001:00005490       ??$_Allocators_equal@V?$allocator@_W@std@@@std@@YA_NABV?$allocator@_W@0@0@Z 00406490 f i chat_controller_ui.obj
 0001:000054a0       ??$_Pocma@V?$allocator@_W@std@@@std@@YAXAAV?$allocator@_W@0@0@Z 004064a0 f i chat_controller_ui.obj
 0001:000054c0       ??$_Reallocate_grow_by@V<lambda_2fb699096920f2dc628cb0826b07831d>@@PB_WI@?$basic_string@_WU?$char_traits@_W@std@@V?$allocator@_W@2@@std@@AAEAAV01@IV<lambda_2fb699096920f2dc628cb0826b07831d>@@PB_WI@Z 004064c0 f i chat_controller_ui.obj
 0001:000055e0       ??0?$basic_string@_WU?$char_traits@_W@std@@V?$allocator@_W@2@@std@@QAE@$$QAV01@@Z 004065e0 f i chat_controller_ui.obj
 0001:00005640       ??0?$basic_string@_WU?$char_traits@_W@std@@V?$allocator@_W@2@@std@@QAE@U_String_constructor_concat_tag@1@AAV01@1@Z 00406640 f i chat_controller_ui.obj
 0001:00005910       ??0?$basic_string@_WU?$char_traits@_W@std@@V?$allocator@_W@2@@std@@QAE@XZ 00406910 f i chat_controller_ui.obj
 0001:00005950       ??0CSDKMeetingChatUIMgr@@QAE@PAVCCustomizeInMeetingUIMgr@@@Z 00406950 f   chat_controller_ui.obj
 0001:00005a30       ??0IMeetingChatCtrlEventWrap@@QAE@XZ 00406a30 f i chat_controller_ui.obj
 0001:00005a50       ??1CSDKMeetingChatUIMgr@@UAE@XZ 00406a50 f   chat_controller_ui.obj
 0001:00005ae0       ??4?$basic_string@_WU?$char_traits@_W@std@@V?$allocator@_W@2@@std@@QAEAAV01@$$QAV01@@Z 00406ae0 f i chat_controller_ui.obj
 0001:00005b20       ??R<lambda_2fb699096920f2dc628cb0826b07831d>@@QBEXQA_WQB_WI1I@Z 00406b20 f i chat_controller_ui.obj
 0001:00005b80       ??_ECSDKMeetingChatUIMgr@@UAEPAXI@Z 00406b80 f i chat_controller_ui.obj
 0001:00005b80       ??_GCSDKMeetingChatUIMgr@@UAEPAXI@Z 00406b80 f i chat_controller_ui.obj
 0001:00005bc0       ?DestroyWindow@CCustomizeUIShareSelectUI@@QAE_NXZ 00406bc0 f   custom_ui_share_mgr.obj
 0001:00005bc0       ?DestroyWindow@CSDKMeetingChatUIMgr@@QAE_NXZ 00406bc0 f   chat_controller_ui.obj
 0001:00005c00       ?DoPressEnterKey@CSDKMeetingChatUIMgr@@AAEXXZ 00406c00 f   chat_controller_ui.obj
 0001:00006120       ?GetSkinRes@CSDKMeetingChatUIMgr@@UAEIXZ 00407120 f i chat_controller_ui.obj
 0001:00006130       ?GetUserList@CSDKMeetingChatUIMgr@@AAEXXZ 00407130 f   chat_controller_ui.obj
 0001:00006170       ?HandleMessage@CSDKMeetingChatUIMgr@@UAEJIIJ@Z 00407170 f   chat_controller_ui.obj
 0001:00006380       ?HandleUserChanged@CSDKMeetingChatUIMgr@@QAEXXZ 00407380 f   chat_controller_ui.obj
 0001:000063a0       ?InitWindow@CSDKMeetingChatUIMgr@@UAEXXZ 004073a0 f   chat_controller_ui.obj
 0001:00006540       ?Notify@CSDKMeetingChatUIMgr@@UAEXAAUtagTNotifyUI@DuiLib@@@Z 00407540 f   chat_controller_ui.obj
 0001:00006680       ?OnClose@CSDKMeetingChatUIMgr@@QAEJIIJAAH@Z 00407680 f   chat_controller_ui.obj
 0001:000066b0       ?OnDestroy@CSDKMeetingChatUIMgr@@QAEJIIJAAH@Z 004076b0 f   chat_controller_ui.obj
 0001:000066d0       ?SendChatMsg@CSDKMeetingChatUIMgr@@AAE_NIPA_W@Z 004076d0 f   chat_controller_ui.obj
 0001:00006710       ?UpdateUserListCombox@CSDKMeetingChatUIMgr@@AAEXXZ 00407710 f   chat_controller_ui.obj
 0001:00006950       ?_Memcpy_val_from@?$basic_string@_WU?$char_traits@_W@std@@V?$allocator@_W@2@@std@@AAEXABV12@@Z 00407950 f i chat_controller_ui.obj
 0001:000069b0       ?_Move_assign@?$basic_string@_WU?$char_traits@_W@std@@V?$allocator@_W@2@@std@@AAEXAAV12@U_Equal_allocators@2@@Z 004079b0 f i chat_controller_ui.obj
 0001:00006a00       ?_Take_contents@?$basic_string@_WU?$char_traits@_W@std@@V?$allocator@_W@2@@std@@AAEXAAV12@U?$integral_constant@_N$00@2@@Z 00407a00 f i chat_controller_ui.obj
 0001:00006a30       ?append@?$basic_string@_WU?$char_traits@_W@std@@V?$allocator@_W@2@@std@@QAEAAV12@ABV12@@Z 00407a30 f i chat_controller_ui.obj
 0001:00006a60       ?append@?$basic_string@_WU?$char_traits@_W@std@@V?$allocator@_W@2@@std@@QAEAAV12@QB_W@Z 00407a60 f i chat_controller_ui.obj
 0001:00006a90       ?append@?$basic_string@_WU?$char_traits@_W@std@@V?$allocator@_W@2@@std@@QAEAAV12@QB_WI@Z 00407a90 f i chat_controller_ui.obj
 0001:00006b30       ?c_str@?$basic_string@_WU?$char_traits@_W@std@@V?$allocator@_W@2@@std@@QBEPB_WXZ 00407b30 f i chat_controller_ui.obj
 0001:00006b50       ?onChatMsgNotifcation@CSDKMeetingChatUIMgr@@UAEXPAVIChatMsgInfo@ZOOMSDK@@PB_W@Z 00407b50 f   chat_controller_ui.obj
 0001:00007330       ?length@?$basic_string@_WU?$char_traits@_W@std@@V?$allocator@_W@2@@std@@QBEIXZ 00408330 f i custom_ui_share_mgr.obj
 0001:00007330       ?GetTextCallback@CListUI@DuiLib@@UBEPAVIListCallbackUI@2@XZ 00408330 f i DuiLib:UIList.obj
 0001:00007330       ?size@?$basic_string@_WU?$char_traits@_W@std@@V?$allocator@_W@2@@std@@QBEIXZ 00408330 f i chat_controller_ui.obj
 0001:00007350       ??0CSDKChatControllerWorkFlow@@QAE@XZ 00408350 f   chat_controller_workflow.obj
 0001:000073a0       ??0IMeetingChatCtrlEvent@ZOOMSDK@@QAE@XZ 004083a0 f i chat_controller_workflow.obj
 0001:000073c0       ??1CSDKChatControllerWorkFlow@@UAE@XZ 004083c0 f   chat_controller_workflow.obj
 0001:00007430       ??_GCSDKChatControllerWorkFlow@@UAEPAXI@Z 00408430 f i chat_controller_workflow.obj
 0001:00007430       ??_ECSDKChatControllerWorkFlow@@UAEPAXI@Z 00408430 f i chat_controller_workflow.obj
 0001:00007460       ?InitController@CSDKChatControllerWorkFlow@@QAE_NXZ 00408460 f   chat_controller_workflow.obj
 0001:000074e0       ?SendChatMsg@CSDKChatControllerWorkFlow@@QAE?AW4SDKError@ZOOMSDK@@IPA_W@Z 004084e0 f   chat_controller_workflow.obj
 0001:00007520       ?SetEvent@CSDKChatControllerWorkFlow@@QAEXPAVIMeetingChatCtrlEventWrap@@@Z 00408520 f   chat_controller_workflow.obj
 0001:00007540       ?UnInit@CSDKChatControllerWorkFlow@@QAEXXZ 00408540 f   chat_controller_workflow.obj
 0001:00007590       ?onChatMsgNotifcation@CSDKChatControllerWorkFlow@@UAEXPAVIChatMsgInfo@ZOOMSDK@@PB_W@Z 00408590 f   chat_controller_workflow.obj
 0001:00007590       ?onMeetingStatusChanged@CSDKRestAPIUserWorkFlow@@UAEXW4MeetingStatus@ZOOMSDK@@H@Z 00408590 f   LOGIN_restapi_without_login_workflow.obj
 0001:00007590       ?onMeetingStatusChanged@CSDKWithoutLoginStartJoinMeetingFlow@@UAEXW4MeetingStatus@ZOOMSDK@@H@Z 00408590 f   LOGIN_join_meeting_only_workflow.obj
 0001:00007590       ?onMeetingStatusChanged@CSDKJoinMeetingForLoginUserFlow@@UAEXW4MeetingStatus@ZOOMSDK@@H@Z 00408590 f   Join_meeting_for_login_user_workflow.obj
 0001:000075c0       ?onMeetingStatisticsWarningNotification@CSDKRestAPIUserWorkFlow@@UAEXW4StatisticsWarningType@ZOOMSDK@@@Z 004085c0 f   LOGIN_restapi_without_login_workflow.obj
 0001:000075c0       ?onChatStautsChangedNotification@CSDKChatControllerWorkFlow@@UAEXPAUtagChatStatus@ZOOMSDK@@@Z 004085c0 f   chat_controller_workflow.obj
 0001:000075f0       ??$?8_WU?$char_traits@_W@std@@V?$allocator@_W@1@@std@@YA_NQB_WABV?$basic_string@_WU?$char_traits@_W@std@@V?$allocator@_W@2@@0@@Z 004085f0 f i close_caption_ui.obj
 0001:00007610       ??0CCloseCaptionUIMgr@@QAE@PAVCCustomizeInMeetingUIMgr@@@Z 00408610 f   close_caption_ui.obj
 0001:000076f0       ??0IClosedCaptionWorkflowEvent@@QAE@XZ 004086f0 f i close_caption_ui.obj
 0001:00007710       ??1CCloseCaptionUIMgr@@UAE@XZ 00408710 f   close_caption_ui.obj
 0001:000077e0       ??_GCCloseCaptionUIMgr@@UAEPAXI@Z 004087e0 f i close_caption_ui.obj
 0001:000077e0       ??_ECCloseCaptionUIMgr@@UAEPAXI@Z 004087e0 f i close_caption_ui.obj
 0001:00007820       ?DoClickAssignedBtn@CCloseCaptionUIMgr@@AAEXXZ 00408820 f   close_caption_ui.obj
 0001:00007cd0       ?DoClickCopyBtn@CCloseCaptionUIMgr@@AAEXXZ 00408cd0 f   close_caption_ui.obj
 0001:00007d30       ?DoClickEnterBtn@CCloseCaptionUIMgr@@AAEXXZ 00408d30 f   close_caption_ui.obj
 0001:00007f20       ?DoClickSaveBtn@CCloseCaptionUIMgr@@AAEXXZ 00408f20 f   close_caption_ui.obj
 0001:00007f90       ?GetAssignedStatus@CCloseCaptionUIMgr@@QAE_NXZ 00408f90 f   close_caption_ui.obj
 0001:00007fb0       ?GetSkinRes@CCloseCaptionUIMgr@@UAEIXZ 00408fb0 f i close_caption_ui.obj
 0001:00007fc0       ?HandleMessage@CCloseCaptionUIMgr@@UAEJIIJ@Z 00408fc0 f   close_caption_ui.obj
 0001:000081d0       ?HideAssignLayout@CCloseCaptionUIMgr@@QAEXXZ 004091d0 f   close_caption_ui.obj
 0001:00008210       ?Init@CCloseCaptionUIMgr@@AAEXXZ 00409210 f   close_caption_ui.obj
 0001:000082e0       ?InitWindow@CCloseCaptionUIMgr@@UAEXXZ 004092e0 f   close_caption_ui.obj
 0001:000085d0       ?IsHost@CCloseCaptionUIMgr@@QAE_NXZ 004095d0 f   close_caption_ui.obj
 0001:000085f0       ?Notify@CCloseCaptionUIMgr@@UAEXAAUtagTNotifyUI@DuiLib@@@Z 004095f0 f   close_caption_ui.obj
 0001:000086b0       ?ShowErrorsMsg@CCloseCaptionUIMgr@@AAEXPB_W@Z 004096b0 f   close_caption_ui.obj
 0001:000086d0       ?UpdateListCombox@CCloseCaptionUIMgr@@QAEXXZ 004096d0 f   close_caption_ui.obj
 0001:00008910       ?onAssignedToSendCC@CCloseCaptionUIMgr@@UAEX_N@Z 00409910 f   close_caption_ui.obj
 0001:00008970       ?onClosedCaptionMsgReceived@CCloseCaptionUIMgr@@UAEXPB_W_J@Z 00409970 f   close_caption_ui.obj
 0001:00008bf0       ??0CCloseCaptionWorkflow@@QAE@XZ 00409bf0 f   close_caption_workflow.obj
 0001:00008c30       ??0IClosedCaptionControllerEvent@ZOOMSDK@@QAE@XZ 00409c30 f i close_caption_workflow.obj
 0001:00008c50       ??1CCloseCaptionWorkflow@@UAE@XZ 00409c50 f   close_caption_workflow.obj
 0001:00008cc0       ??_GCCloseCaptionWorkflow@@UAEPAXI@Z 00409cc0 f i close_caption_workflow.obj
 0001:00008cc0       ??_ECCloseCaptionWorkflow@@UAEPAXI@Z 00409cc0 f i close_caption_workflow.obj
 0001:00008cf0       ?AssignCCPriviledge@CCloseCaptionWorkflow@@QAE?AW4SDKError@ZOOMSDK@@I_N@Z 00409cf0 f   close_caption_workflow.obj
 0001:00008d40       ?CanBeAssignedToSendCC@CCloseCaptionWorkflow@@QAE_NI@Z 00409d40 f   close_caption_workflow.obj
 0001:00008d80       ?CanIAssignOthersToSendCC@CCloseCaptionWorkflow@@QAE_NXZ 00409d80 f   close_caption_workflow.obj
 0001:00008dc0       ?CanSendClosedCaption@CCloseCaptionWorkflow@@QAE_NXZ 00409dc0 f   close_caption_workflow.obj
 0001:00008e00       ?GetClosedCaptionSavePath@CCloseCaptionWorkflow@@QAEPB_WXZ 00409e00 f   close_caption_workflow.obj
 0001:00008e40       ?GetClosedCaptionUrlFor3rdParty@CCloseCaptionWorkflow@@QAEPB_WXZ 00409e40 f   close_caption_workflow.obj
 0001:00008e80       ?Init@CCloseCaptionWorkflow@@QAEXXZ 00409e80 f   close_caption_workflow.obj
 0001:00008ee0       ?SaveCCHistory@CCloseCaptionWorkflow@@QAE?AW4SDKError@ZOOMSDK@@XZ 00409ee0 f   close_caption_workflow.obj
 0001:00008f40       ?SendClosedCaption@CCloseCaptionWorkflow@@QAE?AW4SDKError@ZOOMSDK@@PB_W@Z 00409f40 f   close_caption_workflow.obj
 0001:00008f80       ?SetUIEvent@CSDKVideoSettingsWorkFlow@@QAEXPAVCSDKVideoSettingsUIEvent@@@Z 00409f80 f   SETTINGS_video_workflow.obj
 0001:00008f80       ?SetUIEvent@CSDKLoggedInUIWorkFlow@@QAEXPAVCSDKLoggedInFlowUIEvent@@@Z 00409f80 f   LoggedIn_sdk_controller_workflow.obj
 0001:00008f80       ?SetDrawIndex@CListElementUI@DuiLib@@UAEXH@Z 00409f80 f   DuiLib:UIList.obj
 0001:00008f80       ?SetUIEvent@CSDKAudioSettingsWorkFlow@@QAEXPAVCSDKAudioSettingsUIEvent@@@Z 00409f80 f   SETTINGS_audio_workflow.obj
 0001:00008f80       ?SetUIEvent@CSDKWithoutLoginStartJoinMeetingFlow@@QAEXPAVCSDKJoinMeetingOnlyFlowUIEvent@@@Z 00409f80 f   LOGIN_join_meeting_only_workflow.obj
 0001:00008f80       ?SetDrawIndex@CListContainerElementUI@DuiLib@@UAEXH@Z 00409f80 f   DuiLib:UIList.obj
 0001:00008f80       ?SetEvent@CCloseCaptionWorkflow@@QAEXPAVIClosedCaptionWorkflowEvent@@@Z 00409f80 f   close_caption_workflow.obj
 0001:00008fa0       ?onAssignedToSendCC@CCloseCaptionWorkflow@@UAEX_N@Z 00409fa0 f   close_caption_workflow.obj
 0001:00008fd0       ?onClosedCaptionMsgReceived@CCloseCaptionWorkflow@@UAEXPB_W_J@Z 00409fd0 f   close_caption_workflow.obj
 0001:00009010       ??0CustomizedUIRecordMgr@@AAE@XZ 0040a010 f   CustomizedUIRecordMgr.obj
 0001:00009040       ??0IMeetingRecordingCtrlEvent@ZOOMSDK@@QAE@XZ 0040a040 f i CustomizedUIRecordMgr.obj
 0001:00009060       ??4?$basic_string@_WU?$char_traits@_W@std@@V?$allocator@_W@2@@std@@QAEAAV01@QB_W@Z 0040a060 f i CustomizedUIRecordMgr.obj
 0001:00009080       ?AllowLocalRecording@CustomizedUIRecordMgr@@QAE_NI@Z 0040a080 f   CustomizedUIRecordMgr.obj
 0001:000090d0       ?CanIChangeOthersRecordingPermission@CustomizedUIRecordMgr@@QAE_NXZ 0040a0d0 f   CustomizedUIRecordMgr.obj
 0001:00009120       ?CanIStartCloudRecording@CustomizedUIRecordMgr@@QAE_NXZ 0040a120 f   CustomizedUIRecordMgr.obj
 0001:00009140       ?CanIStartLocalRecording@CustomizedUIRecordMgr@@QAE_NXZ 0040a140 f   CustomizedUIRecordMgr.obj
 0001:00009160       ?CanTheUserStartCloudRecording@CustomizedUIRecordMgr@@QAE_NI@Z 0040a160 f   CustomizedUIRecordMgr.obj
 0001:000091b0       ?CanTheUserStartLocalRecording@CustomizedUIRecordMgr@@QAE_NI@Z 0040a1b0 f   CustomizedUIRecordMgr.obj
 0001:00009200       ?DisAllowLocalRecording@CustomizedUIRecordMgr@@QAE_NI@Z 0040a200 f   CustomizedUIRecordMgr.obj
 0001:00009250       ?GetInstance@CustomizedUIRecordMgr@@SAPAV1@XZ 0040a250 f   CustomizedUIRecordMgr.obj
 0001:000092e0       ?GetRecordController@CustomizedUIRecordMgr@@AAEXXZ 0040a2e0 f   CustomizedUIRecordMgr.obj
 0001:00009350       ?StartCloudRecording@CustomizedUIRecordMgr@@QAE_NXZ 0040a350 f   CustomizedUIRecordMgr.obj
 0001:000093a0       ?StartRecording@CustomizedUIRecordMgr@@QAE_NAA_J@Z 0040a3a0 f   CustomizedUIRecordMgr.obj
 0001:00009440       ?StopCloudRecording@CustomizedUIRecordMgr@@QAE_NXZ 0040a440 f   CustomizedUIRecordMgr.obj
 0001:00009490       ?StopRecording@CustomizedUIRecordMgr@@QAE_NAA_J@Z 0040a490 f   CustomizedUIRecordMgr.obj
 0001:000094e0       ?onCloudRecordingStatus@CustomizedUIRecordMgr@@UAEXW4RecordingStatus@ZOOMSDK@@@Z 0040a4e0 f   CustomizedUIRecordMgr.obj
 0001:000095d0       ?onCustomizedLocalRecordingSourceNotification@CustomizedUIRecordMgr@@UAEXPAVICustomizedLocalRecordingLayoutHelper@ZOOMSDK@@@Z 0040a5d0 f   CustomizedUIRecordMgr.obj
 0001:00009900       ?onRecordPriviligeChanged@CustomizedUIRecordMgr@@UAEX_N@Z 0040a900 f   CustomizedUIRecordMgr.obj
 0001:00009940       ?onRecording2MP4Done@CustomizedUIRecordMgr@@UAEX_NHPB_W@Z 0040a940 f   CustomizedUIRecordMgr.obj
 0001:00009a00       ?onRecording2MP4Processing@CustomizedUIRecordMgr@@UAEXH@Z 0040aa00 f   CustomizedUIRecordMgr.obj
 0001:00009a60       ?onRecordingStatus@CustomizedUIRecordMgr@@UAEXW4RecordingStatus@ZOOMSDK@@@Z 0040aa60 f   CustomizedUIRecordMgr.obj
 0001:00009b00       ??0CCustomizeInMeetingUIMgr@@QAE@XZ 0040ab00 f   custom_ui_mgr.obj
 0001:00009c10       ??0ICustomizedShareRenderEvent@ZOOMSDK@@QAE@XZ 0040ac10 f i custom_ui_mgr.obj
 0001:00009c30       ??0ICustomizedUIMgrEvent@ZOOMSDK@@QAE@XZ 0040ac30 f i custom_ui_mgr.obj
 0001:00009c50       ??0ICustomizedVideoContainerEvent@ZOOMSDK@@QAE@XZ 0040ac50 f i custom_ui_mgr.obj
 0001:00009c70       ??0ICutomizedUIOwnWndInterface@@IAE@XZ 0040ac70 f i custom_ui_mgr.obj
 0001:00009ca0       ??0ISDKInMeetingServiceCustomUIEvent@@QAE@XZ 0040aca0 f i custom_ui_mgr.obj
 0001:00009cc0       ??_GCArrowWindow@@QAEPAXI@Z 0040acc0 f i custom_ui_mgr.obj
 0001:00009d00       ??_GCMoreMenuUIMgr@@QAEPAXI@Z 0040ad00 f i custom_ui_mgr.obj
 0001:00009d40       ??_GCParticipantUIMgr@@QAEPAXI@Z 0040ad40 f i custom_ui_mgr.obj
 0001:00009d80       ?ActivateUI@CCustomizeInMeetingUIMgr@@QAEXXZ 0040ad80 f   custom_ui_mgr.obj
 0001:00009de0       ?CreateArrowWindow@CCustomizeInMeetingUIMgr@@AAEXXZ 0040ade0 f   custom_ui_mgr.obj
 0001:00009fb0       ?CreateCameraControlWindow@CCustomizeInMeetingUIMgr@@AAEXXZ 0040afb0 f   custom_ui_mgr.obj
 0001:0000a0a0       ?CreateChatWindow@CCustomizeInMeetingUIMgr@@AAEXXZ 0040b0a0 f   custom_ui_mgr.obj
 0001:0000a1b0       ?CreateDisplayCCWnd@CCustomizeInMeetingUIMgr@@QAEPAVClosedCaptionDisplayUI@@XZ 0040b1b0 f   custom_ui_mgr.obj
 0001:0000a2e0       ?CreateParticipantWindow@CCustomizeInMeetingUIMgr@@AAEXXZ 0040b2e0 f   custom_ui_mgr.obj
 0001:0000a3e0       ?DestroyAllSubWindow@CCustomizeInMeetingUIMgr@@AAEXXZ 0040b3e0 f   custom_ui_mgr.obj
 0001:0000a430       ?DestroyArrowWindow@CCustomizeInMeetingUIMgr@@AAEXXZ 0040b430 f   custom_ui_mgr.obj
 0001:0000a510       ?DestroyChatWindow@CCustomizeInMeetingUIMgr@@AAEXXZ 0040b510 f   custom_ui_mgr.obj
 0001:0000a590       ?DestroyDisplayCCWnd@CCustomizeInMeetingUIMgr@@QAEXXZ 0040b590 f   custom_ui_mgr.obj
 0001:0000a5f0       ?DestroyMoreMenuWindow@CCustomizeInMeetingUIMgr@@AAEXXZ 0040b5f0 f   custom_ui_mgr.obj
 0001:0000a660       ?DestroyParticipantWindow@CCustomizeInMeetingUIMgr@@AAEXXZ 0040b660 f   custom_ui_mgr.obj
 0001:0000a6e0       ?DoLayout@CCustomizeInMeetingUIMgr@@AAEXXZ 0040b6e0 f   custom_ui_mgr.obj
 0001:0000a720       ?DoLayoutActiveVideo@CCustomizeInMeetingUIMgr@@AAEXXZ 0040b720 f   custom_ui_mgr.obj
 0001:0000a750       ?DoLayoutArrowWindow@CCustomizeInMeetingUIMgr@@AAEXXZ 0040b750 f   custom_ui_mgr.obj
 0001:0000a980       ?DoLayoutNormalVideo@CCustomizeInMeetingUIMgr@@AAEXXZ 0040b980 f   custom_ui_mgr.obj
 0001:0000a9d0       ?DoLayoutParticipantsWindow@CCustomizeInMeetingUIMgr@@AAEXXZ 0040b9d0 f   custom_ui_mgr.obj
 0001:0000aaf0       ?GetCustomizedMgr@CCustomizeInMeetingUIMgr@@QAEPAVICustomizedUIMgr@ZOOMSDK@@XZ 0040baf0 f   custom_ui_mgr.obj
 0001:0000ab10       ?GetWindowHandle@CCustomizeUIShareRenderUI@@QAEPAUHWND__@@XZ 0040bb10 f   custom_ui_share_mgr.obj
 0001:0000ab10       ?GetIndex@CListElementUI@DuiLib@@UBEHXZ 0040bb10 f   DuiLib:UIList.obj
 0001:0000ab10       ?GetSize@CDuiPtrArray@DuiLib@@QBEHXZ 0040bb10 f   DuiLib:Utils.obj
 0001:0000ab10       ?GetObjectW@CDelegateBase@DuiLib@@IAEPAXXZ 0040bb10 f   DuiLib:UIDelegate.obj
 0001:0000ab10       ??BCWindowWnd@DuiLib@@QBEPAUHWND__@@XZ 0040bb10 f   DuiLib:UIBase.obj
 0001:0000ab10       ?GetIndex@CListContainerElementUI@DuiLib@@UBEHXZ 0040bb10 f   DuiLib:UIList.obj
 0001:0000ab10       ?GetHWND@CCustomizeInMeetingUIMgr@@QAEPAUHWND__@@XZ 0040bb10 f   custom_ui_mgr.obj
 0001:0000ab10       ?GetHWND@CWindowWnd@DuiLib@@QBEPAUHWND__@@XZ 0040bb10 f   DuiLib:UIBase.obj
 0001:0000ab30       ?GetRoot@CPaintManagerUI@DuiLib@@QBEPAVCControlUI@2@XZ 0040bb30 f   DuiLib:UIManager.obj
 0001:0000ab30       ?GetUserList@CCustomizeInMeetingUIMgr@@QAEPAVCSDKUserList@@XZ 0040bb30 f   custom_ui_mgr.obj
 0001:0000ab50       ?HandleChatWindowBeClosed@CCustomizeInMeetingUIMgr@@QAEXXZ 0040bb50 f   custom_ui_mgr.obj
 0001:0000ab70       ?HandleInMeeting@CCustomizeInMeetingUIMgr@@AAEXXZ 0040bb70 f   custom_ui_mgr.obj
 0001:0000ac10       ?HandleMoveToWaitingRoom@CCustomizeInMeetingUIMgr@@AAEXXZ 0040bc10 f   custom_ui_mgr.obj
 0001:0000ac80       ?HideMenuWhenMenuVisible@CCustomizeInMeetingUIMgr@@QAE_NXZ 0040bc80 f   custom_ui_mgr.obj
 0001:0000acd0       ?Init@CCustomizeInMeetingUIMgr@@QAEXXZ 0040bcd0 f   custom_ui_mgr.obj
 0001:0000ad20       ?InitCustomShareRender@CCustomizeInMeetingUIMgr@@AAE_NXZ 0040bd20 f   custom_ui_mgr.obj
 0001:0000ae30       ?InitCustomizeUIVideoMgr@CCustomizeInMeetingUIMgr@@AAE_NXZ 0040be30 f   custom_ui_mgr.obj
 0001:0000af70       ?InitUserList@CCustomizeInMeetingUIMgr@@AAEXXZ 0040bf70 f   custom_ui_mgr.obj
 0001:0000b010       ?PageButtonClick@CCustomizeInMeetingUIMgr@@QAEXW4ArrowButtonType@@@Z 0040c010 f   custom_ui_mgr.obj
 0001:0000b050       ?Reset@CCustomizeInMeetingUIMgr@@AAEXXZ 0040c050 f   custom_ui_mgr.obj
 0001:0000b140       ?SetEvent@CCustomizeInMeetingUIMgr@@QAEXPAVCSDKDemoAppEvent@@@Z 0040c140 f   custom_ui_mgr.obj
 0001:0000b160       ?SetUIEvent@CToolbarBottomWorkFlow@@QAEXPAVCToolbarBottomWorkFlowUIEvent@@@Z 0040c160 f   toolbar_bottom_workflow.obj
 0001:0000b160       ?SetIndex@CListElementUI@DuiLib@@UAEXH@Z 0040c160 f   DuiLib:UIList.obj
 0001:0000b160       ?SetUIEvent@CAuthSDKWorkFlow@@QAEXPAVCAuthSDKWorkFlowUIEvent@@@Z 0040c160 f   init_auth_sdk_workflow.obj
 0001:0000b160       ?SetSDKMeetingService@CCustomizeInMeetingUIMgr@@UAEXPAVIMeetingService@ZOOMSDK@@@Z 0040c160 f   custom_ui_mgr.obj
 0001:0000b160       ?SetFeatureCustomCurrentPage@CSDKFeatureCustomSettingsUIGroup@@QAEXPAVCVerticalLayoutUI@DuiLib@@@Z 0040c160 f   settings_ui.obj
 0001:0000b160       ?SetUICustomCurrentPage@CSDKUICustomSettingsUIGroup@@QAEXPAVCVerticalLayoutUI@DuiLib@@@Z 0040c160 f   settings_ui.obj
 0001:0000b160       ?SetEvent@CToolbarMgr@@QAEXPAVCSDKDemoAppEvent@@@Z 0040c160 f   toolbar_manager.obj
 0001:0000b160       ?SetUIEvent@CInitSDKWorkFlow@@QAEXPAVCInitSDKWorkFlowUIEvent@@@Z 0040c160 f   init_auth_sdk_workflow.obj
 0001:0000b160       ?SetUIEvent@CSDKRestAPIUserWorkFlow@@QAEXPAVCSDKRestAPIUserUIEvent@@@Z 0040c160 f   LOGIN_restapi_without_login_workflow.obj
 0001:0000b160       ?SetUIEvent@CSDKJoinMeetingForLoginUserFlow@@QAEXPAVCSDKJoinMeetingForLoginUserFlowUIEvent@@@Z 0040c160 f   Join_meeting_for_login_user_workflow.obj
 0001:0000b160       ?SetIndex@CListContainerElementUI@DuiLib@@UAEXH@Z 0040c160 f   DuiLib:UIList.obj
 0001:0000b180       ?ShowHideCameraControlWindow@CCustomizeInMeetingUIMgr@@QAEXXZ 0040c180 f   custom_ui_mgr.obj
 0001:0000b230       ?ShowHideChatWindow@CCustomizeInMeetingUIMgr@@QAEXXZ 0040c230 f   custom_ui_mgr.obj
 0001:0000b300       ?ShowHideGalleryViewWindow@CCustomizeInMeetingUIMgr@@QAEXXZ 0040c300 f   custom_ui_mgr.obj
 0001:0000b450       ?ShowHideMoreMenuWindow@CCustomizeInMeetingUIMgr@@QAEXHH@Z 0040c450 f   custom_ui_mgr.obj
 0001:0000b570       ?ShowHideParticipantWindow@CCustomizeInMeetingUIMgr@@QAEXXZ 0040c570 f   custom_ui_mgr.obj
 0001:0000b610       ?ShowPreview@CCustomizeInMeetingUIMgr@@AAEXXZ 0040c610 f   custom_ui_mgr.obj
 0001:0000b680       ?ShowShareWindow@CCustomizeInMeetingUIMgr@@QAEXXZ 0040c680 f   custom_ui_mgr.obj
 0001:0000b6b0       ?ShowToolbar@CCustomizeInMeetingUIMgr@@AAEXXZ 0040c6b0 f   custom_ui_mgr.obj
 0001:0000b770       ?Start@CCustomizeInMeetingUIMgr@@AAEXXZ 0040c770 f   custom_ui_mgr.obj
 0001:0000b8d0       ?Stop@CCustomizeInMeetingUIMgr@@AAEXXZ 0040c8d0 f   custom_ui_mgr.obj
 0001:0000b9b0       ?UninitUserList@CCustomizeInMeetingUIMgr@@AAEXXZ 0040c9b0 f   custom_ui_mgr.obj
 0001:0000ba10       ?UpdateMeetingTitle@CCustomizeInMeetingUIMgr@@AAEX_N@Z 0040ca10 f   custom_ui_mgr.obj
 0001:0000bb40       ?UpdateParticipantsWindow@CCustomizeInMeetingUIMgr@@QAEXXZ 0040cb40 f   custom_ui_mgr.obj
 0001:0000bb70       ?UpdateShareButtonStatus@CCustomizeInMeetingUIMgr@@QAEXXZ 0040cb70 f   custom_ui_mgr.obj
 0001:0000bbd0       ?UpdateToolbarButtons@CCustomizeInMeetingUIMgr@@QAEXXZ 0040cbd0 f   custom_ui_mgr.obj
 0001:0000bca0       ?UpdateUserList@CCustomizeInMeetingUIMgr@@AAEXXZ 0040cca0 f   custom_ui_mgr.obj
 0001:0000bd70       ?adjust_wnd_pos@ICutomizedUIOwnWndInterface@@IAEXHHPAUHWND__@@@Z 0040cd70 f i custom_ui_mgr.obj
 0001:0000be40       ?create_owner_hwnd@ICutomizedUIOwnWndInterface@@IAEPAUHWND__@@PAV1@HH@Z 0040ce40 f i custom_ui_mgr.obj
 0001:0000bf40       ?destroy_owner_wnd@ICutomizedUIOwnWndInterface@@IAEXXZ 0040cf40 f i custom_ui_mgr.obj
 0001:0000bf80       ?my_wnd_proc@ICutomizedUIOwnWndInterface@@KGJPAUHWND__@@IIJ@Z 0040cf80 f i custom_ui_mgr.obj
 0001:0000c090       ?onDestroyed@CCustomizeInMeetingUIMgr@@UAEXXZ 0040d090 f   custom_ui_mgr.obj
 0001:0000c110       ?onLayoutNotification@CCustomizeInMeetingUIMgr@@UAEXUtagRECT@@@Z 0040d110 f   custom_ui_mgr.obj
 0001:0000c130       ?onMeetingStatusChanged@CCustomizeInMeetingUIMgr@@UAEXW4MeetingStatus@ZOOMSDK@@H@Z 0040d130 f   custom_ui_mgr.obj
 0001:0000c1e0       ?onMove@CCustomizeInMeetingUIMgr@@UAEXXZ 0040d1e0 f   custom_ui_mgr.obj
 0001:0000c230       ?onRemoteControlStatus@CCustomizeInMeetingUIMgr@@UAEXW4RemoteControlStatus@ZOOMSDK@@I@Z 0040d230 f   custom_ui_mgr.obj
 0001:0000c260       ?onChatMsgNotifcation@CSDKCustomUIWorkFlow@@UAEXPAVIChatMsgInfo@ZOOMSDK@@PB_W@Z 0040d260 f   custom_ui_mgr_flow.obj
 0001:0000c260       ?onDefaultSpeakerDeviceChanged@CSDKAudioSettingsWorkFlow@@UAEXPB_W0@Z 0040d260 f   SETTINGS_audio_workflow.obj
 0001:0000c260       ?OnDirectShareStatusUpdate@CSDKLoggedInUIMgr@@UAEXW4DirectShareStatusStatus_Enum@ZOOMSDK@@PAVIDirectShareViaMeetingIDOrPairingCodeHandler@3@@Z 0040d260 f   LoggedIn_sdk_controller_ui.obj
 0001:0000c260       ?DrawItemText@CListContainerElementUI@DuiLib@@UAEXPAUHDC__@@ABUtagRECT@@@Z 0040d260 f   DuiLib:UIList.obj
 0001:0000c260       ?_Orphan_range@?$vector@PAVIAlternativeHostInfo@ZOOMSDK@@V?$allocator@PAVIAlternativeHostInfo@ZOOMSDK@@@std@@@std@@ABEXPAPAVIAlternativeHostInfo@ZOOMSDK@@0@Z 0040d260 f   schedule_meeting_ui.obj
 0001:0000c260       ?onSubscribeUserFail@CCustomizeInMeetingUIMgr@@UAEXHPAVIVideoRenderElement@ZOOMSDK@@@Z 0040d260 f   custom_ui_mgr.obj
 0001:0000c260       ?onUserJoin@CMoreFeaturesUIMgr@@UAEXPAV?$IList@I@ZOOMSDK@@PB_W@Z 0040d260 f   more_features_ui.obj
 0001:0000c260       ?onRenderUserChanged@CCustomizeInMeetingUIMgr@@UAEXPAVIVideoRenderElement@ZOOMSDK@@I@Z 0040d260 f   custom_ui_mgr.obj
 0001:0000c260       ?_Orphan_range@?$vector@V?$basic_string@_WU?$char_traits@_W@std@@V?$allocator@_W@2@@std@@V?$allocator@V?$basic_string@_WU?$char_traits@_W@std@@V?$allocator@_W@2@@std@@@2@@std@@ABEXPAV?$basic_string@_WU?$char_traits@_W@std@@V?$allocator@_W@2@@2@0@Z 0040d260 f   custom_ui_share_flow.obj
 0001:0000c260       ?onAudioBtnClicked@CSDKCustomUIWorkFlow@@UAEXUtagAudioBtnClickedCallbackInfo@ZOOMSDK@@@Z 0040d260 f   custom_ui_mgr_flow.obj
 0001:0000c260       ?onDefaultCamDeviceChanged@CSDKVideoSettingsWorkFlow@@UAEXPB_W0@Z 0040d260 f   SETTINGS_video_workflow.obj
 0001:0000c260       ?OnMicSpkVolumnChanged@CSDKCustomUIWorkFlow@@UAEXII@Z 0040d260 f   custom_ui_mgr_flow.obj
 0001:0000c260       ?onLoginRet@CAuthSDKWorkFlow@@UAEXW4LOGINSTATUS@ZOOMSDK@@PAVIAccountInfo@3@@Z 0040d260 f   init_auth_sdk_workflow.obj
 0001:0000c260       ?onCoHostChangeNotification@CSDKCustomUIWorkFlow@@UAEXI_N@Z 0040d260 f   custom_ui_mgr_flow.obj
 0001:0000c260       ?OnTestMicStatusChanged@CSDKCustomUIWorkFlow@@UAEXW4SDK_TESTMIC_STATUS@ZOOMSDK@@AA_N@Z 0040d260 f   custom_ui_mgr_flow.obj
 0001:0000c260       ?onSpotlightVideoChangeNotification@CSDKCustomUIWorkFlow@@UAEX_NI@Z 0040d260 f   custom_ui_mgr_flow.obj
 0001:0000c260       ?_Orphan_range@?$vector@PAVIUserInfo@ZOOMSDK@@V?$allocator@PAVIUserInfo@ZOOMSDK@@@std@@@std@@ABEXPAPAVIUserInfo@ZOOMSDK@@0@Z 0040d260 f   user_manager.obj
 0001:0000c260       ?onSpotlightVideoChangeNotification@CUtilWnd@@UAEX_NI@Z 0040d260 f   util_window.obj
 0001:0000c260       ?onDefaultMicDeviceChanged@CSDKAudioSettingsWorkFlow@@UAEXPB_W0@Z 0040d260 f   SETTINGS_audio_workflow.obj
 0001:0000c260       ?onRenderDataTypeChanged@CCustomizeInMeetingUIMgr@@UAEXPAVIVideoRenderElement@ZOOMSDK@@W4VideoRenderDataType@3@@Z 0040d260 f   custom_ui_mgr.obj
 0001:0000c260       ?onDefaultMicDeviceChanged@CSDKAudioSettingsUIGroup@@UAEXPB_W0@Z 0040d260 f   settings_ui.obj
 0001:0000c260       ?onDefaultSpeakerDeviceChanged@CSDKAudioSettingsUIGroup@@UAEXPB_W0@Z 0040d260 f   settings_ui.obj
 0001:0000c260       ?_Orphan_range@?$vector@PAVIInterpreterInfo@ZOOMSDK@@V?$allocator@PAVIInterpreterInfo@ZOOMSDK@@@std@@@std@@ABEXPAPAVIInterpreterInfo@ZOOMSDK@@0@Z 0040d260 f   schedule_meeting_ui.obj
 0001:0000c260       ?onUserLeft@CMoreFeaturesUIMgr@@UAEXPAV?$IList@I@ZOOMSDK@@PB_W@Z 0040d260 f   more_features_ui.obj
 0001:0000c260       ?onLoginRet@CSDKWithoutLoginStartJoinMeetingFlow@@UAEXW4LOGINSTATUS@ZOOMSDK@@PAVIAccountInfo@3@@Z 0040d260 f   LOGIN_join_meeting_only_workflow.obj
 0001:0000c260       ?_Orphan_range@?$vector@PAVIVirtualBGImageInfo@ZOOMSDK@@V?$allocator@PAVIVirtualBGImageInfo@ZOOMSDK@@@std@@@std@@ABEXPAPAVIVirtualBGImageInfo@ZOOMSDK@@0@Z 0040d260 f   settings_ui.obj
 0001:0000c260       ?onLowOrRaiseHandStatusChanged@CSDKCustomUIWorkFlow@@UAEX_NI@Z 0040d260 f   custom_ui_mgr_flow.obj
 0001:0000c260       ?onDefaultCamDeviceChanged@CSDKVideoSettingsUIGroup@@UAEXPB_W0@Z 0040d260 f   settings_ui.obj
 0001:0000c270       ?onShareRenderDestroyed@CCustomizeInMeetingUIMgr@@UAEXPAVICustomizedShareRender@ZOOMSDK@@@Z 0040d270 f   custom_ui_mgr.obj
 0001:0000c2a0       ?onVideoContainerWindowMsgNotification@CCustomizeInMeetingUIMgr@@UAEXIIJ@Z 0040d2a0 f   custom_ui_mgr.obj
 0001:0000c2a0       ?onShareRenderWindowMsgNotification@CCustomizeInMeetingUIMgr@@UAEXIIJ@Z 0040d2a0 f   custom_ui_mgr.obj
 0001:0000c2e0       ?onSharingShareAnnotationStatusChanged@CCustomizeInMeetingUIMgr@@UAEXPAVICustomizedShareRender@ZOOMSDK@@W4CustomizedShareAnnotationStatus@3@@Z 0040d2e0 f   custom_ui_mgr.obj
 0001:0000c310       ?onSharingStatus@CCustomizeInMeetingUIMgr@@UAEXW4SharingStatus@ZOOMSDK@@I@Z 0040d310 f   custom_ui_mgr.obj
 0001:0000c340       ?onSize@CCustomizeInMeetingUIMgr@@UAEXAAUtagRECT@@@Z 0040d340 f   custom_ui_mgr.obj
 0001:0000c4e0       ?onUserAudioStatusChange@CCustomizeInMeetingUIMgr@@UAEXPAV?$IList@PAVIUserAudioStatus@ZOOMSDK@@@ZOOMSDK@@PB_W@Z 0040d4e0 f   custom_ui_mgr.obj
 0001:0000c570       ?onUserJoin@CCustomizeInMeetingUIMgr@@UAEXPAV?$IList@I@ZOOMSDK@@PB_W@Z 0040d570 f   custom_ui_mgr.obj
 0001:0000c6c0       ?onUserLeft@CCustomizeInMeetingUIMgr@@UAEXPAV?$IList@I@ZOOMSDK@@PB_W@Z 0040d6c0 f   custom_ui_mgr.obj
 0001:0000c7c0       ?onUserNameChanged@CCustomizeInMeetingUIMgr@@UAEXIPB_W@Z 0040d7c0 f   custom_ui_mgr.obj
 0001:0000c7e0       ?onUserVideoStatusChange@CCustomizeInMeetingUIMgr@@UAEXIW4VideoStatus@ZOOMSDK@@@Z 0040d7e0 f   custom_ui_mgr.obj
 0001:0000c870       ?onVideoContainerDestroyed@CCustomizeInMeetingUIMgr@@UAEXPAVICustomizedVideoContainer@ZOOMSDK@@@Z 0040d870 f   custom_ui_mgr.obj
 0001:0000c8a0       ?onVideoRenderElementDestroyed@CCustomizeInMeetingUIMgr@@UAEXPAVIVideoRenderElement@ZOOMSDK@@@Z 0040d8a0 f   custom_ui_mgr.obj
 0001:0000c8d0       ?onWindowMsgNotification@CCustomizeInMeetingUIMgr@@UAEXIIJ@Z 0040d8d0 f i custom_ui_mgr.obj
 0001:0000c8fa       ?onWindowMsgNotification@CCustomizeInMeetingUIMgr@@W3AEXIIJ@Z 0040d8fa f i custom_ui_mgr.obj
 0001:0000c910       ?register_window_class@ICutomizedUIOwnWndInterface@@IAEHPAUHINSTANCE__@@@Z 0040d910 f i custom_ui_mgr.obj
 0001:0000c9c0       ??0CSDKCustomUIWorkFlow@@QAE@XZ 0040d9c0 f   custom_ui_mgr_flow.obj
 0001:0000cad0       ??0ICustomizedAnnotationControllerEvent@ZOOMSDK@@QAE@XZ 0040dad0 f i custom_ui_mgr_flow.obj
 0001:0000caf0       ??0IMeetingAudioCtrlEvent@ZOOMSDK@@QAE@XZ 0040daf0 f i custom_ui_mgr_flow.obj
 0001:0000cb10       ??0IMeetingParticipantsCtrlEvent@ZOOMSDK@@QAE@XZ 0040db10 f i custom_ui_mgr_flow.obj
 0001:0000cb30       ??0IMeetingRemoteCtrlEvent@ZOOMSDK@@QAE@XZ 0040db30 f i custom_ui_mgr_flow.obj
 0001:0000cb50       ??0IMeetingServiceEvent@ZOOMSDK@@QAE@XZ 0040db50 f i custom_ui_mgr_flow.obj
 0001:0000cb70       ??0IMeetingShareCtrlEvent@ZOOMSDK@@QAE@XZ 0040db70 f i custom_ui_mgr_flow.obj
 0001:0000cb90       ??0IMeetingUIControllerEvent@ZOOMSDK@@QAE@XZ 0040db90 f i custom_ui_mgr_flow.obj
 0001:0000cbb0       ??0IMeetingVideoCtrlEvent@ZOOMSDK@@QAE@XZ 0040dbb0 f i custom_ui_mgr_flow.obj
 0001:0000cbd0       ??0ISDKInMeetingServiceMgrEvent@@QAE@XZ 0040dbd0 f i custom_ui_mgr_flow.obj
 0001:0000ccf0       ??0ITestAudioDeviceHelperEvent@ZOOMSDK@@QAE@XZ 0040dcf0 f i custom_ui_mgr_flow.obj
 0001:0000cd10       ??0ITestVideoDeviceHelperEvent@ZOOMSDK@@QAE@XZ 0040dd10 f i custom_ui_mgr_flow.obj
 0001:0000cd30       ??1CSDKCustomUIWorkFlow@@UAE@XZ 0040dd30 f   custom_ui_mgr_flow.obj
 0001:0000ce00       ??_ECSDKCustomUIWorkFlow@@UAEPAXI@Z 0040de00 f i custom_ui_mgr_flow.obj
 0001:0000ce00       ??_GCSDKCustomUIWorkFlow@@UAEPAXI@Z 0040de00 f i custom_ui_mgr_flow.obj
 0001:0000ce40       ?GetMeetingID@CSDKCustomUIWorkFlow@@QAE_KXZ 0040de40 f   custom_ui_mgr_flow.obj
 0001:0000ce90       ?GetServiceControls@CSDKCustomUIWorkFlow@@QAEXXZ 0040de90 f   custom_ui_mgr_flow.obj
 0001:0000cfb0       ?Init@CSDKCustomUIWorkFlow@@QAEXPAVISDKInMeetingServiceCustomUIEvent@@@Z 0040dfb0 f   custom_ui_mgr_flow.obj
 0001:0000cfe0       ?InitMeetingService@CSDKCustomUIWorkFlow@@QAEXXZ 0040dfe0 f   custom_ui_mgr_flow.obj
 0001:0000d140       ?IsAudioOn@CSDKCustomUIWorkFlow@@QAE_NXZ 0040e140 f   custom_ui_mgr_flow.obj
 0001:0000d1b0       ?IsInMeeting@@YA_NW4MeetingStatus@ZOOMSDK@@@Z 0040e1b0 f i custom_ui_mgr_flow.obj
 0001:0000d1e0       ?IsMeetingServiceReady@CSDKCustomUIWorkFlow@@QAE_NXZ 0040e1e0 f   custom_ui_mgr_flow.obj
 0001:0000d220       ?IsVideoOn@CSDKCustomUIWorkFlow@@QAE_NXZ 0040e220 f   custom_ui_mgr_flow.obj
 0001:0000d280       ?Uninit@CSDKCustomUIWorkFlow@@QAEXXZ 0040e280 f   custom_ui_mgr_flow.obj
 0001:0000d330       ?onLoginReturnWithReason@CAuthSDKWorkFlow@@UAEXW4LOGINSTATUS@ZOOMSDK@@PAVIAccountInfo@3@W4LoginFailReason@3@@Z 0040e330 f i init_auth_sdk_workflow.obj
 0001:0000d330       ?onMeetingSecureKeyNotification@CSDKJoinMeetingForLoginUserFlow@@UAEXPBDHPAVIMeetingExternalSecureKeyHandler@ZOOMSDK@@@Z 0040e330 f i Join_meeting_for_login_user_workflow.obj
 0001:0000d330       ?onLoginReturnWithReason@SDKInterfaceWrap@@UAEXW4LOGINSTATUS@ZOOMSDK@@PAVIAccountInfo@3@W4LoginFailReason@3@@Z 0040e330 f i sdk_util.obj
 0001:0000d330       ?onMeetingSecureKeyNotification@CSDKCustomUIWorkFlow@@UAEXPBDHPAVIMeetingExternalSecureKeyHandler@ZOOMSDK@@@Z 0040e330 f i custom_ui_mgr_flow.obj
 0001:0000d330       ?onMeetingSecureKeyNotification@CSDKRestAPIUserUIGroup@@UAEXPBDHPAVIMeetingExternalSecureKeyHandler@ZOOMSDK@@@Z 0040e330 f i LOGIN_sdk_login_UI.obj
 0001:0000d330       ?onMeetingSecureKeyNotification@CSDKWithoutLoginStartJoinMeetingUIGroup@@UAEXPBDHPAVIMeetingExternalSecureKeyHandler@ZOOMSDK@@@Z 0040e330 f i LOGIN_sdk_login_UI.obj
 0001:0000d330       ?onMeetingSecureKeyNotification@CSDKJoinMeetingForLoginUserUIGroup@@UAEXPBDHPAVIMeetingExternalSecureKeyHandler@ZOOMSDK@@@Z 0040e330 f i Join_meeting_for_login_user_ui.obj
 0001:0000d330       ?onLoginReturnWithReason@CSDKWithoutLoginStartJoinMeetingFlow@@UAEXW4LOGINSTATUS@ZOOMSDK@@PAVIAccountInfo@3@W4LoginFailReason@3@@Z 0040e330 f i LOGIN_join_meeting_only_workflow.obj
 0001:0000d330       ?onMeetingSecureKeyNotification@CSDKWithoutLoginStartJoinMeetingFlow@@UAEXPBDHPAVIMeetingExternalSecureKeyHandler@ZOOMSDK@@@Z 0040e330 f i LOGIN_join_meeting_only_workflow.obj
 0001:0000d330       ?onLoginReturnWithReason@CSDKLoginCBHandler@@UAEXW4LOGINSTATUS@ZOOMSDK@@PAVIAccountInfo@3@W4LoginFailReason@3@@Z 0040e330 f i LOGIN_sdk_login_UI.obj
 0001:0000d330       ?onClosedCaptionMsgReceived@CSDKCustomUIWorkFlow@@UAEXPB_W_J@Z 0040e330 f i custom_ui_mgr_flow.obj
 0001:0000d330       ?onRecording2MP4Done@CSDKCustomUIWorkFlow@@UAEX_NHPB_W@Z 0040e330 f i custom_ui_mgr_flow.obj
 0001:0000d330       ?onMeetingSecureKeyNotification@CSDKLoggedInUIMgr@@UAEXPBDHPAVIMeetingExternalSecureKeyHandler@ZOOMSDK@@@Z 0040e330 f i LoggedIn_sdk_controller_ui.obj
 0001:0000d340       ?onCustomizedAnnotationObjDestroyed@CSDKCustomUIWorkFlow@@UAEXPAVICustomizedAnnotationObj@ZOOMSDK@@@Z 0040e340 f   custom_ui_mgr_flow.obj
 0001:0000d370       ?onCustomizedLocalRecordingSourceNotification@CSDKCustomUIWorkFlow@@UAEXPAVICustomizedLocalRecordingLayoutHelper@ZOOMSDK@@@Z 0040e370 f   custom_ui_mgr_flow.obj
 0001:0000d3a0       ?onMeetingStatusChanged@CSDKCustomUIWorkFlow@@UAEXW4MeetingStatus@ZOOMSDK@@H@Z 0040e3a0 f   custom_ui_mgr_flow.obj
 0001:0000d3e0       ?onRemoteControlStatus@CSDKCustomUIWorkFlow@@UAEXW4RemoteControlStatus@ZOOMSDK@@I@Z 0040e3e0 f   custom_ui_mgr_flow.obj
 0001:0000d420       ?onSharingShareAnnotationStatusChanged@CSDKCustomUIWorkFlow@@UAEXPAVICustomizedShareRender@ZOOMSDK@@W4CustomizedShareAnnotationStatus@3@@Z 0040e420 f   custom_ui_mgr_flow.obj
 0001:0000d460       ?onSharingStatus@CSDKCustomUIWorkFlow@@UAEXW4SharingStatus@ZOOMSDK@@I@Z 0040e460 f   custom_ui_mgr_flow.obj
 0001:0000d4a0       ?onUserAudioStatusChange@CSDKCustomUIWorkFlow@@UAEXPAV?$IList@PAVIUserAudioStatus@ZOOMSDK@@@ZOOMSDK@@PB_W@Z 0040e4a0 f   custom_ui_mgr_flow.obj
 0001:0000d4e0       ?onUserJoin@CSDKCustomUIWorkFlow@@UAEXPAV?$IList@I@ZOOMSDK@@PB_W@Z 0040e4e0 f   custom_ui_mgr_flow.obj
 0001:0000d520       ?onUserLeft@CSDKCustomUIWorkFlow@@UAEXPAV?$IList@I@ZOOMSDK@@PB_W@Z 0040e520 f   custom_ui_mgr_flow.obj
 0001:0000d560       ?onUserNameChanged@CSDKCustomUIWorkFlow@@UAEXIPB_W@Z 0040e560 f   custom_ui_mgr_flow.obj
 0001:0000d5a0       ?onUserVideoStatusChange@CSDKCustomUIWorkFlow@@UAEXIW4VideoStatus@ZOOMSDK@@@Z 0040e5a0 f   custom_ui_mgr_flow.obj
 0001:0000d5e0       ??$?0$$V@?$_Compressed_pair@V?$allocator@V?$basic_string@_WU?$char_traits@_W@std@@V?$allocator@_W@2@@std@@@std@@V?$_Vector_val@U?$_Simple_types@V?$basic_string@_WU?$char_traits@_W@std@@V?$allocator@_W@2@@std@@@std@@@2@$00@std@@QAE@U_Zero_then_variadic_args_t@1@@Z 0040e5e0 f i custom_ui_share_flow.obj
 0001:0000d5e0       ??$?0$$V@?$_Compressed_pair@V?$allocator@PAVIVirtualBGImageInfo@ZOOMSDK@@@std@@V?$_Vector_val@U?$_Simple_types@PAVIVirtualBGImageInfo@ZOOMSDK@@@std@@@2@$00@std@@QAE@U_Zero_then_variadic_args_t@1@@Z 0040e5e0 f i settings_ui.obj
 0001:0000d5e0       ??$?0$$V@?$_Compressed_pair@V?$allocator@PAVIInterpreterInfo@ZOOMSDK@@@std@@V?$_Vector_val@U?$_Simple_types@PAVIInterpreterInfo@ZOOMSDK@@@std@@@2@$00@std@@QAE@U_Zero_then_variadic_args_t@1@@Z 0040e5e0 f i schedule_meeting_ui.obj
 0001:0000d5e0       ??$?0$$V@?$_Compressed_pair@V?$allocator@PAVIUserInfo@ZOOMSDK@@@std@@V?$_Vector_val@U?$_Simple_types@PAVIUserInfo@ZOOMSDK@@@std@@@2@$00@std@@QAE@U_Zero_then_variadic_args_t@1@@Z 0040e5e0 f i user_manager.obj
 0001:0000d5e0       ??$?0$$V@?$_Compressed_pair@V?$allocator@PAVIAlternativeHostInfo@ZOOMSDK@@@std@@V?$_Vector_val@U?$_Simple_types@PAVIAlternativeHostInfo@ZOOMSDK@@@std@@@2@$00@std@@QAE@U_Zero_then_variadic_args_t@1@@Z 0040e5e0 f i schedule_meeting_ui.obj
 0001:0000d600       ??$_Destroy_range@V?$allocator@V?$basic_string@_WU?$char_traits@_W@std@@V?$allocator@_W@2@@std@@@std@@@std@@YAXPAV?$basic_string@_WU?$char_traits@_W@std@@V?$allocator@_W@2@@0@QAV10@AAV?$allocator@V?$basic_string@_WU?$char_traits@_W@std@@V?$allocator@_W@2@@std@@@0@@Z 0040e600 f i custom_ui_share_flow.obj
 0001:0000d670       ??$_Emplace_back@V?$basic_string@_WU?$char_traits@_W@std@@V?$allocator@_W@2@@std@@@?$_Uninitialized_backout_al@V?$allocator@V?$basic_string@_WU?$char_traits@_W@std@@V?$allocator@_W@2@@std@@@std@@@std@@QAEX$$QAV?$basic_string@_WU?$char_traits@_W@std@@V?$allocator@_W@2@@1@@Z 0040e670 f i custom_ui_share_flow.obj
 0001:0000d6c0       ??$_Emplace_back_with_unused_capacity@V?$basic_string@_WU?$char_traits@_W@std@@V?$allocator@_W@2@@std@@@?$vector@V?$basic_string@_WU?$char_traits@_W@std@@V?$allocator@_W@2@@std@@V?$allocator@V?$basic_string@_WU?$char_traits@_W@std@@V?$allocator@_W@2@@std@@@2@@std@@AAEX$$QAV?$basic_string@_WU?$char_traits@_W@std@@V?$allocator@_W@2@@1@@Z 0040e6c0 f i custom_ui_share_flow.obj
 0001:0000d740       ??$_Emplace_reallocate@V?$basic_string@_WU?$char_traits@_W@std@@V?$allocator@_W@2@@std@@@?$vector@V?$basic_string@_WU?$char_traits@_W@std@@V?$allocator@_W@2@@std@@V?$allocator@V?$basic_string@_WU?$char_traits@_W@std@@V?$allocator@_W@2@@std@@@2@@std@@QAEPAV?$basic_string@_WU?$char_traits@_W@std@@V?$allocator@_W@2@@1@QAV21@$$QAV21@@Z 0040e740 f i custom_ui_share_flow.obj
 0001:0000d920       ??$_Get_size_of_n@$0BI@@std@@YAII@Z 0040e920 f i custom_ui_share_flow.obj
 0001:0000d950       ??$_Get_unwrapped@ABQAPAVIUserInfo@ZOOMSDK@@@std@@YAPAPAVIUserInfo@ZOOMSDK@@ABQAPAV12@@Z 0040e950 f i user_manager.obj
 0001:0000d950       ??$_Get_unwrapped@ABQAPAVIVirtualBGImageInfo@ZOOMSDK@@@std@@YAPAPAVIVirtualBGImageInfo@ZOOMSDK@@ABQAPAV12@@Z 0040e950 f i settings_ui.obj
 0001:0000d950       ??$_Get_unwrapped@ABQAV?$basic_string@_WU?$char_traits@_W@std@@V?$allocator@_W@2@@std@@@std@@YAPAV?$basic_string@_WU?$char_traits@_W@std@@V?$allocator@_W@2@@0@ABQAV10@@Z 0040e950 f i custom_ui_share_flow.obj
 0001:0000d950       ??$_Get_unwrapped@ABQAPAVIAlternativeHostInfo@ZOOMSDK@@@std@@YAPAPAVIAlternativeHostInfo@ZOOMSDK@@ABQAPAV12@@Z 0040e950 f i schedule_meeting_ui.obj
 0001:0000d950       ??$_Get_unwrapped@ABQAPAVIInterpreterInfo@ZOOMSDK@@@std@@YAPAPAVIInterpreterInfo@ZOOMSDK@@ABQAPAV12@@Z 0040e950 f i schedule_meeting_ui.obj
 0001:0000d950       ??$get@$0A@ABI@std@@YAABI$$QAV?$tuple@ABI@0@@Z 0040e950 f i user_manager.obj
 0001:0000d960       ??$_Uninitialized_move@PAV?$basic_string@_WU?$char_traits@_W@std@@V?$allocator@_W@2@@std@@V?$allocator@V?$basic_string@_WU?$char_traits@_W@std@@V?$allocator@_W@2@@std@@@2@@std@@YAPAV?$basic_string@_WU?$char_traits@_W@std@@V?$allocator@_W@2@@0@QAV10@0PAV10@AAV?$allocator@V?$basic_string@_WU?$char_traits@_W@std@@V?$allocator@_W@2@@std@@@0@@Z 0040e960 f i custom_ui_share_flow.obj
 0001:0000da10       ??$construct@V?$basic_string@_WU?$char_traits@_W@std@@V?$allocator@_W@2@@std@@V12@@?$_Default_allocator_traits@V?$allocator@V?$basic_string@_WU?$char_traits@_W@std@@V?$allocator@_W@2@@std@@@std@@@std@@SAXAAV?$allocator@V?$basic_string@_WU?$char_traits@_W@std@@V?$allocator@_W@2@@std@@@1@QAV?$basic_string@_WU?$char_traits@_W@std@@V?$allocator@_W@2@@1@$$QAV31@@Z 0040ea10 f i custom_ui_share_flow.obj
 0001:0000da40       ??$destroy@V?$basic_string@_WU?$char_traits@_W@std@@V?$allocator@_W@2@@std@@@?$_Default_allocator_traits@V?$allocator@V?$basic_string@_WU?$char_traits@_W@std@@V?$allocator@_W@2@@std@@@std@@@std@@SAXAAV?$allocator@V?$basic_string@_WU?$char_traits@_W@std@@V?$allocator@_W@2@@std@@@1@QAV?$basic_string@_WU?$char_traits@_W@std@@V?$allocator@_W@2@@1@@Z 0040ea40 f i custom_ui_share_flow.obj
 0001:0000da50       ??$emplace_back@V?$basic_string@_WU?$char_traits@_W@std@@V?$allocator@_W@2@@std@@@?$vector@V?$basic_string@_WU?$char_traits@_W@std@@V?$allocator@_W@2@@std@@V?$allocator@V?$basic_string@_WU?$char_traits@_W@std@@V?$allocator@_W@2@@std@@@2@@std@@QAEX$$QAV?$basic_string@_WU?$char_traits@_W@std@@V?$allocator@_W@2@@1@@Z 0040ea50 f i custom_ui_share_flow.obj
 0001:0000dab0       ??0?$_Uninitialized_backout_al@V?$allocator@V?$basic_string@_WU?$char_traits@_W@std@@V?$allocator@_W@2@@std@@@std@@@std@@QAE@PAV?$basic_string@_WU?$char_traits@_W@std@@V?$allocator@_W@2@@1@AAV?$allocator@V?$basic_string@_WU?$char_traits@_W@std@@V?$allocator@_W@2@@std@@@1@@Z 0040eab0 f i custom_ui_share_flow.obj
 0001:0000dae0       ??0?$_Vector_val@U?$_Simple_types@PAVIUserInfo@ZOOMSDK@@@std@@@std@@QAE@XZ 0040eae0 f i user_manager.obj
 0001:0000dae0       ??0tagCustomizedLanguageInfo@ZOOMSDK@@QAE@XZ 0040eae0 f i sdk_init_auth_ui.obj
 0001:0000dae0       ??0?$_Vector_val@U?$_Simple_types@PAVIAlternativeHostInfo@ZOOMSDK@@@std@@@std@@QAE@XZ 0040eae0 f i schedule_meeting_ui.obj
 0001:0000dae0       ??0?$_Vector_val@U?$_Simple_types@PAVIInterpreterInfo@ZOOMSDK@@@std@@@std@@QAE@XZ 0040eae0 f i schedule_meeting_ui.obj
 0001:0000dae0       ??0?$_Vector_val@U?$_Simple_types@V?$basic_string@_WU?$char_traits@_W@std@@V?$allocator@_W@2@@std@@@std@@@std@@QAE@XZ 0040eae0 f i custom_ui_share_flow.obj
 0001:0000dae0       ??0?$_Vector_val@U?$_Simple_types@PAVIVirtualBGImageInfo@ZOOMSDK@@@std@@@std@@QAE@XZ 0040eae0 f i settings_ui.obj
 0001:0000db10       ??0?$vector@V?$basic_string@_WU?$char_traits@_W@std@@V?$allocator@_W@2@@std@@V?$allocator@V?$basic_string@_WU?$char_traits@_W@std@@V?$allocator@_W@2@@std@@@2@@std@@QAE@XZ 0040eb10 f i custom_ui_share_flow.obj
 0001:0000db10       ??0?$vector@PAVIAlternativeHostInfo@ZOOMSDK@@V?$allocator@PAVIAlternativeHostInfo@ZOOMSDK@@@std@@@std@@QAE@XZ 0040eb10 f i schedule_meeting_ui.obj
 0001:0000db10       ??0?$vector@PAVIInterpreterInfo@ZOOMSDK@@V?$allocator@PAVIInterpreterInfo@ZOOMSDK@@@std@@@std@@QAE@XZ 0040eb10 f i schedule_meeting_ui.obj
 0001:0000db10       ??0?$vector@PAVIUserInfo@ZOOMSDK@@V?$allocator@PAVIUserInfo@ZOOMSDK@@@std@@@std@@QAE@XZ 0040eb10 f i user_manager.obj
 0001:0000db10       ??0?$vector@PAVIVirtualBGImageInfo@ZOOMSDK@@V?$allocator@PAVIVirtualBGImageInfo@ZOOMSDK@@@std@@@std@@QAE@XZ 0040eb10 f i settings_ui.obj
 0001:0000db40       ??0?$_Tree_val@U?$_Tree_simple_types@PAVIAuthServiceEvent@ZOOMSDK@@@std@@@std@@QAE@XZ 0040eb40 f   sdk_util.obj
 0001:0000db40       ??0?$_Tree_val@U?$_Tree_simple_types@PAVIClosedCaptionControllerEvent@ZOOMSDK@@@std@@@std@@QAE@XZ 0040eb40 f   sdk_util.obj
 0001:0000db40       ??0?$_Tree_val@U?$_Tree_simple_types@PAVIMeetingChatCtrlEvent@ZOOMSDK@@@std@@@std@@QAE@XZ 0040eb40 f   sdk_util.obj
 0001:0000db40       ??0?$_Tree_val@U?$_Tree_simple_types@PAVIMeetingServiceEvent@ZOOMSDK@@@std@@@std@@QAE@XZ 0040eb40 f   sdk_util.obj
 0001:0000db40       ??0?$_List_val@U?$_List_simple_types@H@std@@@std@@QAE@XZ 0040eb40 f   participant_ui.obj
 0001:0000db40       ??0?$_Tree_val@U?$_Tree_simple_types@U?$pair@$$CBIPAVIUserInfo@ZOOMSDK@@@std@@@std@@@std@@QAE@XZ 0040eb40 f   user_manager.obj
 0001:0000db40       ??0?$_Tree_val@U?$_Tree_simple_types@PAVIMeetingVideoCtrlEvent@ZOOMSDK@@@std@@@std@@QAE@XZ 0040eb40 f   sdk_util.obj
 0001:0000db40       ??0?$_Tree_val@U?$_Tree_simple_types@PAVISDKInMeetingServiceMgrEvent@@@std@@@std@@QAE@XZ 0040eb40 f   sdk_util.obj
 0001:0000db40       ??0?$_Tree_val@U?$_Tree_simple_types@PAVIPreMeetingServiceEvent@ZOOMSDK@@@std@@@std@@QAE@XZ 0040eb40 f   sdk_util.obj
 0001:0000db40       ??0?$_Tree_val@U?$_Tree_simple_types@U?$pair@$$CBHW4bkItemType@@@std@@@std@@@std@@QAE@XZ 0040eb40 f   settings_ui.obj
 0001:0000db40       ??0?$_Tree_val@U?$_Tree_simple_types@PAVIMeetingParticipantsCtrlEvent@ZOOMSDK@@@std@@@std@@QAE@XZ 0040eb40 f   sdk_util.obj
 0001:0000db40       ??0CCustomizeUIShareFlow@@QAE@XZ 0040eb40 f   custom_ui_share_flow.obj
 0001:0000db70       ??1?$_Uninitialized_backout_al@V?$allocator@V?$basic_string@_WU?$char_traits@_W@std@@V?$allocator@_W@2@@std@@@std@@@std@@QAE@XZ 0040eb70 f i custom_ui_share_flow.obj
 0001:0000dba0       ??1?$vector@V?$basic_string@_WU?$char_traits@_W@std@@V?$allocator@_W@2@@std@@V?$allocator@V?$basic_string@_WU?$char_traits@_W@std@@V?$allocator@_W@2@@std@@@2@@std@@QAE@XZ 0040eba0 f i custom_ui_share_flow.obj
 0001:0000dbc0       ??4?$basic_string@_WU?$char_traits@_W@std@@V?$allocator@_W@2@@std@@QAEAAV01@ABV01@@Z 0040ebc0 f i custom_ui_share_flow.obj
 0001:0000dc00       ??A?$vector@V?$basic_string@_WU?$char_traits@_W@std@@V?$allocator@_W@2@@std@@V?$allocator@V?$basic_string@_WU?$char_traits@_W@std@@V?$allocator@_W@2@@std@@@2@@std@@QAEAAV?$basic_string@_WU?$char_traits@_W@std@@V?$allocator@_W@2@@1@I@Z 0040ec00 f i custom_ui_share_flow.obj
 0001:0000dc20       ??_G?$basic_string@_WU?$char_traits@_W@std@@V?$allocator@_W@2@@std@@QAEPAXI@Z 0040ec20 f i custom_ui_share_flow.obj
 0001:0000dc50       ?GetMeetingShareController@CCustomizeUIShareFlow@@QAEPAVIMeetingShareController@ZOOMSDK@@XZ 0040ec50 f   custom_ui_share_flow.obj
 0001:0000dc90       ?HandleWindowsMoveMsg@CCustomizeUIShareFlow@@QAE?AW4SDKError@ZOOMSDK@@XZ 0040ec90 f   custom_ui_share_flow.obj
 0001:0000dcc0       ?Hide@CCustomizeUIShareFlow@@QAE?AW4SDKError@ZOOMSDK@@XZ 0040ecc0 f   custom_ui_share_flow.obj
 0001:0000dcf0       ?IsMeetingServiceReady@CCustomizeUIShareFlow@@AAE_NXZ 0040ecf0 f   custom_ui_share_flow.obj
 0001:0000dd30       ?MyInfoEnumProc@@YGHPAUHMONITOR__@@PAUHDC__@@PAUtagRECT@@J@Z 0040ed30 f   custom_ui_share_flow.obj
 0001:0000dde0       ?Resize@CCustomizeUIShareFlow@@QAE?AW4SDKError@ZOOMSDK@@UtagRECT@@@Z 0040ede0 f   custom_ui_share_flow.obj
 0001:0000de30       ?SetEvent@CCustomizeUIShareFlow@@QAE?AW4SDKError@ZOOMSDK@@PAVICustomizedShareRenderEvent@3@@Z 0040ee30 f   custom_ui_share_flow.obj
 0001:0000de60       ?SetShareRender@CCustomizeUIShareFlow@@QAEXPAVICustomizedShareRender@ZOOMSDK@@@Z 0040ee60 f   custom_ui_share_flow.obj
 0001:0000de60       ?SetVideoContainer@CCustomizeUIVideoFlow@@QAEXPAVICustomizedVideoContainer@ZOOMSDK@@@Z 0040ee60 f   custom_ui_video_flow.obj
 0001:0000de80       ?SetUserID@CCustomizeUIShareFlow@@QAE?AW4SDKError@ZOOMSDK@@I@Z 0040ee80 f   custom_ui_share_flow.obj
 0001:0000dec0       ?Show@CCustomizeUIShareFlow@@QAE?AW4SDKError@ZOOMSDK@@XZ 0040eec0 f   custom_ui_share_flow.obj
 0001:0000def0       ?StartShare@CCustomizeUIShareFlow@@QAE?AW4SDKError@ZOOMSDK@@W4SDKShareType@@PAUHWND__@@@Z 0040eef0 f   custom_ui_share_flow.obj
 0001:0000e110       ?StopShare@CCustomizeUIShareFlow@@QAE?AW4SDKError@ZOOMSDK@@XZ 0040f110 f   custom_ui_share_flow.obj
 0001:0000e1b0       ?_Calculate_growth@?$vector@V?$basic_string@_WU?$char_traits@_W@std@@V?$allocator@_W@2@@std@@V?$allocator@V?$basic_string@_WU?$char_traits@_W@std@@V?$allocator@_W@2@@std@@@2@@std@@ABEII@Z 0040f1b0 f i custom_ui_share_flow.obj
 0001:0000e210       ?_Change_array@?$vector@V?$basic_string@_WU?$char_traits@_W@std@@V?$allocator@_W@2@@std@@V?$allocator@V?$basic_string@_WU?$char_traits@_W@std@@V?$allocator@_W@2@@std@@@2@@std@@AAEXQAV?$basic_string@_WU?$char_traits@_W@std@@V?$allocator@_W@2@@2@II@Z 0040f210 f i custom_ui_share_flow.obj
 0001:0000e2b0       ?_Copy_assign@?$basic_string@_WU?$char_traits@_W@std@@V?$allocator@_W@2@@std@@AAEXABV12@U?$integral_constant@_N$0A@@2@@Z 0040f2b0 f i custom_ui_share_flow.obj
 0001:0000e2f0       ?_Destroy@?$vector@V?$basic_string@_WU?$char_traits@_W@std@@V?$allocator@_W@2@@std@@V?$allocator@V?$basic_string@_WU?$char_traits@_W@std@@V?$allocator@_W@2@@std@@@2@@std@@AAEXPAV?$basic_string@_WU?$char_traits@_W@std@@V?$allocator@_W@2@@2@0@Z 0040f2f0 f i custom_ui_share_flow.obj
 0001:0000e320       ?_Release@?$_Uninitialized_backout_al@V?$allocator@V?$basic_string@_WU?$char_traits@_W@std@@V?$allocator@_W@2@@std@@@std@@@std@@QAEPAV?$basic_string@_WU?$char_traits@_W@std@@V?$allocator@_W@2@@2@XZ 0040f320 f i custom_ui_share_flow.obj
 0001:0000e340       ?_Tidy@?$vector@V?$basic_string@_WU?$char_traits@_W@std@@V?$allocator@_W@2@@std@@V?$allocator@V?$basic_string@_WU?$char_traits@_W@std@@V?$allocator@_W@2@@std@@@2@@std@@AAEXXZ 0040f340 f i custom_ui_share_flow.obj
 0001:0000e410       ?_Umove@?$vector@V?$basic_string@_WU?$char_traits@_W@std@@V?$allocator@_W@2@@std@@V?$allocator@V?$basic_string@_WU?$char_traits@_W@std@@V?$allocator@_W@2@@std@@@2@@std@@AAEPAV?$basic_string@_WU?$char_traits@_W@std@@V?$allocator@_W@2@@2@PAV32@00@Z 0040f410 f i custom_ui_share_flow.obj
 0001:0000e440       ?_Umove_if_noexcept1@?$vector@V?$basic_string@_WU?$char_traits@_W@std@@V?$allocator@_W@2@@std@@V?$allocator@V?$basic_string@_WU?$char_traits@_W@std@@V?$allocator@_W@2@@std@@@2@@std@@AAEXPAV?$basic_string@_WU?$char_traits@_W@std@@V?$allocator@_W@2@@2@00U?$integral_constant@_N$00@2@@Z 0040f440 f i custom_ui_share_flow.obj
 0001:0000e470       ?_Umove_if_noexcept@?$vector@V?$basic_string@_WU?$char_traits@_W@std@@V?$allocator@_W@2@@std@@V?$allocator@V?$basic_string@_WU?$char_traits@_W@std@@V?$allocator@_W@2@@std@@@2@@std@@AAEXPAV?$basic_string@_WU?$char_traits@_W@std@@V?$allocator@_W@2@@2@00@Z 0040f470 f i custom_ui_share_flow.obj
 0001:0000e4a0       ?_Xlength@?$vector@PAVIAlternativeHostInfo@ZOOMSDK@@V?$allocator@PAVIAlternativeHostInfo@ZOOMSDK@@@std@@@std@@CAXXZ 0040f4a0 f i schedule_meeting_ui.obj
 0001:0000e4a0       ?_Xlength@?$vector@V?$basic_string@_WU?$char_traits@_W@std@@V?$allocator@_W@2@@std@@V?$allocator@V?$basic_string@_WU?$char_traits@_W@std@@V?$allocator@_W@2@@std@@@2@@std@@CAXXZ 0040f4a0 f i custom_ui_share_flow.obj
 0001:0000e4a0       ?_Xlength@?$vector@PAVIUserInfo@ZOOMSDK@@V?$allocator@PAVIUserInfo@ZOOMSDK@@@std@@@std@@CAXXZ 0040f4a0 f i user_manager.obj
 0001:0000e4a0       ?_Xlength@?$vector@PAVIInterpreterInfo@ZOOMSDK@@V?$allocator@PAVIInterpreterInfo@ZOOMSDK@@@std@@@std@@CAXXZ 0040f4a0 f i schedule_meeting_ui.obj
 0001:0000e4a0       ?_Xlength@?$vector@PAVIVirtualBGImageInfo@ZOOMSDK@@V?$allocator@PAVIVirtualBGImageInfo@ZOOMSDK@@@std@@@std@@CAXXZ 0040f4a0 f i settings_ui.obj
 0001:0000e4b0       ?allocate@?$allocator@U?$_Tree_node@U?$pair@$$CBHW4bkItemType@@@std@@PAX@std@@@std@@QAEPAU?$_Tree_node@U?$pair@$$CBHW4bkItemType@@@std@@PAX@2@I@Z 0040f4b0 f i settings_ui.obj
 0001:0000e4b0       ?allocate@?$allocator@V?$basic_string@_WU?$char_traits@_W@std@@V?$allocator@_W@2@@std@@@std@@QAEPAV?$basic_string@_WU?$char_traits@_W@std@@V?$allocator@_W@2@@2@I@Z 0040f4b0 f i custom_ui_share_flow.obj
 0001:0000e4b0       ?allocate@?$allocator@U?$_Tree_node@U?$pair@$$CBIPAVIUserInfo@ZOOMSDK@@@std@@PAX@std@@@std@@QAEPAU?$_Tree_node@U?$pair@$$CBIPAVIUserInfo@ZOOMSDK@@@std@@PAX@2@I@Z 0040f4b0 f i user_manager.obj
 0001:0000e4e0       ?capacity@?$vector@V?$basic_string@_WU?$char_traits@_W@std@@V?$allocator@_W@2@@std@@V?$allocator@V?$basic_string@_WU?$char_traits@_W@std@@V?$allocator@_W@2@@std@@@2@@std@@QBEIXZ 0040f4e0 f i custom_ui_share_flow.obj
 0001:0000e510       ?deallocate@?$allocator@U?$_Tree_node@U?$pair@$$CBIPAVIUserInfo@ZOOMSDK@@@std@@PAX@std@@@std@@QAEXQAU?$_Tree_node@U?$pair@$$CBIPAVIUserInfo@ZOOMSDK@@@std@@PAX@2@I@Z 0040f510 f i user_manager.obj
 0001:0000e510       ?deallocate@?$allocator@U?$_Tree_node@U?$pair@$$CBHW4bkItemType@@@std@@PAX@std@@@std@@QAEXQAU?$_Tree_node@U?$pair@$$CBHW4bkItemType@@@std@@PAX@2@I@Z 0040f510 f i settings_ui.obj
 0001:0000e510       ?deallocate@?$allocator@V?$basic_string@_WU?$char_traits@_W@std@@V?$allocator@_W@2@@std@@@std@@QAEXQAV?$basic_string@_WU?$char_traits@_W@std@@V?$allocator@_W@2@@2@I@Z 0040f510 f i custom_ui_share_flow.obj
 0001:0000e530       ?max_size@?$_Default_allocator_traits@V?$allocator@U?$_Tree_node@U?$pair@$$CBHW4bkItemType@@@std@@PAX@std@@@std@@@std@@SAIABV?$allocator@U?$_Tree_node@U?$pair@$$CBHW4bkItemType@@@std@@PAX@std@@@2@@Z 0040f530 f i settings_ui.obj
 0001:0000e530       ?max_size@?$_Default_allocator_traits@V?$allocator@U?$_Tree_node@U?$pair@$$CBIPAVIUserInfo@ZOOMSDK@@@std@@PAX@std@@@std@@@std@@SAIABV?$allocator@U?$_Tree_node@U?$pair@$$CBIPAVIUserInfo@ZOOMSDK@@@std@@PAX@std@@@2@@Z 0040f530 f i user_manager.obj
 0001:0000e530       ?max_size@?$_Default_allocator_traits@V?$allocator@V?$basic_string@_WU?$char_traits@_W@std@@V?$allocator@_W@2@@std@@@std@@@std@@SAIABV?$allocator@V?$basic_string@_WU?$char_traits@_W@std@@V?$allocator@_W@2@@std@@@2@@Z 0040f530 f i custom_ui_share_flow.obj
 0001:0000e540       ?max_size@?$vector@V?$basic_string@_WU?$char_traits@_W@std@@V?$allocator@_W@2@@std@@V?$allocator@V?$basic_string@_WU?$char_traits@_W@std@@V?$allocator@_W@2@@std@@@2@@std@@QBEIXZ 0040f540 f i custom_ui_share_flow.obj
 0001:0000e540       ?max_size@?$_Tree@V?$_Tmap_traits@IPAVIUserInfo@ZOOMSDK@@U?$less@I@std@@V?$allocator@U?$pair@$$CBIPAVIUserInfo@ZOOMSDK@@@std@@@4@$0A@@std@@@std@@QBEIXZ 0040f540 f i user_manager.obj
 0001:0000e540       ?max_size@?$_Tree@V?$_Tmap_traits@HW4bkItemType@@U?$less@H@std@@V?$allocator@U?$pair@$$CBHW4bkItemType@@@std@@@3@$0A@@std@@@std@@QBEIXZ 0040f540 f i settings_ui.obj
 0001:0000e580       ?push_back@?$vector@V?$basic_string@_WU?$char_traits@_W@std@@V?$allocator@_W@2@@std@@V?$allocator@V?$basic_string@_WU?$char_traits@_W@std@@V?$allocator@_W@2@@std@@@2@@std@@QAEX$$QAV?$basic_string@_WU?$char_traits@_W@std@@V?$allocator@_W@2@@2@@Z 0040f580 f i custom_ui_share_flow.obj
 0001:0000e5b0       ?size@?$vector@V?$basic_string@_WU?$char_traits@_W@std@@V?$allocator@_W@2@@std@@V?$allocator@V?$basic_string@_WU?$char_traits@_W@std@@V?$allocator@_W@2@@std@@@2@@std@@QBEIXZ 0040f5b0 f i custom_ui_share_flow.obj
 0001:0000e5e0       ??0CCustomizeUIShareMgr@@QAE@PAVCCustomizeInMeetingUIMgr@@@Z 0040f5e0 f   custom_ui_share_mgr.obj
 0001:0000e630       ??0CCustomizeUIShareRenderUI@@QAE@PAVCCustomizeUIShareMgr@@@Z 0040f630 f   custom_ui_share_mgr.obj
 0001:0000e660       ??0CCustomizeUIShareSelectUI@@QAE@PAVCCustomizeUIShareMgr@@@Z 0040f660 f   custom_ui_share_mgr.obj
 0001:0000e700       ??0CRect@@QAE@HHHH@Z       0040f700 f i custom_ui_share_mgr.obj
 0001:0000e700       ??0CDuiRect@DuiLib@@QAE@JJJJ@Z 0040f700 f i DuiLib:Utils.obj
 0001:0000e740       ??1CCustomizeUIShareRenderUI@@QAE@XZ 0040f740 f   custom_ui_share_mgr.obj
 0001:0000e760       ??1CCustomizeUIShareSelectUI@@QAE@XZ 0040f760 f   custom_ui_share_mgr.obj
 0001:0000e7a0       ??_GCCustomizeUIShareRenderUI@@QAEPAXI@Z 0040f7a0 f i custom_ui_share_mgr.obj
 0001:0000e7d0       ??_GCCustomizeUIShareSelectUI@@QAEPAXI@Z 0040f7d0 f i custom_ui_share_mgr.obj
 0001:0000e810       ??_GShareToolbarWindow@@QAEPAXI@Z 0040f810 f i custom_ui_share_mgr.obj
 0001:0000e850       ??_GViewOptionsWindow@@QAEPAXI@Z 0040f850 f i custom_ui_share_mgr.obj
 0001:0000e890       ?AddToAppList@CCustomizeUIShareSelectUI@@QAEXPAUHWND__@@@Z 0040f890 f   custom_ui_share_mgr.obj
 0001:0000ead0       ?AdjustListUIPos@CCustomizeUIShareSelectUI@@AAEXXZ 0040fad0 f   custom_ui_share_mgr.obj
 0001:0000ec00       ?CreateCustomShareRender@CCustomizeUIShareMgr@@QAEXPAVICustomizedUIMgr@ZOOMSDK@@@Z 0040fc00 f   custom_ui_share_mgr.obj
 0001:0000ed10       ?CreateSelectShareUI@CCustomizeUIShareMgr@@AAEXXZ 0040fd10 f   custom_ui_share_mgr.obj
 0001:0000ee10       ?CreateShareRenderUI@CCustomizeUIShareMgr@@AAEXXZ 0040fe10 f   custom_ui_share_mgr.obj
 0001:0000eec0       ?DestroyAllShareWindows@CCustomizeUIShareMgr@@QAEXXZ 0040fec0 f   custom_ui_share_mgr.obj
 0001:0000eef0       ?DestroyCustomShareRender@CCustomizeUIShareMgr@@QAEXXZ 0040fef0 f   custom_ui_share_mgr.obj
 0001:0000ef50       ?DestroySelectShareUI@CCustomizeUIShareMgr@@AAEXXZ 0040ff50 f   custom_ui_share_mgr.obj
 0001:0000efc0       ?DestroyShareRenderUI@CCustomizeUIShareMgr@@AAEXXZ 0040ffc0 f   custom_ui_share_mgr.obj
 0001:0000f030       ?DestroyShareToolbarWindow@CCustomizeUIShareMgr@@QAEXXZ 00410030 f   custom_ui_share_mgr.obj
 0001:0000f080       ?DestroyViewOptionsWindow@CCustomizeUIShareMgr@@QAEXXZ 00410080 f   custom_ui_share_mgr.obj
 0001:0000f0d0       ?DoShareButtonClick@CCustomizeUIShareSelectUI@@AAEXW4SDKShareType@@@Z 004100d0 f   custom_ui_share_mgr.obj
 0001:0000f110       ?EnumAllWindows@CCustomizeUIShareSelectUI@@QAEXXZ 00410110 f   custom_ui_share_mgr.obj
 0001:0000f130       ?EnumWindowsProc@@YGHPAUHWND__@@J@Z 00410130 f   custom_ui_share_mgr.obj
 0001:0000f190       ?GetShareContentSender@CCustomizeUIShareMgr@@AAEIXZ 00410190 f   custom_ui_share_mgr.obj
 0001:0000f210       ?GetSkinRes@CCustomizeUIShareSelectUI@@UAEIXZ 00410210 f i custom_ui_share_mgr.obj
 0001:0000f220       ?HandleDestroyWindow@CCustomizeUIShareRenderUI@@QAEXXZ 00410220 f   custom_ui_share_mgr.obj
 0001:0000f240       ?HandleMessage@CCustomizeUIShareSelectUI@@UAEJIIJ@Z 00410240 f   custom_ui_share_mgr.obj
 0001:0000f410       ?HandleRenderUIDestroyed@CCustomizeUIShareMgr@@QAEXXZ 00410410 f   custom_ui_share_mgr.obj
 0001:0000f430       ?HandleShareRenderDestroyed@CCustomizeUIShareMgr@@QAEXPAVICustomizedShareRender@ZOOMSDK@@@Z 00410430 f   custom_ui_share_mgr.obj
 0001:0000f460       ?HandleShareRenderWindowMsgNotification@CCustomizeUIShareMgr@@QAEXIIJ@Z 00410460 f   custom_ui_share_mgr.obj
 0001:0000f4e0       ?HandleSharingShareAnnotationStatusChanged@CCustomizeUIShareMgr@@QAEXPAVICustomizedShareRender@ZOOMSDK@@W4CustomizedShareAnnotationStatus@3@@Z 004104e0 f   custom_ui_share_mgr.obj
 0001:0000f500       ?HandleSharingStatus@CCustomizeUIShareMgr@@QAEXW4SharingStatus@ZOOMSDK@@I@Z 00410500 f   custom_ui_share_mgr.obj
 0001:0000f640       ?HandleSizeChanged@CCustomizeUIShareMgr@@QAEXAAUtagRECT@@@Z 00410640 f   custom_ui_share_mgr.obj
 0001:0000f680       ?HandleUserChanged@CCustomizeUIShareMgr@@QAEXXZ 00410680 f   custom_ui_share_mgr.obj
 0001:0000f6a0       ?HandleWindowMoveMsg@CCustomizeUIShareMgr@@QAEXXZ 004106a0 f   custom_ui_share_mgr.obj
 0001:0000f6c0       ?GetHeight@CDuiRect@DuiLib@@QBEHXZ 004106c0 f i DuiLib:Utils.obj
 0001:0000f6c0       ?Height@CRect@@QBEHXZ      004106c0 f i custom_ui_share_mgr.obj
 0001:0000f6e0       ?HideMe@CCustomizeUIShareRenderUI@@QAEXXZ 004106e0 f   custom_ui_share_mgr.obj
 0001:0000f720       ?Init@CCustomizeUIShareMgr@@QAEXXZ 00410720 f   custom_ui_share_mgr.obj
 0001:0000f780       ?InitAppList@CCustomizeUIShareSelectUI@@QAEXXZ 00410780 f   custom_ui_share_mgr.obj
 0001:0000f7e0       ?InitWindow@CCustomizeUIShareRenderUI@@QAEXXZ 004107e0 f   custom_ui_share_mgr.obj
 0001:0000f830       ?InitWindow@CCustomizeUIShareSelectUI@@UAEXXZ 00410830 f   custom_ui_share_mgr.obj
 0001:0000f9d0       ?IsInSendShareMode@CCustomizeUIShareMgr@@QAE_NXZ 004109d0 f   custom_ui_share_mgr.obj
 0001:0000f9f0       ?Notify@CCustomizeUIShareSelectUI@@UAEXAAUtagTNotifyUI@DuiLib@@@Z 004109f0 f   custom_ui_share_mgr.obj
 0001:0000fb80       ?SetDefaultRenderPos@CCustomizeUIShareRenderUI@@QAEXXZ 00410b80 f   custom_ui_share_mgr.obj
 0001:0000fbf0       ?SetEvent@CCustomizeUIShareMgr@@QAEXPAVICustomizedShareRenderEvent@ZOOMSDK@@@Z 00410bf0 f   custom_ui_share_mgr.obj
 0001:0000fc10       ?ShouldWindowBeDisplayed@@YAHPAUHWND__@@J@Z 00410c10 f   custom_ui_share_mgr.obj
 0001:0000fd70       ?ShowMe@CCustomizeUIShareRenderUI@@QAEXXZ 00410d70 f   custom_ui_share_mgr.obj
 0001:0000fdb0       ?ShowNextShareContent@CCustomizeUIShareMgr@@AAEXI@Z 00410db0 f   custom_ui_share_mgr.obj
 0001:0000feb0       ?ShowSelectShareUI@CCustomizeUIShareMgr@@QAEXXZ 00410eb0 f   custom_ui_share_mgr.obj
 0001:0000ff20       ?ShowShareToolbarWindow@CCustomizeUIShareMgr@@QAEX_N@Z 00410f20 f   custom_ui_share_mgr.obj
 0001:00010010       ?ShowSharedContent@CCustomizeUIShareMgr@@QAEXXZ 00411010 f   custom_ui_share_mgr.obj
 0001:00010040       ?ShowViewOptionsWindow@CCustomizeUIShareMgr@@QAEX_N@Z 00411040 f   custom_ui_share_mgr.obj
 0001:00010130       ?StartShare@CCustomizeUIShareMgr@@QAEXW4SDKShareType@@PAUHWND__@@@Z 00411130 f   custom_ui_share_mgr.obj
 0001:00010170       ?StopShare@CCustomizeUIShareMgr@@QAEXXZ 00411170 f   custom_ui_share_mgr.obj
 0001:000101a0       ?Width@CRect@@QBEHXZ       004111a0 f i custom_ui_share_mgr.obj
 0001:000101c0       ?onDestroyed@CCustomizeUIShareRenderUI@@UAEXXZ 004111c0 f   custom_ui_share_mgr.obj
 0001:000101e0       ?onMove@CCustomizeUIShareRenderUI@@UAEXXZ 004111e0 f   custom_ui_share_mgr.obj
 0001:00010200       ?onRemoteControlStatus@CCustomizeUIShareMgr@@QAEXW4RemoteControlStatus@ZOOMSDK@@I@Z 00411200 f   custom_ui_share_mgr.obj
 0001:00010430       ?onSelectShareUIClosed@CCustomizeUIShareMgr@@QAEXXZ 00411430 f   custom_ui_share_mgr.obj
 0001:00010450       ?onSize@CCustomizeUIShareRenderUI@@UAEXAAUtagRECT@@@Z 00411450 f   custom_ui_share_mgr.obj
 0001:00010480       ?uninit@CCustomizeUIShareMgr@@QAEXXZ 00411480 f   custom_ui_share_mgr.obj
 0001:000104b0       ___local_stdio_scanf_options 004114b0 f i custom_ui_share_mgr.obj
 0001:000104c0       __vswscanf_s_l             004114c0 f i custom_ui_share_mgr.obj
 0001:000104f0       _swscanf_s                 004114f0 f i custom_ui_share_mgr.obj
 0001:00010530       ??0CCustomizeUIVideoFlow@@QAE@XZ 00411530 f   custom_ui_video_flow.obj
 0001:00010550       ?CreateVideoElementFlow@CCustomizeUIVideoFlow@@QAE?AW4SDKError@ZOOMSDK@@PAPAVIVideoRenderElement@3@W4VideoRenderElementType@3@@Z 00411550 f   custom_ui_video_flow.obj
 0001:000105a0       ?DestroryVideoElementFlow@CCustomizeUIVideoFlow@@QAE?AW4SDKError@ZOOMSDK@@PAVIVideoRenderElement@3@@Z 004115a0 f   custom_ui_video_flow.obj
 0001:000105f0       ?HandleSizeChanged@CCustomizeUIVideoFlow@@QAE?AW4SDKError@ZOOMSDK@@UtagRECT@@@Z 004115f0 f   custom_ui_video_flow.obj
 0001:00010640       ?HidePreviewVideo@CCustomizeUIVideoFlow@@QAE?AW4SDKError@ZOOMSDK@@PAVIPreviewVideoRenderElement@3@@Z 00411640 f   custom_ui_video_flow.obj
 0001:00010640       ?HideActiveViewVideo@CCustomizeUIVideoFlow@@QAE?AW4SDKError@ZOOMSDK@@PAVIActiveVideoRenderElement@3@@Z 00411640 f   custom_ui_video_flow.obj
 0001:00010680       ?HideGalleryViewVideo@CCustomizeUIVideoFlow@@QAE?AW4SDKError@ZOOMSDK@@PAVINormalVideoRenderElement@3@@Z 00411680 f   custom_ui_video_flow.obj
 0001:000106c0       ?Reset@CCustomizeUIVideoFlow@@QAEXXZ 004116c0 f   custom_ui_video_flow.obj
 0001:000106e0       ?Show@CCustomizeUIVideoFlow@@QAEXXZ 004116e0 f   custom_ui_video_flow.obj
 0001:00010710       ?ShowPreviewVideo@CCustomizeUIVideoFlow@@QAE?AW4SDKError@ZOOMSDK@@PAVIPreviewVideoRenderElement@3@UtagRECT@@@Z 00411710 f   custom_ui_video_flow.obj
 0001:00010710       ?ShowActiveViewVideo@CCustomizeUIVideoFlow@@QAE?AW4SDKError@ZOOMSDK@@PAVIActiveVideoRenderElement@3@UtagRECT@@@Z 00411710 f   custom_ui_video_flow.obj
 0001:00010780       ?ShowGalleryViewVideo@CCustomizeUIVideoFlow@@QAE?AW4SDKError@ZOOMSDK@@PAVINormalVideoRenderElement@3@UtagRECT@@@Z 00411780 f   custom_ui_video_flow.obj
 0001:00010810       ??0CCustomizeUIVideoMgr@@QAE@PAVCCustomizeInMeetingUIMgr@@@Z 00411810 f   custom_ui_video_mgr.obj
 0001:00010840       ?CalculateCountInOnePages@CCustomizeUIVideoMgr@@AAEXXZ 00411840 f   custom_ui_video_mgr.obj
 0001:000108b0       ?CalculateCurrentActiveViewRect@CCustomizeUIVideoMgr@@AAEXXZ 004118b0 f   custom_ui_video_mgr.obj
 0001:00010980       ?CalculateCurrentGalleryViewRect@CCustomizeUIVideoMgr@@AAEXXZ 00411980 f   custom_ui_video_mgr.obj
 0001:00010a50       ?CalculateTotalPages@CCustomizeUIVideoMgr@@AAEXXZ 00411a50 f   custom_ui_video_mgr.obj
 0001:00010ae0       ?CalulateViewRect@CCustomizeUIVideoMgr@@QAEXXZ 00411ae0 f   custom_ui_video_mgr.obj
 0001:00010b00       ?CreateCustomVideoContainer@CCustomizeUIVideoMgr@@QAEXPAVICustomizedUIMgr@ZOOMSDK@@PAUHWND__@@UtagRECT@@@Z 00411b00 f   custom_ui_video_mgr.obj
 0001:00010c00       ?CreateGalleryViewVideo@CCustomizeUIVideoMgr@@QAEXXZ 00411c00 f   custom_ui_video_mgr.obj
 0001:00010c80       ?DestroyActiveViewVideo@CCustomizeUIVideoMgr@@QAEXXZ 00411c80 f   custom_ui_video_mgr.obj
 0001:00010cd0       ?DestroyCustomVideoContainer@CCustomizeUIVideoMgr@@AAEXXZ 00411cd0 f   custom_ui_video_mgr.obj
 0001:00010d20       ?DestroyGalleryViewVideo@CCustomizeUIVideoMgr@@QAEXXZ 00411d20 f   custom_ui_video_mgr.obj
 0001:00010da0       ?DestroyPreviewVideo@CCustomizeUIVideoMgr@@QAEXXZ 00411da0 f   custom_ui_video_mgr.obj
 0001:00010df0       ?GetCurrentAcviteViewRect@CCustomizeUIVideoMgr@@QAE?AUtagRECT@@XZ 00411df0 f   custom_ui_video_mgr.obj
 0001:00010e20       ?GetCurrentGalleryViewRect@CCustomizeUIVideoMgr@@QAE?AUtagRECT@@XZ 00411e20 f   custom_ui_video_mgr.obj
 0001:00010e50       ?HandleSizeChanged@CCustomizeUIVideoMgr@@QAEXUtagRECT@@@Z 00411e50 f   custom_ui_video_mgr.obj
 0001:00010e90       ?HandleSwitchGalleryPage@CCustomizeUIVideoMgr@@QAEXW4ArrowButtonType@@@Z 00411e90 f   custom_ui_video_mgr.obj
 0001:00010ee0       ?HandleUserChanged@CCustomizeUIVideoMgr@@QAEXXZ 00411ee0 f   custom_ui_video_mgr.obj
 0001:00010f10       ?HandleVideoRenderElementDestroyed@CCustomizeUIVideoMgr@@QAEXPAVIVideoRenderElement@ZOOMSDK@@@Z 00411f10 f   custom_ui_video_mgr.obj
 0001:00010fc0       ?HideGalleryViewVideo@CCustomizeUIVideoMgr@@QAEXXZ 00411fc0 f   custom_ui_video_mgr.obj
 0001:00011020       ?HidePreviewVideo@CCustomizeUIVideoMgr@@QAEXXZ 00412020 f   custom_ui_video_mgr.obj
 0001:00011050       ?ReSubscribeNormalUser@CCustomizeUIVideoMgr@@AAEXW4GalleryViewSubscribeType@@@Z 00412050 f   custom_ui_video_mgr.obj
 0001:000112b0       ?SetGalleryViewStatus@CCustomizeUIVideoMgr@@QAEX_N@Z 004122b0 f   custom_ui_video_mgr.obj
 0001:000112d0       ?SetParentHWND@CCustomizeUIVideoMgr@@AAEXPAUHWND__@@@Z 004122d0 f i custom_ui_video_mgr.obj
 0001:000112f0       ?Show@CCustomizeUIVideoMgr@@QAEXXZ 004122f0 f   custom_ui_video_mgr.obj
 0001:00011310       ?ShowActiveViewVideo@CCustomizeUIVideoMgr@@QAEXXZ 00412310 f   custom_ui_video_mgr.obj
 0001:000113a0       ?ShowGalleryViewVideo@CCustomizeUIVideoMgr@@QAEXW4GalleryViewSubscribeType@@@Z 004123a0 f   custom_ui_video_mgr.obj
 0001:000114f0       ?ShowPreviewVideo@CCustomizeUIVideoMgr@@QAEXUtagRECT@@@Z 004124f0 f   custom_ui_video_mgr.obj
 0001:000115a0       ?getVideoGalleryCurrPage@CCustomizeUIVideoMgr@@QAEHXZ 004125a0 f   custom_ui_video_mgr.obj
 0001:000115c0       ?getVideoGalleryPage@CCustomizeUIVideoMgr@@QAEHXZ 004125c0 f   custom_ui_video_mgr.obj
 0001:000115e0       ?init@CCustomizeUIVideoMgr@@QAEXXZ 004125e0 f   custom_ui_video_mgr.obj
 0001:00011660       ?uninit@CCustomizeUIVideoMgr@@QAEXXZ 00412660 f   custom_ui_video_mgr.obj
 0001:00011690       ??0ClosedCaptionDisplayUI@@QAE@HH@Z 00412690 f   display_cc_ui.obj
 0001:00011700       ??1ClosedCaptionDisplayUI@@UAE@XZ 00412700 f   display_cc_ui.obj
 0001:00011740       ??_GClosedCaptionDisplayUI@@UAEPAXI@Z 00412740 f i display_cc_ui.obj
 0001:00011740       ??_EClosedCaptionDisplayUI@@UAEPAXI@Z 00412740 f i display_cc_ui.obj
 0001:00011780       ?GetWindowClassName@ClosedCaptionDisplayUI@@UBEPB_WXZ 00412780 f i display_cc_ui.obj
 0001:00011780       ?GetWindowClassName@CInvitationUIMgr@@UBEPB_WXZ 00412780 f i invitation_ui.obj
 0001:00011790       ?HandleMessage@ClosedCaptionDisplayUI@@UAEJIIJ@Z 00412790 f   display_cc_ui.obj
 0001:000118d0       ?HandleSizeChanged@ClosedCaptionDisplayUI@@QAEXPAUHWND__@@@Z 004128d0 f   display_cc_ui.obj
 0001:00011960       ?HideWnd@@YGXPAUHWND__@@IIK@Z 00412960 f   display_cc_ui.obj
 0001:00011980       ?Init@ClosedCaptionDisplayUI@@AAEXXZ 00412980 f   display_cc_ui.obj
 0001:00011ae0       ?SetDisplayContent@ClosedCaptionDisplayUI@@QAEXPB_W@Z 00412ae0 f   display_cc_ui.obj
 0001:00011b70       ??0CAuthSDKWorkFlow@@QAE@XZ 00412b70 f   init_auth_sdk_workflow.obj
 0001:00011bb0       ??0CInitSDKWorkFlow@@QAE@XZ 00412bb0 f   init_auth_sdk_workflow.obj
 0001:00011be0       ??0IAuthServiceEvent@ZOOMSDK@@QAE@XZ 00412be0 f i init_auth_sdk_workflow.obj
 0001:00011c00       ??0INetworkConnectionHandler@ZOOMSDK@@QAE@XZ 00412c00 f i init_auth_sdk_workflow.obj
 0001:00011c20       ??1CAuthSDKWorkFlow@@UAE@XZ 00412c20 f   init_auth_sdk_workflow.obj
 0001:00011c90       ??1CInitSDKWorkFlow@@UAE@XZ 00412c90 f   init_auth_sdk_workflow.obj
 0001:00011cb0       ??_ECAuthSDKWorkFlow@@UAEPAXI@Z 00412cb0 f i init_auth_sdk_workflow.obj
 0001:00011cb0       ??_GCAuthSDKWorkFlow@@UAEPAXI@Z 00412cb0 f i init_auth_sdk_workflow.obj
 0001:00011ce0       ??_GCInitSDKWorkFlow@@UAEPAXI@Z 00412ce0 f i init_auth_sdk_workflow.obj
 0001:00011ce0       ??_ECInitSDKWorkFlow@@UAEPAXI@Z 00412ce0 f i init_auth_sdk_workflow.obj
 0001:00011d10       ?Auth@CAuthSDKWorkFlow@@QAE?AW4SDKError@ZOOMSDK@@AAUtagAuthContext@3@@Z 00412d10 f   init_auth_sdk_workflow.obj
 0001:00011d80       ?CleanupSDK@CInitSDKWorkFlow@@QAE?AW4SDKError@ZOOMSDK@@XZ 00412d80 f   init_auth_sdk_workflow.obj
 0001:00011dd0       ?InitSDK@CInitSDKWorkFlow@@QAE?AW4SDKError@ZOOMSDK@@AAUtagInitParam@3@_N@Z 00412dd0 f   init_auth_sdk_workflow.obj
 0001:00011e80       ?onAuthenticationReturn@CAuthSDKWorkFlow@@UAEXW4AuthResult@ZOOMSDK@@@Z 00412e80 f   init_auth_sdk_workflow.obj
 0001:00011eb0       ?onProxyDetectComplete@CInitSDKWorkFlow@@UAEXXZ 00412eb0 f   init_auth_sdk_workflow.obj
 0001:00011ef0       ??0CInvitationUIMgr@@QAE@XZ 00412ef0 f   invitation_ui.obj
 0001:00011fa0       ??1CInvitationUIMgr@@QAE@XZ 00412fa0 f   invitation_ui.obj
 0001:00012000       ?DoClickCopyInviteInfoBtn@CInvitationUIMgr@@IAEXXZ 00413000 f   invitation_ui.obj
 0001:00012130       ?DoClickCopyLinkBtn@CInvitationUIMgr@@IAEXXZ 00413130 f   invitation_ui.obj
 0001:000121a0       ?GetSkinRes@CInvitationUIMgr@@UAEIXZ 004131a0 f i invitation_ui.obj
 0001:000121b0       ?HandleMessage@CInvitationUIMgr@@UAEJIIJ@Z 004131b0 f   invitation_ui.obj
 0001:000123f0       ?InitWindow@CInvitationUIMgr@@IAEXXZ 004133f0 f   invitation_ui.obj
 0001:000125b0       ?Notify@CInvitationUIMgr@@UAEXAAUtagTNotifyUI@DuiLib@@@Z 004135b0 f   invitation_ui.obj
 0001:00012620       ??0CInvitationWorkflow@@QAE@XZ 00413620 f   invitation_workflow.obj
 0001:00012650       ??1CInvitationWorkflow@@UAE@XZ 00413650 f   invitation_workflow.obj
 0001:00012670       ??_GCInvitationWorkflow@@UAEPAXI@Z 00413670 f i invitation_workflow.obj
 0001:00012670       ??_ECInvitationWorkflow@@UAEPAXI@Z 00413670 f i invitation_workflow.obj
 0001:000126a0       ?GetInviteEmailTeamplate@CInvitationWorkflow@@QAEPB_WXZ 004136a0 f   invitation_workflow.obj
 0001:000126d0       ?GetInviteEmailTitle@CInvitationWorkflow@@QAEPB_WXZ 004136d0 f   invitation_workflow.obj
 0001:00012700       ?GetJoinMeetingUrl@CInvitationWorkflow@@QAEPB_WXZ 00413700 f   invitation_workflow.obj
 0001:00012730       ?Init@CInvitationWorkflow@@QAEXXZ 00413730 f   invitation_workflow.obj
 0001:00012770       ??0CSDKJoinMeetingForLoginUserFlowUIEvent@@QAE@XZ 00413770 f i Join_meeting_for_login_user_ui.obj
 0001:00012790       ??0CSDKJoinMeetingForLoginUserUIGroup@@QAE@XZ 00413790 f   Join_meeting_for_login_user_ui.obj
 0001:00012800       ??0CSDKJoinMeetingForLoginUserUIMgr@@QAE@XZ 00413800 f   Join_meeting_for_login_user_ui.obj
 0001:000128a0       ??0tagStartParam@ZOOMSDK@@QAE@XZ 004138a0 f i LoggedIn_sdk_controller_ui.obj
 0001:000128a0       ??0tagJoinParam@ZOOMSDK@@QAE@XZ 004138a0 f i Join_meeting_for_login_user_ui.obj
 0001:000128e0       ??1CSDKJoinMeetingForLoginUserUIGroup@@UAE@XZ 004138e0 f   Join_meeting_for_login_user_ui.obj
 0001:00012950       ??1CSDKJoinMeetingForLoginUserUIMgr@@UAE@XZ 00413950 f   Join_meeting_for_login_user_ui.obj
 0001:000129a0       ??_ECSDKJoinMeetingForLoginUserUIGroup@@UAEPAXI@Z 004139a0 f i Join_meeting_for_login_user_ui.obj
 0001:000129a0       ??_GCSDKJoinMeetingForLoginUserUIGroup@@UAEPAXI@Z 004139a0 f i Join_meeting_for_login_user_ui.obj
 0001:000129d0       ??_ECSDKJoinMeetingForLoginUserUIMgr@@UAEPAXI@Z 004139d0 f i Join_meeting_for_login_user_ui.obj
 0001:000129d0       ??_GCSDKJoinMeetingForLoginUserUIMgr@@UAEPAXI@Z 004139d0 f i Join_meeting_for_login_user_ui.obj
 0001:00012a10       ?DoJoinMeetingBtnClick@CSDKJoinMeetingForLoginUserUIGroup@@QAEXXZ 00413a10 f   Join_meeting_for_login_user_ui.obj
 0001:00012d70       ?GetParent@CToolbarBottom@@QAEPAUHWND__@@XZ 00413d70 f   toolbar_manager.obj
 0001:00012d70       ?GetAppEvent@CSDKJoinMeetingForLoginUserUIMgr@@QAEPAVCSDKDemoAppEvent@@XZ 00413d70 f   Join_meeting_for_login_user_ui.obj
 0001:00012d90       ?GetSkinRes@CSDKJoinMeetingForLoginUserUIMgr@@UAEIXZ 00413d90 f i Join_meeting_for_login_user_ui.obj
 0001:00012da0       ?HandleMessage@CSDKJoinMeetingForLoginUserUIMgr@@UAEJIIJ@Z 00413da0 f   Join_meeting_for_login_user_ui.obj
 0001:00012fa0       ?InitWindow@CSDKJoinMeetingForLoginUserUIGroup@@QAEXAAVCPaintManagerUI@DuiLib@@PAVCSDKJoinMeetingForLoginUserUIMgr@@@Z 00413fa0 f   Join_meeting_for_login_user_ui.obj
 0001:00013030       ?InitWindow@CSDKJoinMeetingForLoginUserUIMgr@@UAEXXZ 00414030 f   Join_meeting_for_login_user_ui.obj
 0001:00013170       ?IsSelectCustomizedUIMode@SDKInterfaceWrap@@QAE_NXZ 00414170 f i Join_meeting_for_login_user_ui.obj
 0001:00013190       ?Notify@CSDKJoinMeetingForLoginUserUIGroup@@QAEXAAUtagTNotifyUI@DuiLib@@@Z 00414190 f   Join_meeting_for_login_user_ui.obj
 0001:000131d0       ?Notify@CSDKJoinMeetingForLoginUserUIMgr@@UAEXAAUtagTNotifyUI@DuiLib@@@Z 004141d0 f   Join_meeting_for_login_user_ui.obj
 0001:000131f0       ?OnDestroy@CSDKJoinMeetingForLoginUserUIMgr@@QAEJIIJAAH@Z 004141f0 f   Join_meeting_for_login_user_ui.obj
 0001:00013210       ?SetParent@CToolbarBottom@@QAEXPAUHWND__@@@Z 00414210 f   toolbar_bottom_ui.obj
 0001:00013210       ?SetEvent@CSDKJoinMeetingForLoginUserUIMgr@@QAEXPAVCSDKDemoAppEvent@@@Z 00414210 f   Join_meeting_for_login_user_ui.obj
 0001:00013230       ?ShowErrorMessage@CSDKJoinMeetingForLoginUserUIMgr@@QAEXPB_W@Z 00414230 f   Join_meeting_for_login_user_ui.obj
 0001:00013260       ?UninitWindow@CSDKRestAPIUserUIGroup@@QAEXXZ 00414260 f   LOGIN_sdk_login_UI.obj
 0001:00013260       ?UninitWindow@CSDKJoinMeetingForLoginUserUIGroup@@QAEXXZ 00414260 f   Join_meeting_for_login_user_ui.obj
 0001:00013290       ?onMeetingStatusChanged@CSDKJoinMeetingForLoginUserUIGroup@@UAEXW4MeetingStatus@ZOOMSDK@@H@Z 00414290 f   Join_meeting_for_login_user_ui.obj
 0001:00013300       ??0CSDKJoinMeetingForLoginUserFlow@@QAE@XZ 00414300 f   Join_meeting_for_login_user_workflow.obj
 0001:00013340       ??1CSDKJoinMeetingForLoginUserFlow@@UAE@XZ 00414340 f   Join_meeting_for_login_user_workflow.obj
 0001:000133b0       ??_GCSDKJoinMeetingForLoginUserFlow@@UAEPAXI@Z 004143b0 f i Join_meeting_for_login_user_workflow.obj
 0001:000133b0       ??_ECSDKJoinMeetingForLoginUserFlow@@UAEPAXI@Z 004143b0 f i Join_meeting_for_login_user_workflow.obj
 0001:000133e0       ?IsMeetingServiceReady@CSDKRestAPIUserWorkFlow@@QAE_NXZ 004143e0 f   LOGIN_restapi_without_login_workflow.obj
 0001:000133e0       ?IsMeetingServiceReady@CSDKJoinMeetingForLoginUserFlow@@QAE_NXZ 004143e0 f   Join_meeting_for_login_user_workflow.obj
 0001:00013430       ?JoinMeeting@CSDKJoinMeetingForLoginUserFlow@@QAE?AW4SDKError@ZOOMSDK@@AAUtagJoinParam@3@@Z 00414430 f   Join_meeting_for_login_user_workflow.obj
 0001:000134d0       ??0CSDKLoggedInFlowUIEvent@@QAE@XZ 004144d0 f i LoggedIn_sdk_controller_ui.obj
 0001:000134f0       ??0CSDKLoggedInUIMgr@@QAE@XZ 004144f0 f   LoggedIn_sdk_controller_ui.obj
 0001:000135c0       ??1CSDKLoggedInUIMgr@@UAE@XZ 004145c0 f   LoggedIn_sdk_controller_ui.obj
 0001:00013610       ??_ECSDKLoggedInUIMgr@@UAEPAXI@Z 00414610 f i LoggedIn_sdk_controller_ui.obj
 0001:00013610       ??_GCSDKLoggedInUIMgr@@UAEPAXI@Z 00414610 f i LoggedIn_sdk_controller_ui.obj
 0001:00013650       ?DisableMeetingButton@CSDKLoggedInUIMgr@@IAEXXZ 00414650 f   LoggedIn_sdk_controller_ui.obj
 0001:00013850       ?DoBackToMeetingBtnClick@CSDKLoggedInUIMgr@@IAEXXZ 00414850 f   LoggedIn_sdk_controller_ui.obj
 0001:00013890       ?DoConfigureBtnClick@CSDKLoggedInUIMgr@@IAEXXZ 00414890 f   LoggedIn_sdk_controller_ui.obj
 0001:000138d0       ?DoJoinMeetingBtnClick@CSDKLoggedInUIMgr@@IAEXXZ 004148d0 f   LoggedIn_sdk_controller_ui.obj
 0001:00013900       ?DoLogoutBtnClick@CSDKLoggedInUIMgr@@IAEXXZ 00414900 f   LoggedIn_sdk_controller_ui.obj
 0001:00013920       ?DoScheduleBtnClick@CSDKLoggedInUIMgr@@IAEXXZ 00414920 f   LoggedIn_sdk_controller_ui.obj
 0001:00013950       ?DoStartDirectShareBtnClick@CSDKLoggedInUIMgr@@IAEXXZ 00414950 f   LoggedIn_sdk_controller_ui.obj
 0001:00013970       ?DoStartMeetingBtnClick@CSDKLoggedInUIMgr@@IAEX_N@Z 00414970 f   LoggedIn_sdk_controller_ui.obj
 0001:00013aa0       ?GetSkinRes@CSDKLoggedInUIMgr@@UAEIXZ 00414aa0 f i LoggedIn_sdk_controller_ui.obj
 0001:00013ab0       ?HandleMessage@CSDKLoggedInUIMgr@@UAEJIIJ@Z 00414ab0 f   LoggedIn_sdk_controller_ui.obj
 0001:00013cb0       ?InitWindow@CSDKLoggedInUIMgr@@UAEXXZ 00414cb0 f   LoggedIn_sdk_controller_ui.obj
 0001:00014090       ?Notify@CSDKLoggedInUIMgr@@UAEXAAUtagTNotifyUI@DuiLib@@@Z 00415090 f   LoggedIn_sdk_controller_ui.obj
 0001:00014250       ?OnClose@CSDKLoggedInUIMgr@@QAEJIIJAAH@Z 00415250 f   LoggedIn_sdk_controller_ui.obj
 0001:000142f0       ?OnDestroy@CSDKLoggedInUIMgr@@QAEJIIJAAH@Z 004152f0 f   LoggedIn_sdk_controller_ui.obj
 0001:00014310       ?SetEvent@CSDKLoggedInUIMgr@@QAEXPAVCSDKDemoAppEvent@@@Z 00415310 f   LoggedIn_sdk_controller_ui.obj
 0001:00014330       ?ShowBackToMeetingButton@CSDKLoggedInUIMgr@@IAEXXZ 00415330 f   LoggedIn_sdk_controller_ui.obj
 0001:00014740       ?ShowErrorMessage@CSDKLoggedInUIMgr@@QAEXPB_W@Z 00415740 f   LoggedIn_sdk_controller_ui.obj
 0001:00014770       ?ShowUI@CSDKLoggedInUIMgr@@QAEXW4LoggedIn_MeetingUI_type@@@Z 00415770 f   LoggedIn_sdk_controller_ui.obj
 0001:000148d0       ?onMeetingStatusChanged@CSDKLoggedInUIMgr@@UAEXW4MeetingStatus@ZOOMSDK@@H@Z 004158d0 f   LoggedIn_sdk_controller_ui.obj
 0001:000149d0       ?updateUI@CSDKLoggedInUIMgr@@IAEXXZ 004159d0 f   LoggedIn_sdk_controller_ui.obj
 0001:000149f0       ??0CSDKLoggedInUIWorkFlow@@QAE@XZ 004159f0 f   LoggedIn_sdk_controller_workflow.obj
 0001:00014a50       ??0IDirectShareServiceHelperEvent@ZOOMSDK@@QAE@XZ 00415a50 f i LoggedIn_sdk_controller_workflow.obj
 0001:00014a70       ??1CSDKLoggedInUIWorkFlow@@UAE@XZ 00415a70 f   LoggedIn_sdk_controller_workflow.obj
 0001:00014af0       ??_ECSDKLoggedInUIWorkFlow@@UAEPAXI@Z 00415af0 f i LoggedIn_sdk_controller_workflow.obj
 0001:00014af0       ??_GCSDKLoggedInUIWorkFlow@@UAEPAXI@Z 00415af0 f i LoggedIn_sdk_controller_workflow.obj
 0001:00014b20       ?BringMeetingToFront@CSDKLoggedInUIWorkFlow@@QAE?AW4SDKError@ZOOMSDK@@XZ 00415b20 f   LoggedIn_sdk_controller_workflow.obj
 0001:00014b80       ?DirectShare@CSDKLoggedInUIWorkFlow@@QAE?AW4SDKError@ZOOMSDK@@XZ 00415b80 f   LoggedIn_sdk_controller_workflow.obj
 0001:00014c30       ?EndMeeting@CSDKLoggedInUIWorkFlow@@QAE?AW4SDKError@ZOOMSDK@@XZ 00415c30 f   LoggedIn_sdk_controller_workflow.obj
 0001:00014c90       ?IsMeetingServiceReady@CSDKLoggedInUIWorkFlow@@QAE_NXZ 00415c90 f   LoggedIn_sdk_controller_workflow.obj
 0001:00014ce0       ?LeaveMeeting@CSDKLoggedInUIWorkFlow@@QAE?AW4SDKError@ZOOMSDK@@XZ 00415ce0 f   LoggedIn_sdk_controller_workflow.obj
 0001:00014d40       ?OnDirectShareStatusUpdate@CSDKLoggedInUIWorkFlow@@UAEXW4DirectShareStatusStatus_Enum@ZOOMSDK@@PAVIDirectShareViaMeetingIDOrPairingCodeHandler@3@@Z 00415d40 f   LoggedIn_sdk_controller_workflow.obj
 0001:00014d80       ?StartMeeting@CSDKLoggedInUIWorkFlow@@QAE?AW4SDKError@ZOOMSDK@@AAUtagStartParam@3@@Z 00415d80 f   LoggedIn_sdk_controller_workflow.obj
 0001:00014e00       ?onMeetingParameterNotification@CSDKLoggedInUIWorkFlow@@UAEXPBUtagMeetingParameter@ZOOMSDK@@@Z 00415e00 f   LoggedIn_sdk_controller_workflow.obj
 0001:00014e30       ?onMeetingSecureKeyNotification@CSDKLoggedInUIWorkFlow@@UAEXPBDHPAVIMeetingExternalSecureKeyHandler@ZOOMSDK@@@Z 00415e30 f   LoggedIn_sdk_controller_workflow.obj
 0001:00014e70       ?onMeetingStatisticsWarningNotification@CSDKLoggedInUIWorkFlow@@UAEXW4StatisticsWarningType@ZOOMSDK@@@Z 00415e70 f   LoggedIn_sdk_controller_workflow.obj
 0001:00014ea0       ?OnMicSpkVolumnChanged@CSDKAudioSettingsWorkFlow@@UAEXII@Z 00415ea0 f   SETTINGS_audio_workflow.obj
 0001:00014ea0       ?onMeetingStatusChanged@CSDKLoggedInUIWorkFlow@@UAEXW4MeetingStatus@ZOOMSDK@@H@Z 00415ea0 f   LoggedIn_sdk_controller_workflow.obj
 0001:00014ed0       ??0CSDKWithoutLoginStartJoinMeetingFlow@@QAE@XZ 00415ed0 f   LOGIN_join_meeting_only_workflow.obj
 0001:00014f30       ??1CSDKWithoutLoginStartJoinMeetingFlow@@UAE@XZ 00415f30 f   LOGIN_join_meeting_only_workflow.obj
 0001:00014fc0       ??_GCSDKWithoutLoginStartJoinMeetingFlow@@UAEPAXI@Z 00415fc0 f i LOGIN_join_meeting_only_workflow.obj
 0001:00014fc0       ??_ECSDKWithoutLoginStartJoinMeetingFlow@@UAEPAXI@Z 00415fc0 f i LOGIN_join_meeting_only_workflow.obj
 0001:00014ff0       ?IsMeetingServiceReady@CSDKWithoutLoginStartJoinMeetingFlow@@QAE_NXZ 00415ff0 f   LOGIN_join_meeting_only_workflow.obj
 0001:00015050       ?JoinMeeting@CSDKWithoutLoginStartJoinMeetingFlow@@QAE?AW4SDKError@ZOOMSDK@@AAUtagJoinParam@3@@Z 00416050 f   LOGIN_join_meeting_only_workflow.obj
 0001:00015140       ??0CSDKLoginWithEmailFlow@@QAE@XZ 00416140 f   LOGIN_login_with_email_workflow.obj
 0001:00015170       ??1CSDKLoginWithEmailFlow@@UAE@XZ 00416170 f   LOGIN_login_with_email_workflow.obj
 0001:00015190       ??_GCSDKLoginWithEmailFlow@@UAEPAXI@Z 00416190 f i LOGIN_login_with_email_workflow.obj
 0001:00015190       ??_ECSDKLoginWithEmailFlow@@UAEPAXI@Z 00416190 f i LOGIN_login_with_email_workflow.obj
 0001:000151c0       ?LogOut@CSDKLoginWithEmailFlow@@QAE?AW4SDKError@ZOOMSDK@@XZ 004161c0 f   LOGIN_login_with_email_workflow.obj
 0001:00015220       ?Login@CSDKLoginWithSSOFlow@@QAE?AW4SDKError@ZOOMSDK@@AAUtagLoginParam@3@@Z 00416220 f   LOGIN_login_with_sso_workflow.obj
 0001:00015220       ?Login@CSDKLoginWithEmailFlow@@QAE?AW4SDKError@ZOOMSDK@@AAUtagLoginParam@3@@Z 00416220 f   LOGIN_login_with_email_workflow.obj
 0001:00015280       ??0CSDKLoginWithSSOFlow@@QAE@XZ 00416280 f   LOGIN_login_with_sso_workflow.obj
 0001:000152b0       ??1CSDKLoginWithSSOFlow@@UAE@XZ 004162b0 f   LOGIN_login_with_sso_workflow.obj
 0001:000152d0       ??_GCSDKLoginWithSSOFlow@@UAEPAXI@Z 004162d0 f i LOGIN_login_with_sso_workflow.obj
 0001:000152d0       ??_ECSDKLoginWithSSOFlow@@UAEPAXI@Z 004162d0 f i LOGIN_login_with_sso_workflow.obj
 0001:00015300       ??0CSDKRestAPIUserWorkFlow@@QAE@XZ 00416300 f   LOGIN_restapi_without_login_workflow.obj
 0001:00015340       ??1CSDKRestAPIUserWorkFlow@@UAE@XZ 00416340 f   LOGIN_restapi_without_login_workflow.obj
 0001:000153b0       ??_ECSDKRestAPIUserWorkFlow@@UAEPAXI@Z 004163b0 f i LOGIN_restapi_without_login_workflow.obj
 0001:000153b0       ??_GCSDKRestAPIUserWorkFlow@@UAEPAXI@Z 004163b0 f i LOGIN_restapi_without_login_workflow.obj
 0001:000153e0       ?RestAPIStartMeeting@CSDKRestAPIUserWorkFlow@@QAE?AW4SDKError@ZOOMSDK@@AAUtagStartParam@3@@Z 004163e0 f   LOGIN_restapi_without_login_workflow.obj
 0001:00015490       ?onMeetingParameterNotification@CSDKRestAPIUserWorkFlow@@UAEXPBUtagMeetingParameter@ZOOMSDK@@@Z 00416490 f   LOGIN_restapi_without_login_workflow.obj
 0001:00015490       ?onComputerCamDeviceChanged@CSDKVideoSettingsWorkFlow@@UAEXPAV?$IList@PAVICameraInfo@ZOOMSDK@@@ZOOMSDK@@@Z 00416490 f   SETTINGS_video_workflow.obj
 0001:000154c0       ?onMeetingSecureKeyNotification@CSDKRestAPIUserWorkFlow@@UAEXPBDHPAVIMeetingExternalSecureKeyHandler@ZOOMSDK@@@Z 004164c0 f   LOGIN_restapi_without_login_workflow.obj
 0001:00015500       ??0CSDKJoinMeetingOnlyFlowUIEvent@@QAE@XZ 00416500 f i LOGIN_sdk_login_UI.obj
 0001:00015520       ??0CSDKLoginCBHandler@@QAE@XZ 00416520 f   LOGIN_sdk_login_UI.obj
 0001:00015550       ??0CSDKLoginUIMgr@@QAE@XZ  00416550 f   LOGIN_sdk_login_UI.obj
 0001:000156e0       ??0CSDKLoginWithEmailUIGroup@@QAE@XZ 004166e0 f   LOGIN_sdk_login_UI.obj
 0001:00015750       ??0CSDKLoginWithSSOUIGroup@@QAE@XZ 00416750 f   LOGIN_sdk_login_UI.obj
 0001:000157b0       ??0CSDKRestAPIUserUIEvent@@QAE@XZ 004167b0 f i LOGIN_sdk_login_UI.obj
 0001:000157d0       ??0CSDKRestAPIUserUIGroup@@QAE@XZ 004167d0 f   LOGIN_sdk_login_UI.obj
 0001:00015840       ??0CSDKWithoutLoginStartJoinMeetingUIGroup@@QAE@XZ 00416840 f   LOGIN_sdk_login_UI.obj
 0001:000158c0       ??0tagLoginParam@ZOOMSDK@@QAE@XZ 004168c0 f i LOGIN_sdk_login_UI.obj
 0001:000158f0       ??1CSDKLoginCBHandler@@UAE@XZ 004168f0 f   LOGIN_sdk_login_UI.obj
 0001:00015950       ??1CSDKLoginUIMgr@@UAE@XZ  00416950 f   LOGIN_sdk_login_UI.obj
 0001:00015ac0       ??1CSDKLoginWithEmailUIGroup@@UAE@XZ 00416ac0 f   LOGIN_sdk_login_UI.obj
 0001:00015b30       ??1CSDKLoginWithSSOUIGroup@@UAE@XZ 00416b30 f   LOGIN_sdk_login_UI.obj
 0001:00015b90       ??1CSDKRestAPIUserUIGroup@@UAE@XZ 00416b90 f   LOGIN_sdk_login_UI.obj
 0001:00015c00       ??1CSDKWithoutLoginStartJoinMeetingUIGroup@@UAE@XZ 00416c00 f   LOGIN_sdk_login_UI.obj
 0001:00015c70       ??_ECSDKLoginCBHandler@@UAEPAXI@Z 00416c70 f i LOGIN_sdk_login_UI.obj
 0001:00015c70       ??_GCSDKLoginCBHandler@@UAEPAXI@Z 00416c70 f i LOGIN_sdk_login_UI.obj
 0001:00015ca0       ??_GCSDKLoginUIMgr@@UAEPAXI@Z 00416ca0 f i LOGIN_sdk_login_UI.obj
 0001:00015ca0       ??_ECSDKLoginUIMgr@@UAEPAXI@Z 00416ca0 f i LOGIN_sdk_login_UI.obj
 0001:00015ce0       ??_ECSDKLoginWithEmailUIGroup@@UAEPAXI@Z 00416ce0 f i LOGIN_sdk_login_UI.obj
 0001:00015ce0       ??_GCSDKLoginWithEmailUIGroup@@UAEPAXI@Z 00416ce0 f i LOGIN_sdk_login_UI.obj
 0001:00015d10       ??_ECSDKLoginWithSSOUIGroup@@UAEPAXI@Z 00416d10 f i LOGIN_sdk_login_UI.obj
 0001:00015d10       ??_GCSDKLoginWithSSOUIGroup@@UAEPAXI@Z 00416d10 f i LOGIN_sdk_login_UI.obj
 0001:00015d40       ??_GCSDKRestAPIUserUIGroup@@UAEPAXI@Z 00416d40 f i LOGIN_sdk_login_UI.obj
 0001:00015d40       ??_ECSDKRestAPIUserUIGroup@@UAEPAXI@Z 00416d40 f i LOGIN_sdk_login_UI.obj
 0001:00015d70       ??_ECSDKWithoutLoginStartJoinMeetingUIGroup@@UAEPAXI@Z 00416d70 f i LOGIN_sdk_login_UI.obj
 0001:00015d70       ??_GCSDKWithoutLoginStartJoinMeetingUIGroup@@UAEPAXI@Z 00416d70 f i LOGIN_sdk_login_UI.obj
 0001:00015da0       ?ChangeUIforJoinFailed@CSDKLoginUIMgr@@QAEXXZ 00416da0 f   LOGIN_sdk_login_UI.obj
 0001:00015df0       ?ChangeUIforLoginFailed@CSDKLoginUIMgr@@QAEXXZ 00416df0 f   LOGIN_sdk_login_UI.obj
 0001:00015e50       ?DoLoginWithEmailBtnClick@CSDKLoginWithEmailUIGroup@@QAEXXZ 00416e50 f   LOGIN_sdk_login_UI.obj
 0001:000160d0       ?DoLoginWithSSOBtnClick@CSDKLoginWithSSOUIGroup@@QAEXXZ 004170d0 f   LOGIN_sdk_login_UI.obj
 0001:00016260       ?DoWithoutLoginStartJoinMeetingBtnClick@CSDKWithoutLoginStartJoinMeetingUIGroup@@QAEXXZ 00417260 f   LOGIN_sdk_login_UI.obj
 0001:00016650       ?DoWithoutLoginStartMeetingBtnClick@CSDKRestAPIUserUIGroup@@QAEXXZ 00417650 f   LOGIN_sdk_login_UI.obj
 0001:00016930       ?EnableEmailLoginUI@CSDKLoginUIMgr@@QAEX_NW4SwitchToLoginUIType@@@Z 00417930 f   LOGIN_sdk_login_UI.obj
 0001:00016990       ?GetAppEvent@CSDKLoginUIMgr@@QAEPAVCSDKDemoAppEvent@@XZ 00417990 f   LOGIN_sdk_login_UI.obj
 0001:000169b0       ?GetSkinRes@CSDKLoginUIMgr@@UAEIXZ 004179b0 f i LOGIN_sdk_login_UI.obj
 0001:000169c0       ?HandleMessage@CSDKLoginUIMgr@@UAEJIIJ@Z 004179c0 f   LOGIN_sdk_login_UI.obj
 0001:00016bc0       ?Hide@CInitSDKUIGroup@@QAEXXZ 00417bc0 f   sdk_init_auth_ui.obj
 0001:00016bc0       ?Hide@CSDKLoginWithEmailUIGroup@@QAEXXZ 00417bc0 f   LOGIN_sdk_login_UI.obj
 0001:00016bc0       ?Hide@CSDKGeneralSettingsUIGroup@@QAEXXZ 00417bc0 f   settings_ui.obj
 0001:00016bc0       ?Hide@CSDKRestAPIUserUIGroup@@QAEXXZ 00417bc0 f   LOGIN_sdk_login_UI.obj
 0001:00016bc0       ?Hide@CSDKRecordingSettingsUIGroup@@QAEXXZ 00417bc0 f   settings_ui.obj
 0001:00016bc0       ?Hide@CAuthSDKUIGroup@@QAEXXZ 00417bc0 f   sdk_init_auth_ui.obj
 0001:00016bc0       ?Hide@CSDKShareSettingsUIGroup@@QAEXXZ 00417bc0 f   settings_ui.obj
 0001:00016bc0       ?Hide@CSDKLoginWithSSOUIGroup@@QAEXXZ 00417bc0 f   LOGIN_sdk_login_UI.obj
 0001:00016bc0       ?Hide@CSDKWithoutLoginStartJoinMeetingUIGroup@@QAEXXZ 00417bc0 f   LOGIN_sdk_login_UI.obj
 0001:00016bf0       ?InitWindow@CSDKLoginUIMgr@@UAEXXZ 00417bf0 f   LOGIN_sdk_login_UI.obj
 0001:00016ee0       ?InitWindow@CSDKLoginWithEmailUIGroup@@QAEXAAVCPaintManagerUI@DuiLib@@PAVCSDKLoginUIMgr@@@Z 00417ee0 f   LOGIN_sdk_login_UI.obj
 0001:00016f80       ?InitWindow@CSDKLoginWithSSOUIGroup@@QAEXAAVCPaintManagerUI@DuiLib@@PAVCSDKLoginUIMgr@@@Z 00417f80 f   LOGIN_sdk_login_UI.obj
 0001:00017000       ?InitWindow@CSDKRestAPIUserUIGroup@@QAEXAAVCPaintManagerUI@DuiLib@@PAVCSDKLoginUIMgr@@@Z 00418000 f   LOGIN_sdk_login_UI.obj
 0001:000170a0       ?InitWindow@CSDKWithoutLoginStartJoinMeetingUIGroup@@QAEXAAVCPaintManagerUI@DuiLib@@PAVCSDKLoginUIMgr@@@Z 004180a0 f   LOGIN_sdk_login_UI.obj
 0001:00017140       ?LogOut@CSDKLoginUIMgr@@QAE_NXZ 00418140 f   LOGIN_sdk_login_UI.obj
 0001:00017160       ?LogOut@CSDKLoginWithEmailUIGroup@@QAE_NXZ 00418160 f   LOGIN_sdk_login_UI.obj
 0001:00017190       ?Notify@CSDKLoginUIMgr@@UAEXAAUtagTNotifyUI@DuiLib@@@Z 00418190 f   LOGIN_sdk_login_UI.obj
 0001:00017340       ?Notify@CSDKLoginWithEmailUIGroup@@QAEXAAUtagTNotifyUI@DuiLib@@@Z 00418340 f   LOGIN_sdk_login_UI.obj
 0001:000173a0       ?Notify@CSDKLoginWithSSOUIGroup@@QAEXAAUtagTNotifyUI@DuiLib@@@Z 004183a0 f   LOGIN_sdk_login_UI.obj
 0001:00017400       ?Notify@CSDKRestAPIUserUIGroup@@QAEXAAUtagTNotifyUI@DuiLib@@@Z 00418400 f   LOGIN_sdk_login_UI.obj
 0001:00017460       ?Notify@CSDKWithoutLoginStartJoinMeetingUIGroup@@QAEXAAUtagTNotifyUI@DuiLib@@@Z 00418460 f   LOGIN_sdk_login_UI.obj
 0001:000174c0       ?NotifyAuthDone@CSDKLoginUIMgr@@QAEXXZ 004184c0 f   LOGIN_sdk_login_UI.obj
 0001:00017510       ?OnClose@CSDKLoginUIMgr@@QAEJIIJAAH@Z 00418510 f   LOGIN_sdk_login_UI.obj
 0001:00017550       ?OnDestroy@CSDKLoginUIMgr@@QAEJIIJAAH@Z 00418550 f   LOGIN_sdk_login_UI.obj
 0001:000175a0       ?SetCurrentPage@CSDKLoginUIMgr@@QAEXPAVCVerticalLayoutUI@DuiLib@@@Z 004185a0 f i LOGIN_sdk_login_UI.obj
 0001:000175c0       ?SetEvent@CSDKLoginUIMgr@@QAEXPAVCSDKDemoAppEvent@@@Z 004185c0 f   LOGIN_sdk_login_UI.obj
 0001:000175e0       ?SetUIEvent@CSDKLoginCBHandler@@QAEXPAVCSDKLoginUIMgr@@@Z 004185e0 f   LOGIN_sdk_login_UI.obj
 0001:00017630       ?Show@CSDKLoginWithEmailUIGroup@@QAEXXZ 00418630 f   LOGIN_sdk_login_UI.obj
 0001:000176c0       ?Show@CSDKLoginWithSSOUIGroup@@QAEXXZ 004186c0 f   LOGIN_sdk_login_UI.obj
 0001:00017750       ?Show@CSDKRestAPIUserUIGroup@@QAEXXZ 00418750 f   LOGIN_sdk_login_UI.obj
 0001:000177e0       ?Show@CSDKWithoutLoginStartJoinMeetingUIGroup@@QAEXXZ 004187e0 f   LOGIN_sdk_login_UI.obj
 0001:00017870       ?ShowErrorMessage@CSDKLoginUIMgr@@QAEXPB_W@Z 00418870 f   LOGIN_sdk_login_UI.obj
 0001:000178a0       ?SwitchToPage@CSDKLoginUIMgr@@QAEXW4loginTabPage@@@Z 004188a0 f   LOGIN_sdk_login_UI.obj
 0001:00017950       ?SwitchToWaitingPage@CSDKLoginUIMgr@@QAEXPB_W_N@Z 00418950 f   LOGIN_sdk_login_UI.obj
 0001:00017a80       ?UninitWindow@CSDKLoginWithSSOUIGroup@@QAEXXZ 00418a80 f   LOGIN_sdk_login_UI.obj
 0001:00017aa0       ?UninitWindow@CSDKWithoutLoginStartJoinMeetingUIGroup@@QAEXXZ 00418aa0 f   LOGIN_sdk_login_UI.obj
 0001:00017ad0       ?onLoginRet@CSDKLoginCBHandler@@UAEXW4LOGINSTATUS@ZOOMSDK@@PAVIAccountInfo@3@@Z 00418ad0 f   LOGIN_sdk_login_UI.obj
 0001:00017bf0       ?onMeetingStatusChanged@CSDKRestAPIUserUIGroup@@UAEXW4MeetingStatus@ZOOMSDK@@H@Z 00418bf0 f   LOGIN_sdk_login_UI.obj
 0001:00017cf0       ?onMeetingStatusChanged@CSDKWithoutLoginStartJoinMeetingUIGroup@@UAEXW4MeetingStatus@ZOOMSDK@@H@Z 00418cf0 f   LOGIN_sdk_login_UI.obj
 0001:00017e00       ??0CSDKMessInfo@@AAE@XZ    00418e00 f   mess_info.obj
 0001:00017e80       ??1CSDKMessInfo@@AAE@XZ    00418e80 f   mess_info.obj
 0001:00017ef0       ?Cleanup@CSDKMessInfo@@QAEXXZ 00418ef0 f   mess_info.obj
 0001:00017f30       ?GetErrorCode@CSDKMessInfo@@QAEHXZ 00418f30 f   mess_info.obj
 0001:00017f70       ?GetErrorDescription@CSDKMessInfo@@QAEPB_WXZ 00418f70 f   mess_info.obj
 0001:00017fc0       ?GetErrorMessInfo@CSDKMessInfo@@QAEPA_WXZ 00418fc0 f   mess_info.obj
 0001:00018030       ?GetErrorType@CSDKMessInfo@@QAEPB_WXZ 00419030 f   mess_info.obj
 0001:000180f0       ?GetInst@CSDKMessInfo@@SAAAV1@XZ 004190f0 f   mess_info.obj
 0001:00018190       ?Init@CSDKMessInfo@@QAE_NXZ 00419190 f   mess_info.obj
 0001:00018200       ??0CMoreFeaturesUIMgr@@QAE@HHPAVCCustomizeInMeetingUIMgr@@@Z 00419200 f   more_features_ui.obj
 0001:00018310       ??1CMoreFeaturesUIMgr@@QAE@XZ 00419310 f   more_features_ui.obj
 0001:000183e0       ?AddElement@CMoreFeaturesUIMgr@@QAE_NPB_W@Z 004193e0 f   more_features_ui.obj
 0001:00018530       ?DestroyUtilWindow@CMoreFeaturesUIMgr@@AAEXXZ 00419530 f   more_features_ui.obj
 0001:00018590       ?DoClickLowerAllHandsBtn@CMoreFeaturesUIMgr@@AAEXXZ 00419590 f   more_features_ui.obj
 0001:000185d0       ?DoClickMuteAllBtn@CMoreFeaturesUIMgr@@AAEXXZ 004195d0 f   more_features_ui.obj
 0001:00018630       ?DoClickMuteOnEntry@CMoreFeaturesUIMgr@@AAEX_N@Z 00419630 f   more_features_ui.obj
 0001:00018670       ?DoClickRaiseHandBtn@CMoreFeaturesUIMgr@@AAEXXZ 00419670 f   more_features_ui.obj
 0001:000186b0       ?DoClickUnmuteAllBtn@CMoreFeaturesUIMgr@@AAEXXZ 004196b0 f   more_features_ui.obj
 0001:00018710       ?DoUtilWindowShow@CMoreFeaturesUIMgr@@AAEXPB_WW4FEATURE_TYPE@@@Z 00419710 f   more_features_ui.obj
 0001:00018850       ?GetSkinRes@CMoreFeaturesUIMgr@@UAEIXZ 00419850 f i more_features_ui.obj
 0001:00018850       ?GetSkinRes@CMoreMenuUIMgr@@UAEIXZ 00419850 f i more_menu_ui.obj
 0001:00018860       ?HandleMessage@CMoreFeaturesUIMgr@@UAEJIIJ@Z 00419860 f   more_features_ui.obj
 0001:00018a50       ?InitWindow@CMoreFeaturesUIMgr@@UAEXXZ 00419a50 f   more_features_ui.obj
 0001:00018aa0       ?Notify@CMoreFeaturesUIMgr@@UAEXAAUtagTNotifyUI@DuiLib@@@Z 00419aa0 f   more_features_ui.obj
 0001:00018dc0       ?RepaintClient@CMoreFeaturesUIMgr@@QAE_NHH@Z 00419dc0 f   more_features_ui.obj
 0001:00018ea0       ?ShowErrorMsg@CMoreFeaturesUIMgr@@AAEXPB_W@Z 00419ea0 f   more_features_ui.obj
 0001:00018ec0       ?UpdateUI@CMoreFeaturesUIMgr@@AAEXXZ 00419ec0 f   more_features_ui.obj
 0001:00019000       ?onCoHostChangeNotification@CMoreFeaturesUIMgr@@UAEXI_N@Z 0041a000 f   more_features_ui.obj
 0001:000190e0       ?onHostChangeNotification@CMoreFeaturesUIMgr@@UAEXI@Z 0041a0e0 f   more_features_ui.obj
 0001:000191c0       ?onUserNameChanged@CMoreFeaturesUIMgr@@UAEXIPB_W@Z 0041a1c0 f   more_features_ui.obj
 0001:000191c0       ?onLowOrRaiseHandStatusChanged@CMoreFeaturesUIMgr@@UAEX_NI@Z 0041a1c0 f   more_features_ui.obj
 0001:000191f0       ?AssignCoHost@CMoreFeaturesWorkflow@@QAE?AW4SDKError@ZOOMSDK@@I@Z 0041a1f0 f   more_features_workflow.obj
 0001:00019250       ?ChangeUserName@CMoreFeaturesWorkflow@@QAE?AW4SDKError@ZOOMSDK@@IPB_W_N@Z 0041a250 f   more_features_workflow.obj
 0001:00019290       ?EnableMuteOnEntry@CMoreFeaturesWorkflow@@QAE?AW4SDKError@ZOOMSDK@@_N@Z 0041a290 f   more_features_workflow.obj
 0001:000192d0       ?ExpelUser@CMoreFeaturesWorkflow@@QAE?AW4SDKError@ZOOMSDK@@I@Z 0041a2d0 f   more_features_workflow.obj
 0001:00019300       ?LowerAllHands@CMoreFeaturesWorkflow@@QAE?AW4SDKError@ZOOMSDK@@XZ 0041a300 f   more_features_workflow.obj
 0001:00019330       ?LowerHand@CMoreFeaturesWorkflow@@QAE?AW4SDKError@ZOOMSDK@@I@Z 0041a330 f   more_features_workflow.obj
 0001:00019360       ?MakeHost@CMoreFeaturesWorkflow@@QAE?AW4SDKError@ZOOMSDK@@I@Z 0041a360 f   more_features_workflow.obj
 0001:00019390       ?MuteAll@CMoreFeaturesWorkflow@@QAE_NPAVCSDKUserList@@@Z 0041a390 f   more_features_workflow.obj
 0001:000193e0       ?MuteAudio@CMoreFeaturesWorkflow@@QAE?AW4SDKError@ZOOMSDK@@I_N@Z 0041a3e0 f   more_features_workflow.obj
 0001:00019430       ?RaiseHand@CMoreFeaturesWorkflow@@QAE?AW4SDKError@ZOOMSDK@@XZ 0041a430 f   more_features_workflow.obj
 0001:00019460       ?ReclaimHost@CMoreFeaturesWorkflow@@QAE?AW4SDKError@ZOOMSDK@@XZ 0041a460 f   more_features_workflow.obj
 0001:000194d0       ?RevokeCoHost@CMoreFeaturesWorkflow@@QAE?AW4SDKError@ZOOMSDK@@I@Z 0041a4d0 f   more_features_workflow.obj
 0001:00019500       ?StartAttendeeVideo@CMoreFeaturesWorkflow@@QAE?AW4SDKError@ZOOMSDK@@I@Z 0041a500 f   more_features_workflow.obj
 0001:00019560       ?StopAttendeeVideo@CMoreFeaturesWorkflow@@QAE?AW4SDKError@ZOOMSDK@@I@Z 0041a560 f   more_features_workflow.obj
 0001:000195c0       ?UnMuteAll@CMoreFeaturesWorkflow@@QAE_NPAVCSDKUserList@@@Z 0041a5c0 f   more_features_workflow.obj
 0001:00019610       ?UnMuteAudio@CMoreFeaturesWorkflow@@QAE?AW4SDKError@ZOOMSDK@@I@Z 0041a610 f   more_features_workflow.obj
 0001:00019650       ??0CMoreMenuUIMgr@@QAE@HHPAVCCustomizeInMeetingUIMgr@@@Z 0041a650 f   more_menu_ui.obj
 0001:00019720       ??1CMoreMenuUIMgr@@QAE@XZ  0041a720 f   more_menu_ui.obj
 0001:000197d0       ??_GCInvitationUIMgr@@QAEPAXI@Z 0041a7d0 f i more_menu_ui.obj
 0001:00019810       ??_GCMoreFeaturesUIMgr@@QAEPAXI@Z 0041a810 f i more_menu_ui.obj
 0001:00019850       ?AddElement@CMoreMenuUIMgr@@QAE_NPB_W@Z 0041a850 f   more_menu_ui.obj
 0001:000199a0       ?DestroyClosedCaptionWnd@CMoreMenuUIMgr@@AAEXXZ 0041a9a0 f   more_menu_ui.obj
 0001:00019a30       ?DestroyInvitationWnd@CMoreMenuUIMgr@@AAEXXZ 0041aa30 f   more_menu_ui.obj
 0001:00019ab0       ?DestroyMoreFeaturesWnd@CMoreMenuUIMgr@@AAEXXZ 0041aab0 f   more_menu_ui.obj
 0001:00019b30       ?DoClickClosedCaptionBtn@CMoreMenuUIMgr@@AAEXXZ 0041ab30 f   more_menu_ui.obj
 0001:00019d10       ?DoClickInviteBtn@CMoreMenuUIMgr@@AAEXXZ 0041ad10 f   more_menu_ui.obj
 0001:00019e10       ?DoClickMoreFeaturesBtn@CMoreMenuUIMgr@@AAEXXZ 0041ae10 f   more_menu_ui.obj
 0001:00019fd0       ?HandleMessage@CMoreMenuUIMgr@@UAEJIIJ@Z 0041afd0 f   more_menu_ui.obj
 0001:0001a1f0       ?HandleMoveAndResize@CMoreMenuUIMgr@@QAEXXZ 0041b1f0 f   more_menu_ui.obj
 0001:0001a220       ?HandleUserChange@CMoreMenuUIMgr@@QAEXXZ 0041b220 f   more_menu_ui.obj
 0001:0001a250       ?InitWindow@CMoreMenuUIMgr@@UAEXXZ 0041b250 f   more_menu_ui.obj
 0001:0001a410       ?Notify@CMoreMenuUIMgr@@UAEXAAUtagTNotifyUI@DuiLib@@@Z 0041b410 f   more_menu_ui.obj
 0001:0001a7b0       ?RepaintClient@CMoreMenuUIMgr@@QAE_NHH@Z 0041b7b0 f   more_menu_ui.obj
 0001:0001a8d0       ??0ParticipantPopMenu@@QAE@XZ 0041b8d0 f   ParticipantPopMenu.obj
 0001:0001a910       ??1ParticipantPopMenu@@QAE@XZ 0041b910 f   ParticipantPopMenu.obj
 0001:0001a940       ?OnClickMenuItem@ParticipantPopMenu@@QAEXH@Z 0041b940 f   ParticipantPopMenu.obj
 0001:0001a9d0       ?PopMenu@ParticipantPopMenu@@QAEXPAUHWND__@@ABUtagPOINT@@@Z 0041b9d0 f   ParticipantPopMenu.obj
 0001:0001aa00       ?PopMenu@ParticipantPopMenu@@QAEXPAUHWND__@@HH@Z 0041ba00 f   ParticipantPopMenu.obj
 0001:0001aa40       ?SetUserID@ParticipantPopMenu@@QAEXI@Z 0041ba40 f   ParticipantPopMenu.obj
 0001:0001aab0       ??$?0$$V@?$_Compressed_pair@V?$allocator@U?$_Tree_node@PAVIMeetingServiceEvent@ZOOMSDK@@PAX@std@@@std@@V?$_Tree_val@U?$_Tree_simple_types@PAVIMeetingServiceEvent@ZOOMSDK@@@std@@@2@$00@std@@QAE@U_Zero_then_variadic_args_t@1@@Z 0041bab0 f i sdk_util.obj
 0001:0001aab0       ??$?0$$V@?$_Compressed_pair@V?$allocator@U?$_Tree_node@U?$pair@$$CBHW4bkItemType@@@std@@PAX@std@@@std@@V?$_Tree_val@U?$_Tree_simple_types@U?$pair@$$CBHW4bkItemType@@@std@@@std@@@2@$00@std@@QAE@U_Zero_then_variadic_args_t@1@@Z 0041bab0 f i settings_ui.obj
 0001:0001aab0       ??$?0$$V@?$_Compressed_pair@V?$allocator@U?$_Tree_node@PAVIMeetingVideoCtrlEvent@ZOOMSDK@@PAX@std@@@std@@V?$_Tree_val@U?$_Tree_simple_types@PAVIMeetingVideoCtrlEvent@ZOOMSDK@@@std@@@2@$00@std@@QAE@U_Zero_then_variadic_args_t@1@@Z 0041bab0 f i sdk_util.obj
 0001:0001aab0       ??$?0$$V@?$_Compressed_pair@V?$allocator@U?$_Tree_node@PAVIAuthServiceEvent@ZOOMSDK@@PAX@std@@@std@@V?$_Tree_val@U?$_Tree_simple_types@PAVIAuthServiceEvent@ZOOMSDK@@@std@@@2@$00@std@@QAE@U_Zero_then_variadic_args_t@1@@Z 0041bab0 f i sdk_util.obj
 0001:0001aab0       ??$?0$$V@?$_Compressed_pair@V?$allocator@U?$_Tree_node@U?$pair@$$CBIPAVIUserInfo@ZOOMSDK@@@std@@PAX@std@@@std@@V?$_Tree_val@U?$_Tree_simple_types@U?$pair@$$CBIPAVIUserInfo@ZOOMSDK@@@std@@@std@@@2@$00@std@@QAE@U_Zero_then_variadic_args_t@1@@Z 0041bab0 f i user_manager.obj
 0001:0001aab0       ??$?0$$V@?$_Compressed_pair@V?$allocator@U?$_Tree_node@PAVIMeetingParticipantsCtrlEvent@ZOOMSDK@@PAX@std@@@std@@V?$_Tree_val@U?$_Tree_simple_types@PAVIMeetingParticipantsCtrlEvent@ZOOMSDK@@@std@@@2@$00@std@@QAE@U_Zero_then_variadic_args_t@1@@Z 0041bab0 f i sdk_util.obj
 0001:0001aab0       ??$?0$$V@?$_Compressed_pair@V?$allocator@U?$_List_node@HPAX@std@@@std@@V?$_List_val@U?$_List_simple_types@H@std@@@2@$00@std@@QAE@U_Zero_then_variadic_args_t@1@@Z 0041bab0 f i participant_ui.obj
 0001:0001aab0       ??$?0$$V@?$_Compressed_pair@V?$allocator@U?$_Tree_node@PAVIPreMeetingServiceEvent@ZOOMSDK@@PAX@std@@@std@@V?$_Tree_val@U?$_Tree_simple_types@PAVIPreMeetingServiceEvent@ZOOMSDK@@@std@@@2@$00@std@@QAE@U_Zero_then_variadic_args_t@1@@Z 0041bab0 f i sdk_util.obj
 0001:0001aab0       ??$?0$$V@?$_Compressed_pair@V?$allocator@U?$_Tree_node@PAVIMeetingChatCtrlEvent@ZOOMSDK@@PAX@std@@@std@@V?$_Tree_val@U?$_Tree_simple_types@PAVIMeetingChatCtrlEvent@ZOOMSDK@@@std@@@2@$00@std@@QAE@U_Zero_then_variadic_args_t@1@@Z 0041bab0 f i sdk_util.obj
 0001:0001aab0       ??$?0$$V@?$_Compressed_pair@V?$allocator@U?$_Tree_node@PAVISDKInMeetingServiceMgrEvent@@PAX@std@@@std@@V?$_Tree_val@U?$_Tree_simple_types@PAVISDKInMeetingServiceMgrEvent@@@std@@@2@$00@std@@QAE@U_Zero_then_variadic_args_t@1@@Z 0041bab0 f i sdk_util.obj
 0001:0001aab0       ??$?0$$V@?$_Compressed_pair@V?$allocator@U?$_Tree_node@PAVIClosedCaptionControllerEvent@ZOOMSDK@@PAX@std@@@std@@V?$_Tree_val@U?$_Tree_simple_types@PAVIClosedCaptionControllerEvent@ZOOMSDK@@@std@@@2@$00@std@@QAE@U_Zero_then_variadic_args_t@1@@Z 0041bab0 f i sdk_util.obj
 0001:0001aad0       ??$?0ABH@?$_List_node_emplace_op2@V?$allocator@U?$_List_node@HPAX@std@@@std@@@std@@QAE@AAV?$allocator@U?$_List_node@HPAX@std@@@1@ABH@Z 0041bad0 f i participant_ui.obj
 0001:0001ab60       ??$MakeDelegate@VCPUserItemEx@@V1@@DuiLib@@YA?AV?$CDelegate@VCPUserItemEx@@V1@@0@PAVCPUserItemEx@@P82@AE_NPAX@Z@Z 0041bb60 f i participant_ui.obj
 0001:0001ab90       ??$_Emplace@ABH@?$list@HV?$allocator@H@std@@@std@@QAEPAU?$_List_node@HPAX@1@QAU21@ABH@Z 0041bb90 f i participant_ui.obj
 0001:0001ac20       ??$_Free_non_head@V?$allocator@U?$_List_node@HPAX@std@@@std@@@?$_List_node@HPAX@std@@SAXAAV?$allocator@U?$_List_node@HPAX@std@@@1@PAU01@@Z 0041bc20 f i participant_ui.obj
 0001:0001ac70       ??$_Freenode0@V?$allocator@U?$_List_node@HPAX@std@@@std@@@?$_List_node@HPAX@std@@SAXAAV?$allocator@U?$_List_node@HPAX@std@@@1@PAU01@@Z 0041bc70 f i participant_ui.obj
 0001:0001ace0       ??$_Freenode@V?$allocator@U?$_List_node@HPAX@std@@@std@@@?$_List_node@HPAX@std@@SAXAAV?$allocator@U?$_List_node@HPAX@std@@@1@PAU01@@Z 0041bce0 f i participant_ui.obj
 0001:0001ad50       ??$_Get_size_of_n@$0M@@std@@YAII@Z 0041bd50 f i participant_ui.obj
 0001:0001ad80       ??$construct@PAVIPreMeetingServiceEvent@ZOOMSDK@@ABQAV12@@?$_Default_allocator_traits@V?$allocator@U?$_Tree_node@PAVIPreMeetingServiceEvent@ZOOMSDK@@PAX@std@@@std@@@std@@SAXAAV?$allocator@U?$_Tree_node@PAVIPreMeetingServiceEvent@ZOOMSDK@@PAX@std@@@1@QAPAVIPreMeetingServiceEvent@ZOOMSDK@@ABQAV34@@Z 0041bd80 f i sdk_util.obj
 0001:0001ad80       ??$construct@PAVISDKInMeetingServiceMgrEvent@@ABQAV1@@?$_Default_allocator_traits@V?$allocator@U?$_Tree_node@PAVISDKInMeetingServiceMgrEvent@@PAX@std@@@std@@@std@@SAXAAV?$allocator@U?$_Tree_node@PAVISDKInMeetingServiceMgrEvent@@PAX@std@@@1@QAPAVISDKInMeetingServiceMgrEvent@@ABQAV3@@Z 0041bd80 f i sdk_util.obj
 0001:0001ad80       ??$construct@PAVIAuthServiceEvent@ZOOMSDK@@ABQAV12@@?$_Default_allocator_traits@V?$allocator@U?$_Tree_node@PAVIAuthServiceEvent@ZOOMSDK@@PAX@std@@@std@@@std@@SAXAAV?$allocator@U?$_Tree_node@PAVIAuthServiceEvent@ZOOMSDK@@PAX@std@@@1@QAPAVIAuthServiceEvent@ZOOMSDK@@ABQAV34@@Z 0041bd80 f i sdk_util.obj
 0001:0001ad80       ??$construct@PAVIClosedCaptionControllerEvent@ZOOMSDK@@ABQAV12@@?$_Default_allocator_traits@V?$allocator@U?$_Tree_node@PAVIClosedCaptionControllerEvent@ZOOMSDK@@PAX@std@@@std@@@std@@SAXAAV?$allocator@U?$_Tree_node@PAVIClosedCaptionControllerEvent@ZOOMSDK@@PAX@std@@@1@QAPAVIClosedCaptionControllerEvent@ZOOMSDK@@ABQAV34@@Z 0041bd80 f i sdk_util.obj
 0001:0001ad80       ??$construct@PAVIMeetingServiceEvent@ZOOMSDK@@ABQAV12@@?$_Default_allocator_traits@V?$allocator@U?$_Tree_node@PAVIMeetingServiceEvent@ZOOMSDK@@PAX@std@@@std@@@std@@SAXAAV?$allocator@U?$_Tree_node@PAVIMeetingServiceEvent@ZOOMSDK@@PAX@std@@@1@QAPAVIMeetingServiceEvent@ZOOMSDK@@ABQAV34@@Z 0041bd80 f i sdk_util.obj
 0001:0001ad80       ??$construct@PAVIMeetingChatCtrlEvent@ZOOMSDK@@ABQAV12@@?$_Default_allocator_traits@V?$allocator@U?$_Tree_node@PAVIMeetingChatCtrlEvent@ZOOMSDK@@PAX@std@@@std@@@std@@SAXAAV?$allocator@U?$_Tree_node@PAVIMeetingChatCtrlEvent@ZOOMSDK@@PAX@std@@@1@QAPAVIMeetingChatCtrlEvent@ZOOMSDK@@ABQAV34@@Z 0041bd80 f i sdk_util.obj
 0001:0001ad80       ??$construct@PAVIAlternativeHostInfo@ZOOMSDK@@ABQAV12@@?$_Default_allocator_traits@V?$allocator@PAVIAlternativeHostInfo@ZOOMSDK@@@std@@@std@@SAXAAV?$allocator@PAVIAlternativeHostInfo@ZOOMSDK@@@1@QAPAVIAlternativeHostInfo@ZOOMSDK@@ABQAV34@@Z 0041bd80 f i schedule_meeting_ui.obj
 0001:0001ad80       ??$construct@PAVIInterpreterInfo@ZOOMSDK@@ABQAV12@@?$_Default_allocator_traits@V?$allocator@PAVIInterpreterInfo@ZOOMSDK@@@std@@@std@@SAXAAV?$allocator@PAVIInterpreterInfo@ZOOMSDK@@@1@QAPAVIInterpreterInfo@ZOOMSDK@@ABQAV34@@Z 0041bd80 f i schedule_meeting_ui.obj
 0001:0001ad80       ??$construct@PAVIVirtualBGImageInfo@ZOOMSDK@@ABQAV12@@?$_Default_allocator_traits@V?$allocator@PAVIVirtualBGImageInfo@ZOOMSDK@@@std@@@std@@SAXAAV?$allocator@PAVIVirtualBGImageInfo@ZOOMSDK@@@1@QAPAVIVirtualBGImageInfo@ZOOMSDK@@ABQAV34@@Z 0041bd80 f i settings_ui.obj
 0001:0001ad80       ??$construct@PAVIMeetingVideoCtrlEvent@ZOOMSDK@@ABQAV12@@?$_Default_allocator_traits@V?$allocator@U?$_Tree_node@PAVIMeetingVideoCtrlEvent@ZOOMSDK@@PAX@std@@@std@@@std@@SAXAAV?$allocator@U?$_Tree_node@PAVIMeetingVideoCtrlEvent@ZOOMSDK@@PAX@std@@@1@QAPAVIMeetingVideoCtrlEvent@ZOOMSDK@@ABQAV34@@Z 0041bd80 f i sdk_util.obj
 0001:0001ad80       ??$construct@HABH@?$_Default_allocator_traits@V?$allocator@U?$_List_node@HPAX@std@@@std@@@std@@SAXAAV?$allocator@U?$_List_node@HPAX@std@@@1@QAHABH@Z 0041bd80 f i participant_ui.obj
 0001:0001ad80       ??$construct@PAVIMeetingParticipantsCtrlEvent@ZOOMSDK@@ABQAV12@@?$_Default_allocator_traits@V?$allocator@U?$_Tree_node@PAVIMeetingParticipantsCtrlEvent@ZOOMSDK@@PAX@std@@@std@@@std@@SAXAAV?$allocator@U?$_Tree_node@PAVIMeetingParticipantsCtrlEvent@ZOOMSDK@@PAX@std@@@1@QAPAVIMeetingParticipantsCtrlEvent@ZOOMSDK@@ABQAV34@@Z 0041bd80 f i sdk_util.obj
 0001:0001ad80       ??$construct@PAVIUserInfo@ZOOMSDK@@ABQAV12@@?$_Default_allocator_traits@V?$allocator@PAVIUserInfo@ZOOMSDK@@@std@@@std@@SAXAAV?$allocator@PAVIUserInfo@ZOOMSDK@@@1@QAPAVIUserInfo@ZOOMSDK@@ABQAV34@@Z 0041bd80 f i user_manager.obj
 0001:0001adb0       ??0?$CDelegate@VCPUserItemEx@@V1@@DuiLib@@QAE@ABV01@@Z 0041bdb0 f i participant_ui.obj
 0001:0001ade0       ??0?$CDelegate@VCPUserItemEx@@V1@@DuiLib@@QAE@PAVCPUserItemEx@@P82@AE_NPAX@Z@Z 0041bde0 f i participant_ui.obj
 0001:0001ae10       ??0?$_Alloc_construct_ptr@V?$allocator@U?$_List_node@HPAX@std@@@std@@@std@@QAE@AAV?$allocator@U?$_List_node@HPAX@std@@@1@@Z 0041be10 f i participant_ui.obj
 0001:0001ae10       ??0?$_Alloc_construct_ptr@V?$allocator@U?$_Tree_node@PAVIPreMeetingServiceEvent@ZOOMSDK@@PAX@std@@@std@@@std@@QAE@AAV?$allocator@U?$_Tree_node@PAVIPreMeetingServiceEvent@ZOOMSDK@@PAX@std@@@1@@Z 0041be10 f i sdk_util.obj
 0001:0001ae10       ??0?$_Alloc_construct_ptr@V?$allocator@U?$_Tree_node@PAVIMeetingChatCtrlEvent@ZOOMSDK@@PAX@std@@@std@@@std@@QAE@AAV?$allocator@U?$_Tree_node@PAVIMeetingChatCtrlEvent@ZOOMSDK@@PAX@std@@@1@@Z 0041be10 f i sdk_util.obj
 0001:0001ae10       ??0?$_Alloc_construct_ptr@V?$allocator@U?$_Tree_node@PAVIMeetingVideoCtrlEvent@ZOOMSDK@@PAX@std@@@std@@@std@@QAE@AAV?$allocator@U?$_Tree_node@PAVIMeetingVideoCtrlEvent@ZOOMSDK@@PAX@std@@@1@@Z 0041be10 f i sdk_util.obj
 0001:0001ae10       ??0?$_Alloc_construct_ptr@V?$allocator@U?$_Tree_node@PAVISDKInMeetingServiceMgrEvent@@PAX@std@@@std@@@std@@QAE@AAV?$allocator@U?$_Tree_node@PAVISDKInMeetingServiceMgrEvent@@PAX@std@@@1@@Z 0041be10 f i sdk_util.obj
 0001:0001ae10       ??0?$_Alloc_construct_ptr@V?$allocator@U?$_Tree_node@PAVIAuthServiceEvent@ZOOMSDK@@PAX@std@@@std@@@std@@QAE@AAV?$allocator@U?$_Tree_node@PAVIAuthServiceEvent@ZOOMSDK@@PAX@std@@@1@@Z 0041be10 f i sdk_util.obj
 0001:0001ae10       ??0?$_Alloc_construct_ptr@V?$allocator@U?$_Tree_node@U?$pair@$$CBIPAVIUserInfo@ZOOMSDK@@@std@@PAX@std@@@std@@@std@@QAE@AAV?$allocator@U?$_Tree_node@U?$pair@$$CBIPAVIUserInfo@ZOOMSDK@@@std@@PAX@std@@@1@@Z 0041be10 f i user_manager.obj
 0001:0001ae10       ??0?$_Alloc_construct_ptr@V?$allocator@U?$_Tree_node@U?$pair@$$CBHW4bkItemType@@@std@@PAX@std@@@std@@@std@@QAE@AAV?$allocator@U?$_Tree_node@U?$pair@$$CBHW4bkItemType@@@std@@PAX@std@@@1@@Z 0041be10 f i settings_ui.obj
 0001:0001ae10       ??0?$_Alloc_construct_ptr@V?$allocator@U?$_Tree_node@PAVIClosedCaptionControllerEvent@ZOOMSDK@@PAX@std@@@std@@@std@@QAE@AAV?$allocator@U?$_Tree_node@PAVIClosedCaptionControllerEvent@ZOOMSDK@@PAX@std@@@1@@Z 0041be10 f i sdk_util.obj
 0001:0001ae10       ??0?$_Alloc_construct_ptr@V?$allocator@U?$_Tree_node@PAVIMeetingParticipantsCtrlEvent@ZOOMSDK@@PAX@std@@@std@@@std@@QAE@AAV?$allocator@U?$_Tree_node@PAVIMeetingParticipantsCtrlEvent@ZOOMSDK@@PAX@std@@@1@@Z 0041be10 f i sdk_util.obj
 0001:0001ae10       ??0?$_Alloc_construct_ptr@V?$allocator@U?$_Tree_node@PAVIMeetingServiceEvent@ZOOMSDK@@PAX@std@@@std@@@std@@QAE@AAV?$allocator@U?$_Tree_node@PAVIMeetingServiceEvent@ZOOMSDK@@PAX@std@@@1@@Z 0041be10 f i sdk_util.obj
 0001:0001ae40       ??0?$_Vector_iterator@V?$_Vector_val@U?$_Simple_types@PAVIUserInfo@ZOOMSDK@@@std@@@std@@@std@@QAE@PAPAVIUserInfo@ZOOMSDK@@PBU_Container_base0@1@@Z 0041be40 f i user_manager.obj
 0001:0001ae40       ??0?$_Tree_unchecked_iterator@V?$_Tree_val@U?$_Tree_simple_types@U?$pair@$$CBIPAVIUserInfo@ZOOMSDK@@@std@@@std@@@std@@@std@@QAE@PAU?$_Tree_node@U?$pair@$$CBIPAVIUserInfo@ZOOMSDK@@@std@@PAX@1@PBV?$_Tree_val@U?$_Tree_simple_types@U?$pair@$$CBIPAVIUserInfo@ZOOMSDK@@@std@@@std@@@1@@Z 0041be40 f i user_manager.obj
 0001:0001ae40       ??0?$_Tree_const_iterator@V?$_Tree_val@U?$_Tree_simple_types@PAVIAuthServiceEvent@ZOOMSDK@@@std@@@std@@@std@@QAE@PAU?$_Tree_node@PAVIAuthServiceEvent@ZOOMSDK@@PAX@1@PBV?$_Tree_val@U?$_Tree_simple_types@PAVIAuthServiceEvent@ZOOMSDK@@@std@@@1@@Z 0041be40 f i sdk_util.obj
 0001:0001ae40       ??0?$_Tree_const_iterator@V?$_Tree_val@U?$_Tree_simple_types@PAVIMeetingChatCtrlEvent@ZOOMSDK@@@std@@@std@@@std@@QAE@PAU?$_Tree_node@PAVIMeetingChatCtrlEvent@ZOOMSDK@@PAX@1@PBV?$_Tree_val@U?$_Tree_simple_types@PAVIMeetingChatCtrlEvent@ZOOMSDK@@@std@@@1@@Z 0041be40 f i sdk_util.obj
 0001:0001ae40       ??0?$_Tree_const_iterator@V?$_Tree_val@U?$_Tree_simple_types@PAVIMeetingServiceEvent@ZOOMSDK@@@std@@@std@@@std@@QAE@PAU?$_Tree_node@PAVIMeetingServiceEvent@ZOOMSDK@@PAX@1@PBV?$_Tree_val@U?$_Tree_simple_types@PAVIMeetingServiceEvent@ZOOMSDK@@@std@@@1@@Z 0041be40 f i sdk_util.obj
 0001:0001ae40       ??0?$_Tree_const_iterator@V?$_Tree_val@U?$_Tree_simple_types@PAVISDKInMeetingServiceMgrEvent@@@std@@@std@@@std@@QAE@PAU?$_Tree_node@PAVISDKInMeetingServiceMgrEvent@@PAX@1@PBV?$_Tree_val@U?$_Tree_simple_types@PAVISDKInMeetingServiceMgrEvent@@@std@@@1@@Z 0041be40 f i sdk_util.obj
 0001:0001ae40       ??0?$_Tree_const_iterator@V?$_Tree_val@U?$_Tree_simple_types@PAVIMeetingParticipantsCtrlEvent@ZOOMSDK@@@std@@@std@@@std@@QAE@PAU?$_Tree_node@PAVIMeetingParticipantsCtrlEvent@ZOOMSDK@@PAX@1@PBV?$_Tree_val@U?$_Tree_simple_types@PAVIMeetingParticipantsCtrlEvent@ZOOMSDK@@@std@@@1@@Z 0041be40 f i sdk_util.obj
 0001:0001ae40       ??0?$_Tree_const_iterator@V?$_Tree_val@U?$_Tree_simple_types@PAVIPreMeetingServiceEvent@ZOOMSDK@@@std@@@std@@@std@@QAE@PAU?$_Tree_node@PAVIPreMeetingServiceEvent@ZOOMSDK@@PAX@1@PBV?$_Tree_val@U?$_Tree_simple_types@PAVIPreMeetingServiceEvent@ZOOMSDK@@@std@@@1@@Z 0041be40 f i sdk_util.obj
 0001:0001ae40       ??0?$_Tree_const_iterator@V?$_Tree_val@U?$_Tree_simple_types@U?$pair@$$CBIPAVIUserInfo@ZOOMSDK@@@std@@@std@@@std@@@std@@QAE@PAU?$_Tree_node@U?$pair@$$CBIPAVIUserInfo@ZOOMSDK@@@std@@PAX@1@PBV?$_Tree_val@U?$_Tree_simple_types@U?$pair@$$CBIPAVIUserInfo@ZOOMSDK@@@std@@@std@@@1@@Z 0041be40 f i user_manager.obj
 0001:0001ae40       ??0?$_Tree_const_iterator@V?$_Tree_val@U?$_Tree_simple_types@PAVIMeetingVideoCtrlEvent@ZOOMSDK@@@std@@@std@@@std@@QAE@PAU?$_Tree_node@PAVIMeetingVideoCtrlEvent@ZOOMSDK@@PAX@1@PBV?$_Tree_val@U?$_Tree_simple_types@PAVIMeetingVideoCtrlEvent@ZOOMSDK@@@std@@@1@@Z 0041be40 f i sdk_util.obj
 0001:0001ae40       ??0?$_Tree_unchecked_iterator@V?$_Tree_val@U?$_Tree_simple_types@U?$pair@$$CBHW4bkItemType@@@std@@@std@@@std@@@std@@QAE@PAU?$_Tree_node@U?$pair@$$CBHW4bkItemType@@@std@@PAX@1@PBV?$_Tree_val@U?$_Tree_simple_types@U?$pair@$$CBHW4bkItemType@@@std@@@std@@@1@@Z 0041be40 f i settings_ui.obj
 0001:0001ae40       ??0?$_List_const_iterator@V?$_List_val@U?$_List_simple_types@H@std@@@std@@@std@@QAE@PAU?$_List_node@HPAX@1@PBV?$_List_val@U?$_List_simple_types@H@std@@@1@@Z 0041be40 f i participant_ui.obj
 0001:0001ae40       ??0?$_Tree_const_iterator@V?$_Tree_val@U?$_Tree_simple_types@U?$pair@$$CBHW4bkItemType@@@std@@@std@@@std@@@std@@QAE@PAU?$_Tree_node@U?$pair@$$CBHW4bkItemType@@@std@@PAX@1@PBV?$_Tree_val@U?$_Tree_simple_types@U?$pair@$$CBHW4bkItemType@@@std@@@std@@@1@@Z 0041be40 f i settings_ui.obj
 0001:0001ae40       ??0?$_Tree_const_iterator@V?$_Tree_val@U?$_Tree_simple_types@PAVIClosedCaptionControllerEvent@ZOOMSDK@@@std@@@std@@@std@@QAE@PAU?$_Tree_node@PAVIClosedCaptionControllerEvent@ZOOMSDK@@PAX@1@PBV?$_Tree_val@U?$_Tree_simple_types@PAVIClosedCaptionControllerEvent@ZOOMSDK@@@std@@@1@@Z 0041be40 f i sdk_util.obj
 0001:0001ae60       ??0?$_Tree_iterator@V?$_Tree_val@U?$_Tree_simple_types@U?$pair@$$CBHW4bkItemType@@@std@@@std@@@std@@@std@@QAE@PAU?$_Tree_node@U?$pair@$$CBHW4bkItemType@@@std@@PAX@1@PBV?$_Tree_val@U?$_Tree_simple_types@U?$pair@$$CBHW4bkItemType@@@std@@@std@@@1@@Z 0041be60 f i settings_ui.obj
 0001:0001ae60       ??0?$_Tree_iterator@V?$_Tree_val@U?$_Tree_simple_types@U?$pair@$$CBIPAVIUserInfo@ZOOMSDK@@@std@@@std@@@std@@@std@@QAE@PAU?$_Tree_node@U?$pair@$$CBIPAVIUserInfo@ZOOMSDK@@@std@@PAX@1@PBV?$_Tree_val@U?$_Tree_simple_types@U?$pair@$$CBIPAVIUserInfo@ZOOMSDK@@@std@@@std@@@1@@Z 0041be60 f i user_manager.obj
 0001:0001ae60       ??0?$_List_iterator@V?$_List_val@U?$_List_simple_types@H@std@@@std@@@std@@QAE@PAU?$_List_node@HPAX@1@PBV?$_List_val@U?$_List_simple_types@H@std@@@1@@Z 0041be60 f i participant_ui.obj
 0001:0001ae80       ??0?$_Tree_unchecked_const_iterator@V?$_Tree_val@U?$_Tree_simple_types@U?$pair@$$CBIPAVIUserInfo@ZOOMSDK@@@std@@@std@@@std@@U_Iterator_base0@2@@std@@QAE@PAU?$_Tree_node@U?$pair@$$CBIPAVIUserInfo@ZOOMSDK@@@std@@PAX@1@PBV?$_Tree_val@U?$_Tree_simple_types@U?$pair@$$CBIPAVIUserInfo@ZOOMSDK@@@std@@@std@@@1@@Z 0041be80 f i user_manager.obj
 0001:0001ae80       ??0?$_Vector_const_iterator@V?$_Vector_val@U?$_Simple_types@PAVIUserInfo@ZOOMSDK@@@std@@@std@@@std@@QAE@PAPAVIUserInfo@ZOOMSDK@@PBU_Container_base0@1@@Z 0041be80 f i user_manager.obj
 0001:0001ae80       ??0?$_Tree_unchecked_const_iterator@V?$_Tree_val@U?$_Tree_simple_types@PAVIMeetingChatCtrlEvent@ZOOMSDK@@@std@@@std@@U_Iterator_base0@2@@std@@QAE@PAU?$_Tree_node@PAVIMeetingChatCtrlEvent@ZOOMSDK@@PAX@1@PBV?$_Tree_val@U?$_Tree_simple_types@PAVIMeetingChatCtrlEvent@ZOOMSDK@@@std@@@1@@Z 0041be80 f i sdk_util.obj
 0001:0001ae80       ??0?$_Tree_unchecked_const_iterator@V?$_Tree_val@U?$_Tree_simple_types@PAVIMeetingServiceEvent@ZOOMSDK@@@std@@@std@@U_Iterator_base0@2@@std@@QAE@PAU?$_Tree_node@PAVIMeetingServiceEvent@ZOOMSDK@@PAX@1@PBV?$_Tree_val@U?$_Tree_simple_types@PAVIMeetingServiceEvent@ZOOMSDK@@@std@@@1@@Z 0041be80 f i sdk_util.obj
 0001:0001ae80       ??0?$_Tree_unchecked_const_iterator@V?$_Tree_val@U?$_Tree_simple_types@PAVISDKInMeetingServiceMgrEvent@@@std@@@std@@U_Iterator_base0@2@@std@@QAE@PAU?$_Tree_node@PAVISDKInMeetingServiceMgrEvent@@PAX@1@PBV?$_Tree_val@U?$_Tree_simple_types@PAVISDKInMeetingServiceMgrEvent@@@std@@@1@@Z 0041be80 f i sdk_util.obj
 0001:0001ae80       ??0?$_Tree_unchecked_const_iterator@V?$_Tree_val@U?$_Tree_simple_types@PAVIMeetingParticipantsCtrlEvent@ZOOMSDK@@@std@@@std@@U_Iterator_base0@2@@std@@QAE@PAU?$_Tree_node@PAVIMeetingParticipantsCtrlEvent@ZOOMSDK@@PAX@1@PBV?$_Tree_val@U?$_Tree_simple_types@PAVIMeetingParticipantsCtrlEvent@ZOOMSDK@@@std@@@1@@Z 0041be80 f i sdk_util.obj
 0001:0001ae80       ??0?$_List_unchecked_const_iterator@V?$_List_val@U?$_List_simple_types@H@std@@@std@@U_Iterator_base0@2@@std@@QAE@PAU?$_List_node@HPAX@1@PBV?$_List_val@U?$_List_simple_types@H@std@@@1@@Z 0041be80 f i participant_ui.obj
 0001:0001ae80       ??0?$_Tree_unchecked_const_iterator@V?$_Tree_val@U?$_Tree_simple_types@PAVIAuthServiceEvent@ZOOMSDK@@@std@@@std@@U_Iterator_base0@2@@std@@QAE@PAU?$_Tree_node@PAVIAuthServiceEvent@ZOOMSDK@@PAX@1@PBV?$_Tree_val@U?$_Tree_simple_types@PAVIAuthServiceEvent@ZOOMSDK@@@std@@@1@@Z 0041be80 f i sdk_util.obj
 0001:0001ae80       ??0?$_Tree_unchecked_const_iterator@V?$_Tree_val@U?$_Tree_simple_types@PAVIClosedCaptionControllerEvent@ZOOMSDK@@@std@@@std@@U_Iterator_base0@2@@std@@QAE@PAU?$_Tree_node@PAVIClosedCaptionControllerEvent@ZOOMSDK@@PAX@1@PBV?$_Tree_val@U?$_Tree_simple_types@PAVIClosedCaptionControllerEvent@ZOOMSDK@@@std@@@1@@Z 0041be80 f i sdk_util.obj
 0001:0001ae80       ??0?$_Tree_unchecked_const_iterator@V?$_Tree_val@U?$_Tree_simple_types@PAVIPreMeetingServiceEvent@ZOOMSDK@@@std@@@std@@U_Iterator_base0@2@@std@@QAE@PAU?$_Tree_node@PAVIPreMeetingServiceEvent@ZOOMSDK@@PAX@1@PBV?$_Tree_val@U?$_Tree_simple_types@PAVIPreMeetingServiceEvent@ZOOMSDK@@@std@@@1@@Z 0041be80 f i sdk_util.obj
 0001:0001ae80       ??0?$_Tree_unchecked_const_iterator@V?$_Tree_val@U?$_Tree_simple_types@PAVIMeetingVideoCtrlEvent@ZOOMSDK@@@std@@@std@@U_Iterator_base0@2@@std@@QAE@PAU?$_Tree_node@PAVIMeetingVideoCtrlEvent@ZOOMSDK@@PAX@1@PBV?$_Tree_val@U?$_Tree_simple_types@PAVIMeetingVideoCtrlEvent@ZOOMSDK@@@std@@@1@@Z 0041be80 f i sdk_util.obj
 0001:0001ae80       ??0?$_Tree_unchecked_const_iterator@V?$_Tree_val@U?$_Tree_simple_types@U?$pair@$$CBHW4bkItemType@@@std@@@std@@@std@@U_Iterator_base0@2@@std@@QAE@PAU?$_Tree_node@U?$pair@$$CBHW4bkItemType@@@std@@PAX@1@PBV?$_Tree_val@U?$_Tree_simple_types@U?$pair@$$CBHW4bkItemType@@@std@@@std@@@1@@Z 0041be80 f i settings_ui.obj
 0001:0001aeb0       ??0?$list@HV?$allocator@H@std@@@std@@QAE@XZ 0041beb0 f i participant_ui.obj
 0001:0001aee0       ??0CPUserItemEx@@QAE@XZ    0041bee0 f   participant_ui.obj
 0001:0001afd0       ??0CParticipantUIMgr@@QAE@PAVCCustomizeInMeetingUIMgr@@@Z 0041bfd0 f   participant_ui.obj
 0001:0001b070       ??0CRect@@QAE@ABUtagRECT@@@Z 0041c070 f i participant_ui.obj
 0001:0001b090       ??0IDialogBuilderCallback@DuiLib@@QAE@XZ 0041c090 f i participant_ui.obj
 0001:0001b0b0       ??1?$CDelegate@VCPUserItemEx@@V1@@DuiLib@@UAE@XZ 0041c0b0 f i participant_ui.obj
 0001:0001b0b0       ??1?$CDelegate@VCTreeViewUI@DuiLib@@V12@@DuiLib@@UAE@XZ 0041c0b0 f i DuiLib:UITreeView.obj
 0001:0001b0d0       ??1?$_Alloc_construct_ptr@V?$allocator@U?$_List_node@HPAX@std@@@std@@@std@@QAE@XZ 0041c0d0 f i participant_ui.obj
 0001:0001b130       ??1?$_List_node_emplace_op2@V?$allocator@U?$_List_node@HPAX@std@@@std@@@std@@QAE@XZ 0041c130 f i participant_ui.obj
 0001:0001b1a0       ??1?$list@HV?$allocator@H@std@@@std@@QAE@XZ 0041c1a0 f i participant_ui.obj
 0001:0001b1c0       ??1CListContainerElementUI@DuiLib@@UAE@XZ 0041c1c0 f i participant_ui.obj
 0001:0001b1c0       ??1CVerticalLayoutUI@DuiLib@@UAE@XZ 0041c1c0 f i DuiLib:UIList.obj
 0001:0001b1e0       ??1CPUserItemEx@@UAE@XZ    0041c1e0 f   participant_ui.obj
 0001:0001b290       ??1CParticipantUIMgr@@QAE@XZ 0041c290 f   participant_ui.obj
 0001:0001b320       ??8?$_Tree_unchecked_const_iterator@V?$_Tree_val@U?$_Tree_simple_types@PAVISDKInMeetingServiceMgrEvent@@@std@@@std@@U_Iterator_base0@2@@std@@QBE_NABV01@@Z 0041c320 f i sdk_util.obj
 0001:0001b320       ??8?$_Tree_unchecked_const_iterator@V?$_Tree_val@U?$_Tree_simple_types@PAVIMeetingServiceEvent@ZOOMSDK@@@std@@@std@@U_Iterator_base0@2@@std@@QBE_NABV01@@Z 0041c320 f i sdk_util.obj
 0001:0001b320       ??8?$_Tree_unchecked_const_iterator@V?$_Tree_val@U?$_Tree_simple_types@U?$pair@$$CBHW4bkItemType@@@std@@@std@@@std@@U_Iterator_base0@2@@std@@QBE_NABV01@@Z 0041c320 f i settings_ui.obj
 0001:0001b320       ??8?$_Tree_const_iterator@V?$_Tree_val@U?$_Tree_simple_types@U?$pair@$$CBHW4bkItemType@@@std@@@std@@@std@@@std@@QBE_NABV01@@Z 0041c320 f i settings_ui.obj
 0001:0001b320       ??8?$_Tree_unchecked_const_iterator@V?$_Tree_val@U?$_Tree_simple_types@PAVIMeetingParticipantsCtrlEvent@ZOOMSDK@@@std@@@std@@U_Iterator_base0@2@@std@@QBE_NABV01@@Z 0041c320 f i sdk_util.obj
 0001:0001b320       ??8?$_Tree_unchecked_const_iterator@V?$_Tree_val@U?$_Tree_simple_types@PAVIMeetingVideoCtrlEvent@ZOOMSDK@@@std@@@std@@U_Iterator_base0@2@@std@@QBE_NABV01@@Z 0041c320 f i sdk_util.obj
 0001:0001b320       ??8?$_Tree_const_iterator@V?$_Tree_val@U?$_Tree_simple_types@PAVIClosedCaptionControllerEvent@ZOOMSDK@@@std@@@std@@@std@@QBE_NABV01@@Z 0041c320 f i sdk_util.obj
 0001:0001b320       ??8?$_Tree_const_iterator@V?$_Tree_val@U?$_Tree_simple_types@PAVIMeetingChatCtrlEvent@ZOOMSDK@@@std@@@std@@@std@@QBE_NABV01@@Z 0041c320 f i sdk_util.obj
 0001:0001b320       ??8?$_Tree_unchecked_const_iterator@V?$_Tree_val@U?$_Tree_simple_types@PAVIClosedCaptionControllerEvent@ZOOMSDK@@@std@@@std@@U_Iterator_base0@2@@std@@QBE_NABV01@@Z 0041c320 f i sdk_util.obj
 0001:0001b320       ??8?$_Tree_const_iterator@V?$_Tree_val@U?$_Tree_simple_types@PAVIAuthServiceEvent@ZOOMSDK@@@std@@@std@@@std@@QBE_NABV01@@Z 0041c320 f i sdk_util.obj
 0001:0001b320       ??8?$_Tree_unchecked_const_iterator@V?$_Tree_val@U?$_Tree_simple_types@PAVIAuthServiceEvent@ZOOMSDK@@@std@@@std@@U_Iterator_base0@2@@std@@QBE_NABV01@@Z 0041c320 f i sdk_util.obj
 0001:0001b320       ??8?$_Tree_const_iterator@V?$_Tree_val@U?$_Tree_simple_types@PAVISDKInMeetingServiceMgrEvent@@@std@@@std@@@std@@QBE_NABV01@@Z 0041c320 f i sdk_util.obj
 0001:0001b320       ??8?$_Tree_const_iterator@V?$_Tree_val@U?$_Tree_simple_types@U?$pair@$$CBIPAVIUserInfo@ZOOMSDK@@@std@@@std@@@std@@@std@@QBE_NABV01@@Z 0041c320 f i user_manager.obj
 0001:0001b320       ??8?$_Tree_const_iterator@V?$_Tree_val@U?$_Tree_simple_types@PAVIMeetingParticipantsCtrlEvent@ZOOMSDK@@@std@@@std@@@std@@QBE_NABV01@@Z 0041c320 f i sdk_util.obj
 0001:0001b320       ??8?$_Tree_const_iterator@V?$_Tree_val@U?$_Tree_simple_types@PAVIMeetingVideoCtrlEvent@ZOOMSDK@@@std@@@std@@@std@@QBE_NABV01@@Z 0041c320 f i sdk_util.obj
 0001:0001b320       ??8?$_List_const_iterator@V?$_List_val@U?$_List_simple_types@H@std@@@std@@@std@@QBE_NABV01@@Z 0041c320 f i participant_ui.obj
 0001:0001b320       ??8?$_Tree_unchecked_const_iterator@V?$_Tree_val@U?$_Tree_simple_types@PAVIPreMeetingServiceEvent@ZOOMSDK@@@std@@@std@@U_Iterator_base0@2@@std@@QBE_NABV01@@Z 0041c320 f i sdk_util.obj
 0001:0001b320       ??8?$_Tree_unchecked_const_iterator@V?$_Tree_val@U?$_Tree_simple_types@PAVIMeetingChatCtrlEvent@ZOOMSDK@@@std@@@std@@U_Iterator_base0@2@@std@@QBE_NABV01@@Z 0041c320 f i sdk_util.obj
 0001:0001b320       ??8?$_Tree_const_iterator@V?$_Tree_val@U?$_Tree_simple_types@PAVIPreMeetingServiceEvent@ZOOMSDK@@@std@@@std@@@std@@QBE_NABV01@@Z 0041c320 f i sdk_util.obj
 0001:0001b320       ??8?$_Tree_const_iterator@V?$_Tree_val@U?$_Tree_simple_types@PAVIMeetingServiceEvent@ZOOMSDK@@@std@@@std@@@std@@QBE_NABV01@@Z 0041c320 f i sdk_util.obj
 0001:0001b350       ??9?$_Tree_unchecked_const_iterator@V?$_Tree_val@U?$_Tree_simple_types@PAVIMeetingVideoCtrlEvent@ZOOMSDK@@@std@@@std@@U_Iterator_base0@2@@std@@QBE_NABV01@@Z 0041c350 f i sdk_util.obj
 0001:0001b350       ??9?$_Tree_const_iterator@V?$_Tree_val@U?$_Tree_simple_types@U?$pair@$$CBHW4bkItemType@@@std@@@std@@@std@@@std@@QBE_NABV01@@Z 0041c350 f i settings_ui.obj
 0001:0001b350       ??9?$_Tree_unchecked_const_iterator@V?$_Tree_val@U?$_Tree_simple_types@U?$pair@$$CBHW4bkItemType@@@std@@@std@@@std@@U_Iterator_base0@2@@std@@QBE_NABV01@@Z 0041c350 f i settings_ui.obj
 0001:0001b350       ??9?$_Tree_unchecked_const_iterator@V?$_Tree_val@U?$_Tree_simple_types@PAVIMeetingParticipantsCtrlEvent@ZOOMSDK@@@std@@@std@@U_Iterator_base0@2@@std@@QBE_NABV01@@Z 0041c350 f i sdk_util.obj
 0001:0001b350       ??9?$_Tree_const_iterator@V?$_Tree_val@U?$_Tree_simple_types@PAVIMeetingChatCtrlEvent@ZOOMSDK@@@std@@@std@@@std@@QBE_NABV01@@Z 0041c350 f i sdk_util.obj
 0001:0001b350       ??9?$_Tree_const_iterator@V?$_Tree_val@U?$_Tree_simple_types@PAVIMeetingServiceEvent@ZOOMSDK@@@std@@@std@@@std@@QBE_NABV01@@Z 0041c350 f i sdk_util.obj
 0001:0001b350       ??9?$_Tree_const_iterator@V?$_Tree_val@U?$_Tree_simple_types@PAVIMeetingVideoCtrlEvent@ZOOMSDK@@@std@@@std@@@std@@QBE_NABV01@@Z 0041c350 f i sdk_util.obj
 0001:0001b350       ??9?$_Tree_unchecked_const_iterator@V?$_Tree_val@U?$_Tree_simple_types@PAVIPreMeetingServiceEvent@ZOOMSDK@@@std@@@std@@U_Iterator_base0@2@@std@@QBE_NABV01@@Z 0041c350 f i sdk_util.obj
 0001:0001b350       ??9?$_Tree_unchecked_const_iterator@V?$_Tree_val@U?$_Tree_simple_types@PAVIMeetingServiceEvent@ZOOMSDK@@@std@@@std@@U_Iterator_base0@2@@std@@QBE_NABV01@@Z 0041c350 f i sdk_util.obj
 0001:0001b350       ??9?$_Tree_const_iterator@V?$_Tree_val@U?$_Tree_simple_types@PAVIPreMeetingServiceEvent@ZOOMSDK@@@std@@@std@@@std@@QBE_NABV01@@Z 0041c350 f i sdk_util.obj
 0001:0001b350       ??9?$_Tree_unchecked_const_iterator@V?$_Tree_val@U?$_Tree_simple_types@PAVISDKInMeetingServiceMgrEvent@@@std@@@std@@U_Iterator_base0@2@@std@@QBE_NABV01@@Z 0041c350 f i sdk_util.obj
 0001:0001b350       ??9?$_Tree_unchecked_const_iterator@V?$_Tree_val@U?$_Tree_simple_types@PAVIMeetingChatCtrlEvent@ZOOMSDK@@@std@@@std@@U_Iterator_base0@2@@std@@QBE_NABV01@@Z 0041c350 f i sdk_util.obj
 0001:0001b350       ??9?$_Tree_const_iterator@V?$_Tree_val@U?$_Tree_simple_types@PAVIAuthServiceEvent@ZOOMSDK@@@std@@@std@@@std@@QBE_NABV01@@Z 0041c350 f i sdk_util.obj
 0001:0001b350       ??9?$_Tree_const_iterator@V?$_Tree_val@U?$_Tree_simple_types@PAVIClosedCaptionControllerEvent@ZOOMSDK@@@std@@@std@@@std@@QBE_NABV01@@Z 0041c350 f i sdk_util.obj
 0001:0001b350       ??9?$_Tree_const_iterator@V?$_Tree_val@U?$_Tree_simple_types@PAVIMeetingParticipantsCtrlEvent@ZOOMSDK@@@std@@@std@@@std@@QBE_NABV01@@Z 0041c350 f i sdk_util.obj
 0001:0001b350       ??9?$_List_const_iterator@V?$_List_val@U?$_List_simple_types@H@std@@@std@@@std@@QBE_NABV01@@Z 0041c350 f i participant_ui.obj
 0001:0001b350       ??9?$_Tree_unchecked_const_iterator@V?$_Tree_val@U?$_Tree_simple_types@PAVIAuthServiceEvent@ZOOMSDK@@@std@@@std@@U_Iterator_base0@2@@std@@QBE_NABV01@@Z 0041c350 f i sdk_util.obj
 0001:0001b350       ??9?$_Tree_const_iterator@V?$_Tree_val@U?$_Tree_simple_types@PAVISDKInMeetingServiceMgrEvent@@@std@@@std@@@std@@QBE_NABV01@@Z 0041c350 f i sdk_util.obj
 0001:0001b350       ??9?$_Tree_const_iterator@V?$_Tree_val@U?$_Tree_simple_types@U?$pair@$$CBIPAVIUserInfo@ZOOMSDK@@@std@@@std@@@std@@@std@@QBE_NABV01@@Z 0041c350 f i user_manager.obj
 0001:0001b350       ??9?$_Tree_unchecked_const_iterator@V?$_Tree_val@U?$_Tree_simple_types@PAVIClosedCaptionControllerEvent@ZOOMSDK@@@std@@@std@@U_Iterator_base0@2@@std@@QBE_NABV01@@Z 0041c350 f i sdk_util.obj
 0001:0001b390       ??D?$_List_const_iterator@V?$_List_val@U?$_List_simple_types@H@std@@@std@@@std@@QBEABHXZ 0041c390 f i participant_ui.obj
 0001:0001b3b0       ??D?$_List_iterator@V?$_List_val@U?$_List_simple_types@H@std@@@std@@@std@@QBEAAHXZ 0041c3b0 f i participant_ui.obj
 0001:0001b3d0       ??E?$_List_const_iterator@V?$_List_val@U?$_List_simple_types@H@std@@@std@@@std@@QAEAAV01@XZ 0041c3d0 f i participant_ui.obj
 0001:0001b3f0       ??E?$_List_iterator@V?$_List_val@U?$_List_simple_types@H@std@@@std@@@std@@QAE?AV01@H@Z 0041c3f0 f i participant_ui.obj
 0001:0001b420       ??_E?$CDelegate@VCPUserItemEx@@V1@@DuiLib@@UAEPAXI@Z 0041c420 f i participant_ui.obj
 0001:0001b420       ??_G?$CDelegate@VCPUserItemEx@@V1@@DuiLib@@UAEPAXI@Z 0041c420 f i participant_ui.obj
 0001:0001b450       ??_ECPUserItemEx@@UAEPAXI@Z 0041c450 f i participant_ui.obj
 0001:0001b450       ??_GCPUserItemEx@@UAEPAXI@Z 0041c450 f i participant_ui.obj
 0001:0001b490       ??_GParticipantPopMenu@@QAEPAXI@Z 0041c490 f i participant_ui.obj
 0001:0001b4c0       ?Copy@?$CDelegate@VCPUserItemEx@@V1@@DuiLib@@UBEPAVCDelegateBase@2@XZ 0041c4c0 f i participant_ui.obj
 0001:0001b540       ?CreateControl@CParticipantUIMgr@@UAEPAVCControlUI@DuiLib@@PB_W@Z 0041c540 f   participant_ui.obj
 0001:0001b630       ?GetSkinRes@CParticipantUIMgr@@UAEIXZ 0041c630 f i participant_ui.obj
 0001:0001b640       ?GetUserByID@CParticipantUIMgr@@QAEPAVIUserInfo@ZOOMSDK@@I@Z 0041c640 f   participant_ui.obj
 0001:0001b670       ?GetStrokeColor@CLabelUI@DuiLib@@QAEKXZ 0041c670 f   DuiLib:UILabel.obj
 0001:0001b670       ?GetItemTextColor@CTreeNodeUI@DuiLib@@QBEKXZ 0041c670 f   DuiLib:UITreeView.obj
 0001:0001b670       ?GetUserID@CPUserItemEx@@QAEIXZ 0041c670 f   participant_ui.obj
 0001:0001b690       ?GetUserList@CParticipantUIMgr@@QAEXXZ 0041c690 f   participant_ui.obj
 0001:0001b6c0       ?HandleMessage@CParticipantUIMgr@@UAEJIIJ@Z 0041c6c0 f   participant_ui.obj
 0001:0001b8a0       ?HandleUserChanged@CParticipantUIMgr@@QAEXW4SDKUserChangedType@@@Z 0041c8a0 f   participant_ui.obj
 0001:0001b8f0       ?InitControls@CPUserItemEx@@QAEXXZ 0041c8f0 f   participant_ui.obj
 0001:0001ba20       ?InitListUI@CParticipantUIMgr@@QAEXXZ 0041ca20 f   participant_ui.obj
 0001:0001bc30       ?InitWindow@CParticipantUIMgr@@UAEXXZ 0041cc30 f   participant_ui.obj
 0001:0001bd20       ?Invoke@?$CDelegate@VCPUserItemEx@@V1@@DuiLib@@MAE_NPAX@Z 0041cd20 f i participant_ui.obj
 0001:0001bd20       ?Invoke@?$CDelegate@VCTreeViewUI@DuiLib@@V12@@DuiLib@@MAE_NPAX@Z 0041cd20 f i DuiLib:UITreeView.obj
 0001:0001bd60       ?IsSelected@CPUserItemEx@@UBE_NXZ 0041cd60 f   participant_ui.obj
 0001:0001bd80       ?Notify@CParticipantUIMgr@@UAEXAAUtagTNotifyUI@DuiLib@@@Z 0041cd80 f   participant_ui.obj
 0001:0001bee0       ?OnSelfItemSize@CPUserItemEx@@AAE_NPAX@Z 0041cee0 f   participant_ui.obj
 0001:0001c370       ?RemoveListItem@CParticipantUIMgr@@AAEXXZ 0041d370 f   participant_ui.obj
 0001:0001c5b0       ?ResetWindowTitle@CParticipantUIMgr@@AAEXXZ 0041d5b0 f   participant_ui.obj
 0001:0001c670       ?SetUIMgr@CPUserItemEx@@QAEXPAVCParticipantUIMgr@@@Z 0041d670 f   participant_ui.obj
 0001:0001c6a0       ?SetUserID@CPUserItemEx@@QAEXI@Z 0041d6a0 f   participant_ui.obj
 0001:0001c700       ?UpdateItemInfo@CPUserItemEx@@QAEXXZ 0041d700 f   participant_ui.obj
 0001:0001c740       ?UpdateListItem@CParticipantUIMgr@@AAEXXZ 0041d740 f   participant_ui.obj
 0001:0001ca00       ?UpdateName@CPUserItemEx@@QAEXXZ 0041da00 f   participant_ui.obj
 0001:0001cb70       ?UpdateUserAudioStatus@CPUserItemEx@@QAEXXZ 0041db70 f   participant_ui.obj
 0001:0001cce0       ?UpdateUserInfo@CPUserItemEx@@QAEXXZ 0041dce0 f   participant_ui.obj
 0001:0001cd00       ?UpdateUserLowerHandStatus@CPUserItemEx@@QAEXXZ 0041dd00 f   participant_ui.obj
 0001:0001cd90       ?UpdateUserVideoStatus@CPUserItemEx@@QAEXXZ 0041dd90 f   participant_ui.obj
 0001:0001ceb0       ?_Alloc_sentinel_and_proxy@?$list@HV?$allocator@H@std@@@std@@AAEXXZ 0041deb0 f i participant_ui.obj
 0001:0001cf20       ?_Allocate@?$_Alloc_construct_ptr@V?$allocator@U?$_List_node@HPAX@std@@@std@@@std@@QAEXXZ 0041df20 f i participant_ui.obj
 0001:0001cf50       ?_Tidy@?$list@HV?$allocator@H@std@@@std@@AAEXXZ 0041df50 f i participant_ui.obj
 0001:0001cfa0       ?_Transfer_before@?$_List_node_emplace_op2@V?$allocator@U?$_List_node@HPAX@std@@@std@@@std@@QAEPAU?$_List_node@HPAX@2@QAU32@@Z 0041dfa0 f i participant_ui.obj
 0001:0001d010       ?allocate@?$allocator@U?$_List_node@HPAX@std@@@std@@QAEPAU?$_List_node@HPAX@2@I@Z 0041e010 f i participant_ui.obj
 0001:0001d040       ?begin@?$list@HV?$allocator@H@std@@@std@@QAE?AV?$_List_iterator@V?$_List_val@U?$_List_simple_types@H@std@@@std@@@2@XZ 0041e040 f i participant_ui.obj
 0001:0001d070       ?deallocate@?$_Default_allocator_traits@V?$allocator@U?$_List_node@HPAX@std@@@std@@@std@@SAXAAV?$allocator@U?$_List_node@HPAX@std@@@2@QAU?$_List_node@HPAX@2@I@Z 0041e070 f i participant_ui.obj
 0001:0001d090       ?deallocate@?$allocator@U?$_List_node@HPAX@std@@@std@@QAEXQAU?$_List_node@HPAX@2@I@Z 0041e090 f i participant_ui.obj
 0001:0001d0b0       ?IsEmpty@CDuiPtrArray@DuiLib@@QBE_NXZ 0041e0b0 f i DuiLib:Utils.obj
 0001:0001d0b0       ?empty@?$list@HV?$allocator@H@std@@@std@@QBE_NXZ 0041e0b0 f i participant_ui.obj
 0001:0001d0e0       ?end@?$list@HV?$allocator@H@std@@@std@@QAE?AV?$_List_iterator@V?$_List_val@U?$_List_simple_types@H@std@@@std@@@2@XZ 0041e0e0 f i participant_ui.obj
 0001:0001d110       ?max_size@?$_Default_allocator_traits@V?$allocator@U?$_List_node@HPAX@std@@@std@@@std@@SAIABV?$allocator@U?$_List_node@HPAX@std@@@2@@Z 0041e110 f i participant_ui.obj
 0001:0001d120       ?max_size@?$list@HV?$allocator@H@std@@@std@@QBEIXZ 0041e120 f i participant_ui.obj
 0001:0001d160       ?push_back@?$list@HV?$allocator@H@std@@@std@@QAEXABH@Z 0041e160 f i participant_ui.obj
 0001:0001d180       ??$?H_WU?$char_traits@_W@std@@V?$allocator@_W@1@@std@@YA?AV?$basic_string@_WU?$char_traits@_W@std@@V?$allocator@_W@2@@0@ABV10@0@Z 0041e180 f i schedule_meeting_ui.obj
 0001:0001d210       ??$?H_WU?$char_traits@_W@std@@V?$allocator@_W@1@@std@@YA?AV?$basic_string@_WU?$char_traits@_W@std@@V?$allocator@_W@2@@0@QB_W$$QAV10@@Z 0041e210 f i schedule_meeting_ui.obj
 0001:0001d250       ??$_Copy_memmove@PAPAVIAlternativeHostInfo@ZOOMSDK@@PAPAV12@@std@@YAPAPAVIAlternativeHostInfo@ZOOMSDK@@PAPAV12@00@Z 0041e250 f i schedule_meeting_ui.obj
 0001:0001d250       ??$_Copy_memmove@PAPAVIVirtualBGImageInfo@ZOOMSDK@@PAPAV12@@std@@YAPAPAVIVirtualBGImageInfo@ZOOMSDK@@PAPAV12@00@Z 0041e250 f i settings_ui.obj
 0001:0001d250       ??$_Copy_memmove@PAPAVIInterpreterInfo@ZOOMSDK@@PAPAV12@@std@@YAPAPAVIInterpreterInfo@ZOOMSDK@@PAPAV12@00@Z 0041e250 f i schedule_meeting_ui.obj
 0001:0001d250       ??$_Copy_memmove@PAPAVIUserInfo@ZOOMSDK@@PAPAV12@@std@@YAPAPAVIUserInfo@ZOOMSDK@@PAPAV12@00@Z 0041e250 f i user_manager.obj
 0001:0001d290       ??$_Emplace_back_with_unused_capacity@ABQAVIVirtualBGImageInfo@ZOOMSDK@@@?$vector@PAVIVirtualBGImageInfo@ZOOMSDK@@V?$allocator@PAVIVirtualBGImageInfo@ZOOMSDK@@@std@@@std@@AAEXABQAVIVirtualBGImageInfo@ZOOMSDK@@@Z 0041e290 f i settings_ui.obj
 0001:0001d290       ??$_Emplace_back_with_unused_capacity@ABQAVIAlternativeHostInfo@ZOOMSDK@@@?$vector@PAVIAlternativeHostInfo@ZOOMSDK@@V?$allocator@PAVIAlternativeHostInfo@ZOOMSDK@@@std@@@std@@AAEXABQAVIAlternativeHostInfo@ZOOMSDK@@@Z 0041e290 f i schedule_meeting_ui.obj
 0001:0001d290       ??$_Emplace_back_with_unused_capacity@ABQAVIUserInfo@ZOOMSDK@@@?$vector@PAVIUserInfo@ZOOMSDK@@V?$allocator@PAVIUserInfo@ZOOMSDK@@@std@@@std@@AAEXABQAVIUserInfo@ZOOMSDK@@@Z 0041e290 f i user_manager.obj
 0001:0001d290       ??$_Emplace_back_with_unused_capacity@ABQAVIInterpreterInfo@ZOOMSDK@@@?$vector@PAVIInterpreterInfo@ZOOMSDK@@V?$allocator@PAVIInterpreterInfo@ZOOMSDK@@@std@@@std@@AAEXABQAVIInterpreterInfo@ZOOMSDK@@@Z 0041e290 f i schedule_meeting_ui.obj
 0001:0001d310       ??$_Emplace_back_with_unused_capacity@ABV?$basic_string@_WU?$char_traits@_W@std@@V?$allocator@_W@2@@std@@@?$vector@V?$basic_string@_WU?$char_traits@_W@std@@V?$allocator@_W@2@@std@@V?$allocator@V?$basic_string@_WU?$char_traits@_W@std@@V?$allocator@_W@2@@std@@@2@@std@@AAEXABV?$basic_string@_WU?$char_traits@_W@std@@V?$allocator@_W@2@@1@@Z 0041e310 f i schedule_meeting_ui.obj
 0001:0001d390       ??$_Emplace_reallocate@ABQAVIVirtualBGImageInfo@ZOOMSDK@@@?$vector@PAVIVirtualBGImageInfo@ZOOMSDK@@V?$allocator@PAVIVirtualBGImageInfo@ZOOMSDK@@@std@@@std@@QAEPAPAVIVirtualBGImageInfo@ZOOMSDK@@QAPAV23@ABQAV23@@Z 0041e390 f i settings_ui.obj
 0001:0001d390       ??$_Emplace_reallocate@ABQAVIAlternativeHostInfo@ZOOMSDK@@@?$vector@PAVIAlternativeHostInfo@ZOOMSDK@@V?$allocator@PAVIAlternativeHostInfo@ZOOMSDK@@@std@@@std@@QAEPAPAVIAlternativeHostInfo@ZOOMSDK@@QAPAV23@ABQAV23@@Z 0041e390 f i schedule_meeting_ui.obj
 0001:0001d390       ??$_Emplace_reallocate@ABQAVIUserInfo@ZOOMSDK@@@?$vector@PAVIUserInfo@ZOOMSDK@@V?$allocator@PAVIUserInfo@ZOOMSDK@@@std@@@std@@QAEPAPAVIUserInfo@ZOOMSDK@@QAPAV23@ABQAV23@@Z 0041e390 f i user_manager.obj
 0001:0001d390       ??$_Emplace_reallocate@ABQAVIInterpreterInfo@ZOOMSDK@@@?$vector@PAVIInterpreterInfo@ZOOMSDK@@V?$allocator@PAVIInterpreterInfo@ZOOMSDK@@@std@@@std@@QAEPAPAVIInterpreterInfo@ZOOMSDK@@QAPAV23@ABQAV23@@Z 0041e390 f i schedule_meeting_ui.obj
 0001:0001d560       ??$_Emplace_reallocate@ABV?$basic_string@_WU?$char_traits@_W@std@@V?$allocator@_W@2@@std@@@?$vector@V?$basic_string@_WU?$char_traits@_W@std@@V?$allocator@_W@2@@std@@V?$allocator@V?$basic_string@_WU?$char_traits@_W@std@@V?$allocator@_W@2@@std@@@2@@std@@QAEPAV?$basic_string@_WU?$char_traits@_W@std@@V?$allocator@_W@2@@1@QAV21@ABV21@@Z 0041e560 f i schedule_meeting_ui.obj
 0001:0001d740       ??$_Get_size_of_n@$03@std@@YAII@Z 0041e740 f i schedule_meeting_ui.obj
 0001:0001d770       ??$_Reallocate_grow_by@V<lambda_09fe38f6114539daa867a3e4d6874f49>@@IPB_WI@?$basic_string@_WU?$char_traits@_W@std@@V?$allocator@_W@2@@std@@AAEAAV01@IV<lambda_09fe38f6114539daa867a3e4d6874f49>@@IPB_WI@Z 0041e770 f i schedule_meeting_ui.obj
 0001:0001d8a0       ??$_Reallocate_grow_by@V<lambda_38fb7828f6004e9a4c6a38bfc6df7f44>@@_W@?$basic_string@_WU?$char_traits@_W@std@@V?$allocator@_W@2@@std@@AAEAAV01@IV<lambda_38fb7828f6004e9a4c6a38bfc6df7f44>@@_W@Z 0041e8a0 f i schedule_meeting_ui.obj
 0001:0001d9c0       ??$_Uninitialized_move@PAPAVIUserInfo@ZOOMSDK@@V?$allocator@PAVIUserInfo@ZOOMSDK@@@std@@@std@@YAPAPAVIUserInfo@ZOOMSDK@@QAPAV12@0PAPAV12@AAV?$allocator@PAVIUserInfo@ZOOMSDK@@@0@@Z 0041e9c0 f i user_manager.obj
 0001:0001d9c0       ??$_Uninitialized_move@PAPAVIInterpreterInfo@ZOOMSDK@@V?$allocator@PAVIInterpreterInfo@ZOOMSDK@@@std@@@std@@YAPAPAVIInterpreterInfo@ZOOMSDK@@QAPAV12@0PAPAV12@AAV?$allocator@PAVIInterpreterInfo@ZOOMSDK@@@0@@Z 0041e9c0 f i schedule_meeting_ui.obj
 0001:0001d9c0       ??$_Uninitialized_move@PAPAVIAlternativeHostInfo@ZOOMSDK@@V?$allocator@PAVIAlternativeHostInfo@ZOOMSDK@@@std@@@std@@YAPAPAVIAlternativeHostInfo@ZOOMSDK@@QAPAV12@0PAPAV12@AAV?$allocator@PAVIAlternativeHostInfo@ZOOMSDK@@@0@@Z 0041e9c0 f i schedule_meeting_ui.obj
 0001:0001d9c0       ??$_Uninitialized_move@PAPAVIVirtualBGImageInfo@ZOOMSDK@@V?$allocator@PAVIVirtualBGImageInfo@ZOOMSDK@@@std@@@std@@YAPAPAVIVirtualBGImageInfo@ZOOMSDK@@QAPAV12@0PAPAV12@AAV?$allocator@PAVIVirtualBGImageInfo@ZOOMSDK@@@0@@Z 0041e9c0 f i settings_ui.obj
 0001:0001da20       ??$construct@V?$basic_string@_WU?$char_traits@_W@std@@V?$allocator@_W@2@@std@@ABV12@@?$_Default_allocator_traits@V?$allocator@V?$basic_string@_WU?$char_traits@_W@std@@V?$allocator@_W@2@@std@@@std@@@std@@SAXAAV?$allocator@V?$basic_string@_WU?$char_traits@_W@std@@V?$allocator@_W@2@@std@@@1@QAV?$basic_string@_WU?$char_traits@_W@std@@V?$allocator@_W@2@@1@ABV31@@Z 0041ea20 f i schedule_meeting_ui.obj
 0001:0001da50       ??$emplace_back@ABQAVIUserInfo@ZOOMSDK@@@?$vector@PAVIUserInfo@ZOOMSDK@@V?$allocator@PAVIUserInfo@ZOOMSDK@@@std@@@std@@QAEXABQAVIUserInfo@ZOOMSDK@@@Z 0041ea50 f i user_manager.obj
 0001:0001da50       ??$emplace_back@ABQAVIVirtualBGImageInfo@ZOOMSDK@@@?$vector@PAVIVirtualBGImageInfo@ZOOMSDK@@V?$allocator@PAVIVirtualBGImageInfo@ZOOMSDK@@@std@@@std@@QAEXABQAVIVirtualBGImageInfo@ZOOMSDK@@@Z 0041ea50 f i settings_ui.obj
 0001:0001da50       ??$emplace_back@ABQAVIInterpreterInfo@ZOOMSDK@@@?$vector@PAVIInterpreterInfo@ZOOMSDK@@V?$allocator@PAVIInterpreterInfo@ZOOMSDK@@@std@@@std@@QAEXABQAVIInterpreterInfo@ZOOMSDK@@@Z 0041ea50 f i schedule_meeting_ui.obj
 0001:0001da50       ??$emplace_back@ABQAVIAlternativeHostInfo@ZOOMSDK@@@?$vector@PAVIAlternativeHostInfo@ZOOMSDK@@V?$allocator@PAVIAlternativeHostInfo@ZOOMSDK@@@std@@@std@@QAEXABQAVIAlternativeHostInfo@ZOOMSDK@@@Z 0041ea50 f i schedule_meeting_ui.obj
 0001:0001dab0       ??$emplace_back@ABV?$basic_string@_WU?$char_traits@_W@std@@V?$allocator@_W@2@@std@@@?$vector@V?$basic_string@_WU?$char_traits@_W@std@@V?$allocator@_W@2@@std@@V?$allocator@V?$basic_string@_WU?$char_traits@_W@std@@V?$allocator@_W@2@@std@@@2@@std@@QAEXABV?$basic_string@_WU?$char_traits@_W@std@@V?$allocator@_W@2@@1@@Z 0041eab0 f i schedule_meeting_ui.obj
 0001:0001db10       ??$getline@_WU?$char_traits@_W@std@@V?$allocator@_W@2@@std@@YAAAV?$basic_istream@_WU?$char_traits@_W@std@@@0@$$QAV10@AAV?$basic_string@_WU?$char_traits@_W@std@@V?$allocator@_W@2@@0@_W@Z 0041eb10 f i schedule_meeting_ui.obj
 0001:0001dd20       ??$getline@_WU?$char_traits@_W@std@@V?$allocator@_W@2@@std@@YAAAV?$basic_istream@_WU?$char_traits@_W@std@@@0@AAV10@AAV?$basic_string@_WU?$char_traits@_W@std@@V?$allocator@_W@2@@0@_W@Z 0041ed20 f i schedule_meeting_ui.obj
 0001:0001dd50       ??0?$IList@PAVIAlternativeHostInfo@ZOOMSDK@@@ZOOMSDK@@QAE@XZ 0041ed50 f i schedule_meeting_ui.obj
 0001:0001dd70       ??0?$IList@PAVIInterpreterInfo@ZOOMSDK@@@ZOOMSDK@@QAE@XZ 0041ed70 f i schedule_meeting_ui.obj
 0001:0001dd90       ??0?$TListImpl@PAVIAlternativeHostInfo@ZOOMSDK@@@@QAE@XZ 0041ed90 f i schedule_meeting_ui.obj
 0001:0001ddc0       ??0?$TListImpl@PAVIInterpreterInfo@ZOOMSDK@@@@QAE@XZ 0041edc0 f i schedule_meeting_ui.obj
 0001:0001ddf0       ??0?$basic_string@_WU?$char_traits@_W@std@@V?$allocator@_W@2@@std@@QAE@ABV01@@Z 0041edf0 f i schedule_meeting_ui.obj
 0001:0001de90       ??0?$basic_string@_WU?$char_traits@_W@std@@V?$allocator@_W@2@@std@@QAE@U_String_constructor_concat_tag@1@ABV01@QB_WI2I@Z 0041ee90 f i schedule_meeting_ui.obj
 0001:0001dff0       ??0?$basic_stringbuf@_WU?$char_traits@_W@std@@V?$allocator@_W@2@@std@@QAE@H@Z 0041eff0 f i schedule_meeting_ui.obj
 0001:0001e080       ??0?$basic_stringstream@_WU?$char_traits@_W@std@@V?$allocator@_W@2@@std@@QAE@XZ 0041f080 f i schedule_meeting_ui.obj
 0001:0001e160       ??0?$fpos@U_Mbstatet@@@std@@QAE@_J@Z 0041f160 f i schedule_meeting_ui.obj
 0001:0001e1a0       ??0CSDKSheduleMeetingUIEvent@@QAE@XZ 0041f1a0 f i schedule_meeting_ui.obj
 0001:0001e1c0       ??0CSDKSheduleMeetingUIGroup@@QAE@XZ 0041f1c0 f   schedule_meeting_ui.obj
 0001:0001e3f0       ??0CSDKSheduleMeetingUIMgr@@QAE@XZ 0041f3f0 f   schedule_meeting_ui.obj
 0001:0001e500       ??0IAlternativeHostInfo@ZOOMSDK@@QAE@XZ 0041f500 f i schedule_meeting_ui.obj
 0001:0001e520       ??0IInterpreterInfo@ZOOMSDK@@QAE@XZ 0041f520 f i schedule_meeting_ui.obj
 0001:0001e540       ??0TAlternativeHostInfo@@QAE@XZ 0041f540 f i schedule_meeting_ui.obj
 0001:0001e570       ??0TInterpreterInfo@@QAE@XZ 0041f570 f i schedule_meeting_ui.obj
 0001:0001e5b0       ??0_Sentry_base@?$basic_istream@_WU?$char_traits@_W@std@@@std@@QAE@AAV12@@Z 0041f5b0 f i schedule_meeting_ui.obj
 0001:0001e600       ??0sentry@?$basic_istream@_WU?$char_traits@_W@std@@@std@@QAE@AAV12@_N@Z 0041f600 f i schedule_meeting_ui.obj
 0001:0001e670       ??1?$IList@PAVIAlternativeHostInfo@ZOOMSDK@@@ZOOMSDK@@UAE@XZ 0041f670 f i schedule_meeting_ui.obj
 0001:0001e690       ??1?$IList@PAVIInterpreterInfo@ZOOMSDK@@@ZOOMSDK@@UAE@XZ 0041f690 f i schedule_meeting_ui.obj
 0001:0001e6b0       ??1?$TListImpl@PAVIAlternativeHostInfo@ZOOMSDK@@@@UAE@XZ 0041f6b0 f i schedule_meeting_ui.obj
 0001:0001e6e0       ??1?$TListImpl@PAVIInterpreterInfo@ZOOMSDK@@@@UAE@XZ 0041f6e0 f i schedule_meeting_ui.obj
 0001:0001e710       ??1?$basic_stringbuf@_WU?$char_traits@_W@std@@V?$allocator@_W@2@@std@@UAE@XZ 0041f710 f i schedule_meeting_ui.obj
 0001:0001e740       ??1?$basic_stringstream@_WU?$char_traits@_W@std@@V?$allocator@_W@2@@std@@UAE@XZ 0041f740 f i schedule_meeting_ui.obj
 0001:0001e7a0       ??1?$vector@PAVIUserInfo@ZOOMSDK@@V?$allocator@PAVIUserInfo@ZOOMSDK@@@std@@@std@@QAE@XZ 0041f7a0 f i user_manager.obj
 0001:0001e7a0       ??1?$vector@PAVIAlternativeHostInfo@ZOOMSDK@@V?$allocator@PAVIAlternativeHostInfo@ZOOMSDK@@@std@@@std@@QAE@XZ 0041f7a0 f i schedule_meeting_ui.obj
 0001:0001e7a0       ??1?$vector@PAVIVirtualBGImageInfo@ZOOMSDK@@V?$allocator@PAVIVirtualBGImageInfo@ZOOMSDK@@@std@@@std@@QAE@XZ 0041f7a0 f i settings_ui.obj
 0001:0001e7a0       ??1?$vector@PAVIInterpreterInfo@ZOOMSDK@@V?$allocator@PAVIInterpreterInfo@ZOOMSDK@@@std@@@std@@QAE@XZ 0041f7a0 f i schedule_meeting_ui.obj
 0001:0001e7c0       ??1CSDKSheduleMeetingUIGroup@@UAE@XZ 0041f7c0 f   schedule_meeting_ui.obj
 0001:0001e9a0       ??1CSDKSheduleMeetingUIMgr@@UAE@XZ 0041f9a0 f   schedule_meeting_ui.obj
 0001:0001ea60       ??1IAlternativeHostInfo@ZOOMSDK@@UAE@XZ 0041fa60 f i schedule_meeting_ui.obj
 0001:0001ea80       ??1IInterpreterInfo@ZOOMSDK@@UAE@XZ 0041fa80 f i schedule_meeting_ui.obj
 0001:0001eaa0       ??1TAlternativeHostInfo@@UAE@XZ 0041faa0 f i schedule_meeting_ui.obj
 0001:0001ead0       ??1TInterpreterInfo@@UAE@XZ 0041fad0 f i schedule_meeting_ui.obj
 0001:0001eb00       ??1_Sentry_base@?$basic_istream@_WU?$char_traits@_W@std@@@std@@QAE@XZ 0041fb00 f i schedule_meeting_ui.obj
 0001:0001eb70       ??1sentry@?$basic_istream@_WU?$char_traits@_W@std@@@std@@QAE@XZ 0041fb70 f i schedule_meeting_ui.obj
 0001:0001eb90       ??A?$vector@PAVIInterpreterInfo@ZOOMSDK@@V?$allocator@PAVIInterpreterInfo@ZOOMSDK@@@std@@@std@@QAEAAPAVIInterpreterInfo@ZOOMSDK@@I@Z 0041fb90 f i schedule_meeting_ui.obj
 0001:0001eb90       ??A?$vector@PAVIUserInfo@ZOOMSDK@@V?$allocator@PAVIUserInfo@ZOOMSDK@@@std@@@std@@QAEAAPAVIUserInfo@ZOOMSDK@@I@Z 0041fb90 f i user_manager.obj
 0001:0001eb90       ??A?$vector@PAVIAlternativeHostInfo@ZOOMSDK@@V?$allocator@PAVIAlternativeHostInfo@ZOOMSDK@@@std@@@std@@QAEAAPAVIAlternativeHostInfo@ZOOMSDK@@I@Z 0041fb90 f i schedule_meeting_ui.obj
 0001:0001eb90       ??A?$vector@PAVIVirtualBGImageInfo@ZOOMSDK@@V?$allocator@PAVIVirtualBGImageInfo@ZOOMSDK@@@std@@@std@@QAEAAPAVIVirtualBGImageInfo@ZOOMSDK@@I@Z 0041fb90 f i settings_ui.obj
 0001:0001ebb0       ??B?$fpos@U_Mbstatet@@@std@@QBE_JXZ 0041fbb0 f i schedule_meeting_ui.obj
 0001:0001ebe0       ??Bsentry@?$basic_istream@_WU?$char_traits@_W@std@@@std@@QBE_NXZ 0041fbe0 f i schedule_meeting_ui.obj
 0001:0001ec00       ??R<lambda_09fe38f6114539daa867a3e4d6874f49>@@QBEXQA_WQB_WII1I@Z 0041fc00 f i schedule_meeting_ui.obj
 0001:0001ec70       ??R<lambda_38fb7828f6004e9a4c6a38bfc6df7f44>@@QBEXQA_WQB_WI_W@Z 0041fc70 f i schedule_meeting_ui.obj
 0001:0001ecd0       ??Y?$basic_string@_WU?$char_traits@_W@std@@V?$allocator@_W@2@@std@@QAEAAV01@ABV01@@Z 0041fcd0 f i schedule_meeting_ui.obj
 0001:0001ecf0       ??Y?$basic_string@_WU?$char_traits@_W@std@@V?$allocator@_W@2@@std@@QAEAAV01@_W@Z 0041fcf0 f i schedule_meeting_ui.obj
 0001:0001ed10       ??_D?$basic_stringstream@_WU?$char_traits@_W@std@@V?$allocator@_W@2@@std@@QAEXXZ 0041fd10 f i schedule_meeting_ui.obj
 0001:0001ed32       ??_E?$basic_stringstream@_WU?$char_traits@_W@std@@V?$allocator@_W@2@@std@@$4PPPPPPPM@A@AEPAXI@Z 0041fd32 f i schedule_meeting_ui.obj
 0001:0001ed40       ??_G?$IList@PAVIAlternativeHostInfo@ZOOMSDK@@@ZOOMSDK@@UAEPAXI@Z 0041fd40 f i schedule_meeting_ui.obj
 0001:0001ed40       ??_E?$IList@PAVIAlternativeHostInfo@ZOOMSDK@@@ZOOMSDK@@UAEPAXI@Z 0041fd40 f i schedule_meeting_ui.obj
 0001:0001ed70       ??_E?$IList@PAVIInterpreterInfo@ZOOMSDK@@@ZOOMSDK@@UAEPAXI@Z 0041fd70 f i schedule_meeting_ui.obj
 0001:0001ed70       ??_G?$IList@PAVIInterpreterInfo@ZOOMSDK@@@ZOOMSDK@@UAEPAXI@Z 0041fd70 f i schedule_meeting_ui.obj
 0001:0001eda0       ??_E?$TListImpl@PAVIAlternativeHostInfo@ZOOMSDK@@@@UAEPAXI@Z 0041fda0 f i schedule_meeting_ui.obj
 0001:0001eda0       ??_G?$TListImpl@PAVIAlternativeHostInfo@ZOOMSDK@@@@UAEPAXI@Z 0041fda0 f i schedule_meeting_ui.obj
 0001:0001edd0       ??_E?$TListImpl@PAVIInterpreterInfo@ZOOMSDK@@@@UAEPAXI@Z 0041fdd0 f i schedule_meeting_ui.obj
 0001:0001edd0       ??_G?$TListImpl@PAVIInterpreterInfo@ZOOMSDK@@@@UAEPAXI@Z 0041fdd0 f i schedule_meeting_ui.obj
 0001:0001ee00       ??_E?$basic_stringbuf@_WU?$char_traits@_W@std@@V?$allocator@_W@2@@std@@UAEPAXI@Z 0041fe00 f i schedule_meeting_ui.obj
 0001:0001ee00       ??_G?$basic_stringbuf@_WU?$char_traits@_W@std@@V?$allocator@_W@2@@std@@UAEPAXI@Z 0041fe00 f i schedule_meeting_ui.obj
 0001:0001ee30       ??_E?$basic_stringstream@_WU?$char_traits@_W@std@@V?$allocator@_W@2@@std@@UAEPAXI@Z 0041fe30 f i schedule_meeting_ui.obj
 0001:0001ee30       ??_G?$basic_stringstream@_WU?$char_traits@_W@std@@V?$allocator@_W@2@@std@@UAEPAXI@Z 0041fe30 f i schedule_meeting_ui.obj
 0001:0001ee70       ??_GCSDKSheduleMeetingUIGroup@@UAEPAXI@Z 0041fe70 f i schedule_meeting_ui.obj
 0001:0001ee70       ??_ECSDKSheduleMeetingUIGroup@@UAEPAXI@Z 0041fe70 f i schedule_meeting_ui.obj
 0001:0001eeb0       ??_ECSDKSheduleMeetingUIMgr@@UAEPAXI@Z 0041feb0 f i schedule_meeting_ui.obj
 0001:0001eeb0       ??_GCSDKSheduleMeetingUIMgr@@UAEPAXI@Z 0041feb0 f i schedule_meeting_ui.obj
 0001:0001eef0       ??_GIAlternativeHostInfo@ZOOMSDK@@UAEPAXI@Z 0041fef0 f i schedule_meeting_ui.obj
 0001:0001eef0       ??_EIAlternativeHostInfo@ZOOMSDK@@UAEPAXI@Z 0041fef0 f i schedule_meeting_ui.obj
 0001:0001ef20       ??_EIInterpreterInfo@ZOOMSDK@@UAEPAXI@Z 0041ff20 f i schedule_meeting_ui.obj
 0001:0001ef20       ??_GIInterpreterInfo@ZOOMSDK@@UAEPAXI@Z 0041ff20 f i schedule_meeting_ui.obj
 0001:0001ef50       ??_GTAlternativeHostInfo@@UAEPAXI@Z 0041ff50 f i schedule_meeting_ui.obj
 0001:0001ef50       ??_ETAlternativeHostInfo@@UAEPAXI@Z 0041ff50 f i schedule_meeting_ui.obj
 0001:0001ef80       ??_ETInterpreterInfo@@UAEPAXI@Z 0041ff80 f i schedule_meeting_ui.obj
 0001:0001ef80       ??_GTInterpreterInfo@@UAEPAXI@Z 0041ff80 f i schedule_meeting_ui.obj
 0001:0001efb0       ?DoClickBackBtn@CSDKSheduleMeetingUIGroup@@QAEXXZ 0041ffb0 f   schedule_meeting_ui.obj
 0001:0001efe0       ?DoClickDeleteMeetingBtn@CSDKSheduleMeetingUIGroup@@QAEXXZ 0041ffe0 f   schedule_meeting_ui.obj
 0001:0001f1a0       ?DoClickEditMeetingBtn@CSDKSheduleMeetingUIGroup@@QAEXXZ 004201a0 f   schedule_meeting_ui.obj
 0001:00020240       ?DoClickScheduleBtn@CSDKSheduleMeetingUIGroup@@QAEXXZ 00421240 f   schedule_meeting_ui.obj
 0001:00020300       ?DoClickViewPublicListBtn@CSDKSheduleMeetingUIGroup@@QAEXXZ 00421300 f   schedule_meeting_ui.obj
 0001:00020390       ?DoEdit@CSDKSheduleMeetingUIGroup@@QAEXXZ 00421390 f   schedule_meeting_ui.obj
 0001:000214b0       ?DoSchedule@CSDKSheduleMeetingUIGroup@@QAEXXZ 004224b0 f   schedule_meeting_ui.obj
 0001:00022650       ?GetCount@CSDKUserList@@QAEHXZ 00423650 f i user_manager.obj
 0001:00022650       ?GetCount@CSDKVBGImageList@@QAEHXZ 00423650 f i settings_ui.obj
 0001:00022650       ?GetCount@?$TListImpl@PAVIInterpreterInfo@ZOOMSDK@@@@UAEHXZ 00423650 f i schedule_meeting_ui.obj
 0001:00022650       ?GetCount@?$TListImpl@PAVIAlternativeHostInfo@ZOOMSDK@@@@UAEHXZ 00423650 f i schedule_meeting_ui.obj
 0001:00022670       ?GetEditMeetingStatus@CSDKSheduleMeetingUIGroup@@QAE_NXZ 00423670 f   schedule_meeting_ui.obj
 0001:00022690       ?GetEmail@TAlternativeHostInfo@@UAEPB_WXZ 00423690 f i schedule_meeting_ui.obj
 0001:00022690       ?GetEmail@TInterpreterInfo@@UAEPB_WXZ 00423690 f i schedule_meeting_ui.obj
 0001:000226b0       ?GetFirstLanguageInfo@TInterpreterInfo@@UAE?AW4InterpreteLanguageInfo@ZOOMSDK@@XZ 004236b0 f i schedule_meeting_ui.obj
 0001:000226b0       ?GetCaretHeight@CTxtWinHost@DuiLib@@QAEHXZ 004236b0 f i DuiLib:UIRichEdit.obj
 0001:000226d0       ?GetItem@?$TListImpl@PAVIInterpreterInfo@ZOOMSDK@@@@UAEPAVIInterpreterInfo@ZOOMSDK@@H@Z 004236d0 f i schedule_meeting_ui.obj
 0001:000226d0       ?GetItem@?$TListImpl@PAVIAlternativeHostInfo@ZOOMSDK@@@@UAEPAVIAlternativeHostInfo@ZOOMSDK@@H@Z 004236d0 f i schedule_meeting_ui.obj
 0001:00022720       ?GetSecendLanguageInfo@TInterpreterInfo@@UAE?AW4InterpreteLanguageInfo@ZOOMSDK@@XZ 00423720 f i schedule_meeting_ui.obj
 0001:00022740       ?GetSkinRes@CSDKSheduleMeetingUIMgr@@UAEIXZ 00423740 f i schedule_meeting_ui.obj
 0001:00022750       ?HandleMessage@CSDKSheduleMeetingUIMgr@@UAEJIIJ@Z 00423750 f   schedule_meeting_ui.obj
 0001:00022950       ?InitWindow@CSDKSheduleMeetingUIGroup@@QAEXAAVCPaintManagerUI@DuiLib@@PAVCSDKSheduleMeetingUIMgr@@@Z 00423950 f   schedule_meeting_ui.obj
 0001:00022ca0       ?InitWindow@CSDKSheduleMeetingUIMgr@@UAEXXZ 00423ca0 f   schedule_meeting_ui.obj
 0001:00022ec0       ?Notify@CSDKSheduleMeetingUIGroup@@QAEXAAUtagTNotifyUI@DuiLib@@@Z 00423ec0 f   schedule_meeting_ui.obj
 0001:00023390       ?Notify@CSDKSheduleMeetingUIMgr@@UAEXAAUtagTNotifyUI@DuiLib@@@Z 00424390 f   schedule_meeting_ui.obj
 0001:00023490       ?OnClose@CSDKSheduleMeetingUIMgr@@QAEJIIJAAH@Z 00424490 f   schedule_meeting_ui.obj
 0001:00023490       ?OnClose@CSDKSettingsUIMgr@@QAEJIIJAAH@Z 00424490 f   settings_ui.obj
 0001:000234a0       ?OnDestroy@CSDKSheduleMeetingUIMgr@@QAEJIIJAAH@Z 004244a0 f   schedule_meeting_ui.obj
 0001:000234c0       ?SetEvent@CSDKSheduleMeetingUIMgr@@QAEXPAVCSDKDemoAppEvent@@@Z 004244c0 f   schedule_meeting_ui.obj
 0001:000234e0       ?SetNotBeEditMeeting@CSDKSheduleMeetingUIGroup@@QAEXXZ 004244e0 f   schedule_meeting_ui.obj
 0001:00023500       ?ShowErrorMessage@CSDKSheduleMeetingUIMgr@@QAEXPB_W@Z 00424500 f   schedule_meeting_ui.obj
 0001:00023520       ?ShowErrorMessage@CSDKSheduleMeetingUIMgr@@QAEXW4ErrorMessageType@@@Z 00424520 f   schedule_meeting_ui.obj
 0001:000236a0       ?ShowLocaltime@CSDKSheduleMeetingUIGroup@@QAEXXZ 004246a0 f   schedule_meeting_ui.obj
 0001:00023780       ?ShowWaitingGif@CSDKSheduleMeetingUIMgr@@QAEX_N@Z 00424780 f   schedule_meeting_ui.obj
 0001:00023810       ?StringToDatetime@@YA_JPB_W@Z 00424810 f   schedule_meeting_ui.obj
 0001:000238b0       ?SwitchToPage@CSDKSheduleMeetingUIMgr@@QAEXW4PreMeetingPageType@@@Z 004248b0 f   schedule_meeting_ui.obj
 0001:00023b50       ?UninitWindow@CSDKSheduleMeetingUIGroup@@QAEXXZ 00424b50 f   schedule_meeting_ui.obj
 0001:00023b80       ?UpdateRecurringMeetingUI@CSDKSheduleMeetingUIGroup@@QAEXXZ 00424b80 f   schedule_meeting_ui.obj
 0001:00023c50       ?_Calculate_growth@?$vector@PAVIUserInfo@ZOOMSDK@@V?$allocator@PAVIUserInfo@ZOOMSDK@@@std@@@std@@ABEII@Z 00424c50 f i user_manager.obj
 0001:00023c50       ?_Calculate_growth@?$vector@PAVIInterpreterInfo@ZOOMSDK@@V?$allocator@PAVIInterpreterInfo@ZOOMSDK@@@std@@@std@@ABEII@Z 00424c50 f i schedule_meeting_ui.obj
 0001:00023c50       ?_Calculate_growth@?$vector@PAVIAlternativeHostInfo@ZOOMSDK@@V?$allocator@PAVIAlternativeHostInfo@ZOOMSDK@@@std@@@std@@ABEII@Z 00424c50 f i schedule_meeting_ui.obj
 0001:00023c50       ?_Calculate_growth@?$vector@PAVIVirtualBGImageInfo@ZOOMSDK@@V?$allocator@PAVIVirtualBGImageInfo@ZOOMSDK@@@std@@@std@@ABEII@Z 00424c50 f i settings_ui.obj
 0001:00023cb0       ?_Change_array@?$vector@PAVIVirtualBGImageInfo@ZOOMSDK@@V?$allocator@PAVIVirtualBGImageInfo@ZOOMSDK@@@std@@@std@@AAEXQAPAVIVirtualBGImageInfo@ZOOMSDK@@II@Z 00424cb0 f i settings_ui.obj
 0001:00023cb0       ?_Change_array@?$vector@PAVIAlternativeHostInfo@ZOOMSDK@@V?$allocator@PAVIAlternativeHostInfo@ZOOMSDK@@@std@@@std@@AAEXQAPAVIAlternativeHostInfo@ZOOMSDK@@II@Z 00424cb0 f i schedule_meeting_ui.obj
 0001:00023cb0       ?_Change_array@?$vector@PAVIInterpreterInfo@ZOOMSDK@@V?$allocator@PAVIInterpreterInfo@ZOOMSDK@@@std@@@std@@AAEXQAPAVIInterpreterInfo@ZOOMSDK@@II@Z 00424cb0 f i schedule_meeting_ui.obj
 0001:00023cb0       ?_Change_array@?$vector@PAVIUserInfo@ZOOMSDK@@V?$allocator@PAVIUserInfo@ZOOMSDK@@@std@@@std@@AAEXQAPAVIUserInfo@ZOOMSDK@@II@Z 00424cb0 f i user_manager.obj
 0001:00023d50       ?_Check_offset@?$_String_val@U?$_Simple_types@_W@std@@@std@@QBEXI@Z 00424d50 f i schedule_meeting_ui.obj
 0001:00023d70       ?_Construct_lv_contents@?$basic_string@_WU?$char_traits@_W@std@@V?$allocator@_W@2@@std@@AAEXABV12@@Z 00424d70 f i schedule_meeting_ui.obj
 0001:00023e60       ?_Destroy@?$vector@PAVIUserInfo@ZOOMSDK@@V?$allocator@PAVIUserInfo@ZOOMSDK@@@std@@@std@@AAEXPAPAVIUserInfo@ZOOMSDK@@0@Z 00424e60 f i user_manager.obj
 0001:00023e60       ?_Destroy@?$vector@PAVIVirtualBGImageInfo@ZOOMSDK@@V?$allocator@PAVIVirtualBGImageInfo@ZOOMSDK@@@std@@@std@@AAEXPAPAVIVirtualBGImageInfo@ZOOMSDK@@0@Z 00424e60 f i settings_ui.obj
 0001:00023e60       ?_Destroy@?$vector@PAVIInterpreterInfo@ZOOMSDK@@V?$allocator@PAVIInterpreterInfo@ZOOMSDK@@@std@@@std@@AAEXPAPAVIInterpreterInfo@ZOOMSDK@@0@Z 00424e60 f i schedule_meeting_ui.obj
 0001:00023e60       ?_Destroy@?$vector@PAVIAlternativeHostInfo@ZOOMSDK@@V?$allocator@PAVIAlternativeHostInfo@ZOOMSDK@@@std@@@std@@AAEXPAPAVIAlternativeHostInfo@ZOOMSDK@@0@Z 00424e60 f i schedule_meeting_ui.obj
 0001:00023e90       ?_Eos@?$basic_string@_WU?$char_traits@_W@std@@V?$allocator@_W@2@@std@@AAEXI@Z 00424e90 f i schedule_meeting_ui.obj
 0001:00023ed0       ?_Getstate@?$basic_stringbuf@_WU?$char_traits@_W@std@@V?$allocator@_W@2@@std@@CAHH@Z 00424ed0 f i schedule_meeting_ui.obj
 0001:00023f30       ?_Init@?$basic_stringbuf@_WU?$char_traits@_W@std@@V?$allocator@_W@2@@std@@IAEXPB_WIH@Z 00424f30 f i schedule_meeting_ui.obj
 0001:00024040       ?_Tidy@?$basic_stringbuf@_WU?$char_traits@_W@std@@V?$allocator@_W@2@@std@@IAEXXZ 00425040 f i schedule_meeting_ui.obj
 0001:00024120       ?_Tidy@?$vector@PAVIInterpreterInfo@ZOOMSDK@@V?$allocator@PAVIInterpreterInfo@ZOOMSDK@@@std@@@std@@AAEXXZ 00425120 f i schedule_meeting_ui.obj
 0001:00024120       ?_Tidy@?$vector@PAVIUserInfo@ZOOMSDK@@V?$allocator@PAVIUserInfo@ZOOMSDK@@@std@@@std@@AAEXXZ 00425120 f i user_manager.obj
 0001:00024120       ?_Tidy@?$vector@PAVIAlternativeHostInfo@ZOOMSDK@@V?$allocator@PAVIAlternativeHostInfo@ZOOMSDK@@@std@@@std@@AAEXXZ 00425120 f i schedule_meeting_ui.obj
 0001:00024120       ?_Tidy@?$vector@PAVIVirtualBGImageInfo@ZOOMSDK@@V?$allocator@PAVIVirtualBGImageInfo@ZOOMSDK@@@std@@@std@@AAEXXZ 00425120 f i settings_ui.obj
 0001:000241e0       ?_Umove@?$vector@PAVIAlternativeHostInfo@ZOOMSDK@@V?$allocator@PAVIAlternativeHostInfo@ZOOMSDK@@@std@@@std@@AAEPAPAVIAlternativeHostInfo@ZOOMSDK@@PAPAV34@00@Z 004251e0 f i schedule_meeting_ui.obj
 0001:000241e0       ?_Umove@?$vector@PAVIUserInfo@ZOOMSDK@@V?$allocator@PAVIUserInfo@ZOOMSDK@@@std@@@std@@AAEPAPAVIUserInfo@ZOOMSDK@@PAPAV34@00@Z 004251e0 f i user_manager.obj
 0001:000241e0       ?_Umove@?$vector@PAVIVirtualBGImageInfo@ZOOMSDK@@V?$allocator@PAVIVirtualBGImageInfo@ZOOMSDK@@@std@@@std@@AAEPAPAVIVirtualBGImageInfo@ZOOMSDK@@PAPAV34@00@Z 004251e0 f i settings_ui.obj
 0001:000241e0       ?_Umove@?$vector@PAVIInterpreterInfo@ZOOMSDK@@V?$allocator@PAVIInterpreterInfo@ZOOMSDK@@@std@@@std@@AAEPAPAVIInterpreterInfo@ZOOMSDK@@PAPAV34@00@Z 004251e0 f i schedule_meeting_ui.obj
 0001:00024210       ?_Umove_if_noexcept1@?$vector@PAVIInterpreterInfo@ZOOMSDK@@V?$allocator@PAVIInterpreterInfo@ZOOMSDK@@@std@@@std@@AAEXPAPAVIInterpreterInfo@ZOOMSDK@@00U?$integral_constant@_N$00@2@@Z 00425210 f i schedule_meeting_ui.obj
 0001:00024210       ?_Umove_if_noexcept1@?$vector@PAVIAlternativeHostInfo@ZOOMSDK@@V?$allocator@PAVIAlternativeHostInfo@ZOOMSDK@@@std@@@std@@AAEXPAPAVIAlternativeHostInfo@ZOOMSDK@@00U?$integral_constant@_N$00@2@@Z 00425210 f i schedule_meeting_ui.obj
 0001:00024210       ?_Umove_if_noexcept1@?$vector@PAVIUserInfo@ZOOMSDK@@V?$allocator@PAVIUserInfo@ZOOMSDK@@@std@@@std@@AAEXPAPAVIUserInfo@ZOOMSDK@@00U?$integral_constant@_N$00@2@@Z 00425210 f i user_manager.obj
 0001:00024210       ?_Umove_if_noexcept1@?$vector@PAVIVirtualBGImageInfo@ZOOMSDK@@V?$allocator@PAVIVirtualBGImageInfo@ZOOMSDK@@@std@@@std@@AAEXPAPAVIVirtualBGImageInfo@ZOOMSDK@@00U?$integral_constant@_N$00@2@@Z 00425210 f i settings_ui.obj
 0001:00024240       ?_Umove_if_noexcept@?$vector@PAVIInterpreterInfo@ZOOMSDK@@V?$allocator@PAVIInterpreterInfo@ZOOMSDK@@@std@@@std@@AAEXPAPAVIInterpreterInfo@ZOOMSDK@@00@Z 00425240 f i schedule_meeting_ui.obj
 0001:00024240       ?_Umove_if_noexcept@?$vector@PAVIAlternativeHostInfo@ZOOMSDK@@V?$allocator@PAVIAlternativeHostInfo@ZOOMSDK@@@std@@@std@@AAEXPAPAVIAlternativeHostInfo@ZOOMSDK@@00@Z 00425240 f i schedule_meeting_ui.obj
 0001:00024240       ?_Umove_if_noexcept@?$vector@PAVIUserInfo@ZOOMSDK@@V?$allocator@PAVIUserInfo@ZOOMSDK@@@std@@@std@@AAEXPAPAVIUserInfo@ZOOMSDK@@00@Z 00425240 f i user_manager.obj
 0001:00024240       ?_Umove_if_noexcept@?$vector@PAVIVirtualBGImageInfo@ZOOMSDK@@V?$allocator@PAVIVirtualBGImageInfo@ZOOMSDK@@@std@@@std@@AAEXPAPAVIVirtualBGImageInfo@ZOOMSDK@@00@Z 00425240 f i settings_ui.obj
 0001:00024270       ?_Xran@?$_String_val@U?$_Simple_types@_W@std@@@std@@SAXXZ 00425270 f i schedule_meeting_ui.obj
 0001:00024280       ?allocate@?$allocator@PAVIVirtualBGImageInfo@ZOOMSDK@@@std@@QAEPAPAVIVirtualBGImageInfo@ZOOMSDK@@I@Z 00425280 f i settings_ui.obj
 0001:00024280       ?allocate@?$allocator@PAVIAlternativeHostInfo@ZOOMSDK@@@std@@QAEPAPAVIAlternativeHostInfo@ZOOMSDK@@I@Z 00425280 f i schedule_meeting_ui.obj
 0001:00024280       ?allocate@?$allocator@PAVIInterpreterInfo@ZOOMSDK@@@std@@QAEPAPAVIInterpreterInfo@ZOOMSDK@@I@Z 00425280 f i schedule_meeting_ui.obj
 0001:00024280       ?allocate@?$allocator@PAVIUserInfo@ZOOMSDK@@@std@@QAEPAPAVIUserInfo@ZOOMSDK@@I@Z 00425280 f i user_manager.obj
 0001:000242b0       ?capacity@?$vector@PAVIInterpreterInfo@ZOOMSDK@@V?$allocator@PAVIInterpreterInfo@ZOOMSDK@@@std@@@std@@QBEIXZ 004252b0 f i schedule_meeting_ui.obj
 0001:000242b0       ?capacity@?$vector@PAVIAlternativeHostInfo@ZOOMSDK@@V?$allocator@PAVIAlternativeHostInfo@ZOOMSDK@@@std@@@std@@QBEIXZ 004252b0 f i schedule_meeting_ui.obj
 0001:000242b0       ?capacity@?$vector@PAVIVirtualBGImageInfo@ZOOMSDK@@V?$allocator@PAVIVirtualBGImageInfo@ZOOMSDK@@@std@@@std@@QBEIXZ 004252b0 f i settings_ui.obj
 0001:000242b0       ?capacity@?$vector@PAVIUserInfo@ZOOMSDK@@V?$allocator@PAVIUserInfo@ZOOMSDK@@@std@@@std@@QBEIXZ 004252b0 f i user_manager.obj
 0001:000242e0       ?deallocate@?$allocator@PAVIVirtualBGImageInfo@ZOOMSDK@@@std@@QAEXQAPAVIVirtualBGImageInfo@ZOOMSDK@@I@Z 004252e0 f i settings_ui.obj
 0001:000242e0       ?deallocate@?$allocator@PAVIUserInfo@ZOOMSDK@@@std@@QAEXQAPAVIUserInfo@ZOOMSDK@@I@Z 004252e0 f i user_manager.obj
 0001:000242e0       ?deallocate@?$allocator@PAVIAlternativeHostInfo@ZOOMSDK@@@std@@QAEXQAPAVIAlternativeHostInfo@ZOOMSDK@@I@Z 004252e0 f i schedule_meeting_ui.obj
 0001:000242e0       ?deallocate@?$allocator@PAVIInterpreterInfo@ZOOMSDK@@@std@@QAEXQAPAVIInterpreterInfo@ZOOMSDK@@I@Z 004252e0 f i schedule_meeting_ui.obj
 0001:00024300       ?eof@?$_WChar_traits@_W@std@@SAGXZ 00425300 f i schedule_meeting_ui.obj
 0001:00024310       ?eq@?$_WChar_traits@_W@std@@SA_NAB_W0@Z 00425310 f i schedule_meeting_ui.obj
 0001:00024310       ?eq_int_type@?$_WChar_traits@_W@std@@SA_NABG0@Z 00425310 f i schedule_meeting_ui.obj
 0001:00024340       ?erase@?$basic_string@_WU?$char_traits@_W@std@@V?$allocator@_W@2@@std@@QAEAAV12@I@Z 00425340 f i schedule_meeting_ui.obj
 0001:00024370       ?insert@?$basic_string@_WU?$char_traits@_W@std@@V?$allocator@_W@2@@std@@QAEAAV12@IQB_W@Z 00425370 f i schedule_meeting_ui.obj
 0001:000243b0       ?insert@?$basic_string@_WU?$char_traits@_W@std@@V?$allocator@_W@2@@std@@QAEAAV12@IQB_WI@Z 004253b0 f i schedule_meeting_ui.obj
 0001:000244d0       ?max_size@?$_Default_allocator_traits@V?$allocator@PAVIAlternativeHostInfo@ZOOMSDK@@@std@@@std@@SAIABV?$allocator@PAVIAlternativeHostInfo@ZOOMSDK@@@2@@Z 004254d0 f i schedule_meeting_ui.obj
 0001:000244d0       ?max_size@?$_Default_allocator_traits@V?$allocator@PAVIUserInfo@ZOOMSDK@@@std@@@std@@SAIABV?$allocator@PAVIUserInfo@ZOOMSDK@@@2@@Z 004254d0 f i user_manager.obj
 0001:000244d0       ?max_size@?$_Default_allocator_traits@V?$allocator@PAVIVirtualBGImageInfo@ZOOMSDK@@@std@@@std@@SAIABV?$allocator@PAVIVirtualBGImageInfo@ZOOMSDK@@@2@@Z 004254d0 f i settings_ui.obj
 0001:000244d0       ?max_size@?$_Default_allocator_traits@V?$allocator@PAVIInterpreterInfo@ZOOMSDK@@@std@@@std@@SAIABV?$allocator@PAVIInterpreterInfo@ZOOMSDK@@@2@@Z 004254d0 f i schedule_meeting_ui.obj
 0001:000244e0       ?max_size@?$vector@PAVIUserInfo@ZOOMSDK@@V?$allocator@PAVIUserInfo@ZOOMSDK@@@std@@@std@@QBEIXZ 004254e0 f i user_manager.obj
 0001:000244e0       ?max_size@?$vector@PAVIVirtualBGImageInfo@ZOOMSDK@@V?$allocator@PAVIVirtualBGImageInfo@ZOOMSDK@@@std@@@std@@QBEIXZ 004254e0 f i settings_ui.obj
 0001:000244e0       ?max_size@?$vector@PAVIInterpreterInfo@ZOOMSDK@@V?$allocator@PAVIInterpreterInfo@ZOOMSDK@@@std@@@std@@QBEIXZ 004254e0 f i schedule_meeting_ui.obj
 0001:000244e0       ?max_size@?$vector@PAVIAlternativeHostInfo@ZOOMSDK@@V?$allocator@PAVIAlternativeHostInfo@ZOOMSDK@@@std@@@std@@QBEIXZ 004254e0 f i schedule_meeting_ui.obj
 0001:00024520       ?not_eof@?$_WChar_traits@_W@std@@SAGABG@Z 00425520 f i schedule_meeting_ui.obj
 0001:00024580       ?onDeleteMeeting@CSDKSheduleMeetingUIGroup@@UAEXW4PremeetingAPIResult@ZOOMSDK@@@Z 00425580 f   schedule_meeting_ui.obj
 0001:00024630       ?onGetInviteEmailContent@CSDKSheduleMeetingUIGroup@@UAEXW4PremeetingAPIResult@ZOOMSDK@@_KPB_W@Z 00425630 f   schedule_meeting_ui.obj
 0001:000247f0       ?onListMeeting@CSDKSheduleMeetingUIGroup@@UAEXW4PremeetingAPIResult@ZOOMSDK@@PAV?$IList@_K@3@@Z 004257f0 f   schedule_meeting_ui.obj
 0001:00024b30       ?onScheduleOrEditMeeting@CSDKSheduleMeetingUIGroup@@UAEXW4PremeetingAPIResult@ZOOMSDK@@_K@Z 00425b30 f   schedule_meeting_ui.obj
 0001:00024f40       ?overflow@?$basic_stringbuf@_WU?$char_traits@_W@std@@V?$allocator@_W@2@@std@@MAEGG@Z 00425f40 f i schedule_meeting_ui.obj
 0001:00025150       ?pbackfail@?$basic_stringbuf@_WU?$char_traits@_W@std@@V?$allocator@_W@2@@std@@MAEGG@Z 00426150 f i schedule_meeting_ui.obj
 0001:00025240       ?pointer_to@?$pointer_traits@PAU?$pair@$$CBHW4bkItemType@@@std@@@std@@SAPAU?$pair@$$CBHW4bkItemType@@@2@AAU32@@Z 00426240 f i settings_ui.obj
 0001:00025240       ?pointer_to@?$pointer_traits@PA_W@std@@SAPA_WAA_W@Z 00426240 f i schedule_meeting_ui.obj
 0001:00025260       ?push_back@?$basic_string@_WU?$char_traits@_W@std@@V?$allocator@_W@2@@std@@QAEX_W@Z 00426260 f i schedule_meeting_ui.obj
 0001:000252f0       ?push_back@?$vector@PAVIUserInfo@ZOOMSDK@@V?$allocator@PAVIUserInfo@ZOOMSDK@@@std@@@std@@QAEXABQAVIUserInfo@ZOOMSDK@@@Z 004262f0 f i user_manager.obj
 0001:000252f0       ?push_back@?$vector@PAVIAlternativeHostInfo@ZOOMSDK@@V?$allocator@PAVIAlternativeHostInfo@ZOOMSDK@@@std@@@std@@QAEXABQAVIAlternativeHostInfo@ZOOMSDK@@@Z 004262f0 f i schedule_meeting_ui.obj
 0001:000252f0       ?push_back@?$vector@PAVIInterpreterInfo@ZOOMSDK@@V?$allocator@PAVIInterpreterInfo@ZOOMSDK@@@std@@@std@@QAEXABQAVIInterpreterInfo@ZOOMSDK@@@Z 004262f0 f i schedule_meeting_ui.obj
 0001:000252f0       ?push_back@?$vector@PAVIVirtualBGImageInfo@ZOOMSDK@@V?$allocator@PAVIVirtualBGImageInfo@ZOOMSDK@@@std@@@std@@QAEXABQAVIVirtualBGImageInfo@ZOOMSDK@@@Z 004262f0 f i settings_ui.obj
 0001:00025310       ?push_back@?$vector@V?$basic_string@_WU?$char_traits@_W@std@@V?$allocator@_W@2@@std@@V?$allocator@V?$basic_string@_WU?$char_traits@_W@std@@V?$allocator@_W@2@@std@@@2@@std@@QAEXABV?$basic_string@_WU?$char_traits@_W@std@@V?$allocator@_W@2@@2@@Z 00426310 f i schedule_meeting_ui.obj
 0001:00025330       ?seekoff@?$basic_stringbuf@_WU?$char_traits@_W@std@@V?$allocator@_W@2@@std@@MAE?AV?$fpos@U_Mbstatet@@@2@_JHH@Z 00426330 f i schedule_meeting_ui.obj
 0001:00025540       ?seekpos@?$basic_stringbuf@_WU?$char_traits@_W@std@@V?$allocator@_W@2@@std@@MAE?AV?$fpos@U_Mbstatet@@@2@V32@H@Z 00426540 f i schedule_meeting_ui.obj
 0001:00025690       ?size@?$vector@PAVIVirtualBGImageInfo@ZOOMSDK@@V?$allocator@PAVIVirtualBGImageInfo@ZOOMSDK@@@std@@@std@@QBEIXZ 00426690 f i settings_ui.obj
 0001:00025690       ?size@?$vector@PAVIInterpreterInfo@ZOOMSDK@@V?$allocator@PAVIInterpreterInfo@ZOOMSDK@@@std@@@std@@QBEIXZ 00426690 f i schedule_meeting_ui.obj
 0001:00025690       ?size@?$vector@PAVIUserInfo@ZOOMSDK@@V?$allocator@PAVIUserInfo@ZOOMSDK@@@std@@@std@@QBEIXZ 00426690 f i user_manager.obj
 0001:00025690       ?size@?$vector@PAVIAlternativeHostInfo@ZOOMSDK@@V?$allocator@PAVIAlternativeHostInfo@ZOOMSDK@@@std@@@std@@QBEIXZ 00426690 f i schedule_meeting_ui.obj
 0001:000256c0       ?str@?$basic_stringbuf@_WU?$char_traits@_W@std@@V?$allocator@_W@2@@std@@QAEXABV?$basic_string@_WU?$char_traits@_W@std@@V?$allocator@_W@2@@2@@Z 004266c0 f i schedule_meeting_ui.obj
 0001:00025700       ?str@?$basic_stringstream@_WU?$char_traits@_W@std@@V?$allocator@_W@2@@std@@QAEXABV?$basic_string@_WU?$char_traits@_W@std@@V?$allocator@_W@2@@2@@Z 00426700 f i schedule_meeting_ui.obj
 0001:00025720       ?to_int_type@?$_WChar_traits@_W@std@@SAGAB_W@Z 00426720 f i schedule_meeting_ui.obj
 0001:00025720       ?to_char_type@?$_WChar_traits@_W@std@@SA_WABG@Z 00426720 f i schedule_meeting_ui.obj
 0001:00025730       ?underflow@?$basic_stringbuf@_WU?$char_traits@_W@std@@V?$allocator@_W@2@@std@@MAEGXZ 00426730 f i schedule_meeting_ui.obj
 0001:00025800       __vswscanf_l               00426800 f i schedule_meeting_ui.obj
 0001:00025850       _swscanf                   00426850 f i schedule_meeting_ui.obj
 0001:00025890       ??0CSDKSheduleMeetingUIWorkFlow@@QAE@XZ 00426890 f   schedule_meeting_workflow.obj
 0001:000258e0       ??0IPreMeetingServiceEvent@ZOOMSDK@@QAE@XZ 004268e0 f i schedule_meeting_workflow.obj
 0001:00025900       ??1CSDKSheduleMeetingUIWorkFlow@@UAE@XZ 00426900 f   schedule_meeting_workflow.obj
 0001:00025960       ??_ECSDKSheduleMeetingUIWorkFlow@@UAEPAXI@Z 00426960 f i schedule_meeting_workflow.obj
 0001:00025960       ??_GCSDKSheduleMeetingUIWorkFlow@@UAEPAXI@Z 00426960 f i schedule_meeting_workflow.obj
 0001:00025990       ?DeleteMeeting@CSDKSheduleMeetingUIWorkFlow@@QAE?AW4SDKError@ZOOMSDK@@_K@Z 00426990 f   schedule_meeting_workflow.obj
 0001:000259d0       ?EditMeeting@CSDKSheduleMeetingUIWorkFlow@@QAE?AW4SDKError@ZOOMSDK@@XZ 004269d0 f   schedule_meeting_workflow.obj
 0001:00025a20       ?GetEditMeetingItem@CSDKSheduleMeetingUIWorkFlow@@QAEPAVIScheduleMeetingItem@ZOOMSDK@@_K@Z 00426a20 f   schedule_meeting_workflow.obj
 0001:00025aa0       ?GetMeeingItem@CSDKSheduleMeetingUIWorkFlow@@QAEPAVIMeetingItemInfo@ZOOMSDK@@_K@Z 00426aa0 f   schedule_meeting_workflow.obj
 0001:00025ae0       ?GetScheduleMeetingItem@CSDKSheduleMeetingUIWorkFlow@@QAEPAVIScheduleMeetingItem@ZOOMSDK@@XZ 00426ae0 f   schedule_meeting_workflow.obj
 0001:00025b60       ?Init@CSDKSheduleMeetingUIWorkFlow@@QAE_NXZ 00426b60 f   schedule_meeting_workflow.obj
 0001:00025be0       ?ListMeeting@CSDKSheduleMeetingUIWorkFlow@@QAE?AW4SDKError@ZOOMSDK@@XZ 00426be0 f   schedule_meeting_workflow.obj
 0001:00025c20       ?ScheduleMeeting@CSDKSheduleMeetingUIWorkFlow@@QAE?AW4SDKError@ZOOMSDK@@XZ 00426c20 f   schedule_meeting_workflow.obj
 0001:00025c60       ?SetEvent@CSDKSheduleMeetingUIWorkFlow@@QAEXPAVCSDKSheduleMeetingUIEvent@@@Z 00426c60 f   schedule_meeting_workflow.obj
 0001:00025c60       ?SetTextCallback@CListUI@DuiLib@@UAEXPAVIListCallbackUI@2@@Z 00426c60 f   DuiLib:UIList.obj
 0001:00025c80       ?Uninit@CSDKSheduleMeetingUIWorkFlow@@QAE_NXZ 00426c80 f   schedule_meeting_workflow.obj
 0001:00025d10       ?onDeleteMeeting@CSDKSheduleMeetingUIWorkFlow@@UAEXW4PremeetingAPIResult@ZOOMSDK@@@Z 00426d10 f   schedule_meeting_workflow.obj
 0001:00025d40       ?onGetInviteEmailContent@CSDKSheduleMeetingUIWorkFlow@@UAEXW4PremeetingAPIResult@ZOOMSDK@@_KPB_W@Z 00426d40 f   schedule_meeting_workflow.obj
 0001:00025d80       ?onListMeeting@CSDKSheduleMeetingUIWorkFlow@@UAEXW4PremeetingAPIResult@ZOOMSDK@@PAV?$IList@_K@3@@Z 00426d80 f   schedule_meeting_workflow.obj
 0001:00025db0       ?onScheduleOrEditMeeting@CSDKSheduleMeetingUIWorkFlow@@UAEXW4PremeetingAPIResult@ZOOMSDK@@_K@Z 00426db0 f   schedule_meeting_workflow.obj
 0001:00025df0       ??0CSDKDemoApp@@QAE@XZ     00426df0 f   sdk_demo_app.obj
 0001:00025e60       ??0CSDKDemoAppEvent@@QAE@XZ 00426e60 f i sdk_demo_app.obj
 0001:00025e80       ??1CCustomizeInMeetingUIMgr@@QAE@XZ 00426e80 f i sdk_demo_app.obj
 0001:00025eb0       ??1CSDKDemoApp@@UAE@XZ     00426eb0 f   sdk_demo_app.obj
 0001:00026070       ??_GCCustomizeInMeetingUIMgr@@QAEPAXI@Z 00427070 f i sdk_demo_app.obj
 0001:000260b0       ??_GCSDKDemoApp@@UAEPAXI@Z 004270b0 f i sdk_demo_app.obj
 0001:000260b0       ??_ECSDKDemoApp@@UAEPAXI@Z 004270b0 f i sdk_demo_app.obj
 0001:000260e0       ?ActivateCustomizedUI@CSDKDemoApp@@UAEXXZ 004270e0 f   sdk_demo_app.obj
 0001:00026100       ?InitCustomizedUI@CSDKDemoApp@@UAEXXZ 00427100 f   sdk_demo_app.obj
 0001:000261e0       ?Run@CSDKDemoApp@@QAEXPAUHINSTANCE__@@@Z 004271e0 f   sdk_demo_app.obj
 0001:00026380       ?Stop@CSDKDemoApp@@QAEXXZ  00427380 f   sdk_demo_app.obj
 0001:00026460       ?onJoinFailed@CSDKDemoApp@@UAEXXZ 00427460 f   sdk_demo_app.obj
 0001:000264b0       ?onLoginFailed@CSDKDemoApp@@UAEXXZ 004274b0 f   sdk_demo_app.obj
 0001:000264e0       ?onPageButtonClick@CSDKDemoApp@@UAEXW4ArrowButtonType@@@Z 004274e0 f   sdk_demo_app.obj
 0001:00026510       ?onQuitApp@CSDKDemoApp@@UAEXXZ 00427510 f   sdk_demo_app.obj
 0001:00026530       ?onShowCameraControlWindow@CSDKDemoApp@@UAEXXZ 00427530 f   sdk_demo_app.obj
 0001:00026550       ?onShowChatWindow@CSDKDemoApp@@UAEXXZ 00427550 f   sdk_demo_app.obj
 0001:00026570       ?onShowGalleryViewWindow@CSDKDemoApp@@UAEXXZ 00427570 f   sdk_demo_app.obj
 0001:00026590       ?onShowLoggedInUI@CSDKDemoApp@@UAEXW4LoggedIn_MeetingUI_type@@@Z 00427590 f   sdk_demo_app.obj
 0001:00026760       ?onShowMoreMenuWindow@CSDKDemoApp@@UAEXHH@Z 00427760 f   sdk_demo_app.obj
 0001:00026790       ?onShowParticipantWindow@CSDKDemoApp@@UAEXXZ 00427790 f   sdk_demo_app.obj
 0001:000267b0       ?onShowSettingsUI@CSDKDemoApp@@UAEXW4SettingsUI_page@@@Z 004277b0 f   sdk_demo_app.obj
 0001:000268b0       ?onShowShareWindow@CSDKDemoApp@@UAEXXZ 004278b0 f   sdk_demo_app.obj
 0001:000268d0       ?onSwitchToJoinMeetingForLoginUserUI@CSDKDemoApp@@UAEXXZ 004278d0 f   sdk_demo_app.obj
 0001:000269e0       ?onSwitchToLoginUI@CSDKDemoApp@@UAEXW4SwitchToLoginUIType@@@Z 004279e0 f   sdk_demo_app.obj
 0001:00026be0       ?onSwitchToScheduleMeetingUI@CSDKDemoApp@@UAEXXZ 00427be0 f   sdk_demo_app.obj
 0001:00026cf0       _WinMain@16                00427cf0 f   sdk_demo_v2.obj
 0001:00026d70       ??0CAuthSDKUIGroup@@QAE@XZ 00427d70 f   sdk_init_auth_ui.obj
 0001:00026e10       ??0CAuthSDKWorkFlowUIEvent@@QAE@XZ 00427e10 f i sdk_init_auth_ui.obj
 0001:00026e30       ??0CInitSDKUIGroup@@QAE@XZ 00427e30 f   sdk_init_auth_ui.obj
 0001:00026e90       ??0CInitSDKWorkFlowUIEvent@@QAE@XZ 00427e90 f i sdk_init_auth_ui.obj
 0001:00026eb0       ??0CSDKInitAuthUIMgr@@QAE@XZ 00427eb0 f   sdk_init_auth_ui.obj
 0001:00026f70       ??0tagAuthContext@ZOOMSDK@@QAE@XZ 00427f70 f i sdk_init_auth_ui.obj
 0001:00026f90       ??0tagConfigurableOptions@ZOOMSDK@@QAE@XZ 00427f90 f i sdk_init_auth_ui.obj
 0001:00026fc0       ??0tagInitParam@ZOOMSDK@@QAE@XZ 00427fc0 f i sdk_init_auth_ui.obj
 0001:00027060       ??0tagRawDataOptions@ZOOMSDK@@QAE@XZ 00428060 f i sdk_init_auth_ui.obj
 0001:000270a0       ??0tagZoomSDKRenderOptions@ZOOMSDK@@QAE@XZ 004280a0 f i sdk_init_auth_ui.obj
 0001:000270d0       ??1CAuthSDKUIGroup@@UAE@XZ 004280d0 f   sdk_init_auth_ui.obj
 0001:00027140       ??1CInitSDKUIGroup@@UAE@XZ 00428140 f   sdk_init_auth_ui.obj
 0001:000271a0       ??1CSDKInitAuthUIMgr@@UAE@XZ 004281a0 f   sdk_init_auth_ui.obj
 0001:00027210       ??_ECAuthSDKUIGroup@@UAEPAXI@Z 00428210 f i sdk_init_auth_ui.obj
 0001:00027210       ??_GCAuthSDKUIGroup@@UAEPAXI@Z 00428210 f i sdk_init_auth_ui.obj
 0001:00027240       ??_GCInitSDKUIGroup@@UAEPAXI@Z 00428240 f i sdk_init_auth_ui.obj
 0001:00027240       ??_ECInitSDKUIGroup@@UAEPAXI@Z 00428240 f i sdk_init_auth_ui.obj
 0001:00027270       ??_ECSDKInitAuthUIMgr@@UAEPAXI@Z 00428270 f i sdk_init_auth_ui.obj
 0001:00027270       ??_GCSDKInitAuthUIMgr@@UAEPAXI@Z 00428270 f i sdk_init_auth_ui.obj
 0001:000272b0       ?DoAuthBtnClick@CAuthSDKUIGroup@@QAEXXZ 004282b0 f   sdk_init_auth_ui.obj
 0001:000273f0       ?DoInitBtnClick@CInitSDKUIGroup@@QAEXXZ 004283f0 f   sdk_init_auth_ui.obj
 0001:000275b0       ?GetAppEvent@CSDKInitAuthUIMgr@@QAEPAVCSDKDemoAppEvent@@XZ 004285b0 f   sdk_init_auth_ui.obj
 0001:000275d0       ?GetSkinRes@CSDKInitAuthUIMgr@@UAEIXZ 004285d0 f i sdk_init_auth_ui.obj
 0001:000275e0       ?HandleMessage@CSDKInitAuthUIMgr@@UAEJIIJ@Z 004285e0 f   sdk_init_auth_ui.obj
 0001:000277e0       ?InitWindow@CAuthSDKUIGroup@@QAEXAAVCPaintManagerUI@DuiLib@@PAVCSDKInitAuthUIMgr@@@Z 004287e0 f   sdk_init_auth_ui.obj
 0001:00027840       ?InitWindow@CInitSDKUIGroup@@QAEXAAVCPaintManagerUI@DuiLib@@PAVCSDKInitAuthUIMgr@@@Z 00428840 f   sdk_init_auth_ui.obj
 0001:000278c0       ?InitWindow@CSDKInitAuthUIMgr@@UAEXXZ 004288c0 f   sdk_init_auth_ui.obj
 0001:00027a90       ?Notify@CAuthSDKUIGroup@@QAEXAAUtagTNotifyUI@DuiLib@@@Z 00428a90 f   sdk_init_auth_ui.obj
 0001:00027ad0       ?Notify@CInitSDKUIGroup@@QAEXAAUtagTNotifyUI@DuiLib@@@Z 00428ad0 f   sdk_init_auth_ui.obj
 0001:00027b10       ?Notify@CSDKInitAuthUIMgr@@UAEXAAUtagTNotifyUI@DuiLib@@@Z 00428b10 f   sdk_init_auth_ui.obj
 0001:00027b50       ?OnClose@CSDKInitAuthUIMgr@@QAEJIIJAAH@Z 00428b50 f   sdk_init_auth_ui.obj
 0001:00027b90       ?OnDestroy@CSDKInitAuthUIMgr@@QAEJIIJAAH@Z 00428b90 f   sdk_init_auth_ui.obj
 0001:00027bc0       ?SetCurrentPage@CSDKInitAuthUIMgr@@QAEXPAVCVerticalLayoutUI@DuiLib@@@Z 00428bc0 f i sdk_init_auth_ui.obj
 0001:00027be0       ?SetEvent@CSDKInitAuthUIMgr@@QAEXPAVCSDKDemoAppEvent@@@Z 00428be0 f   sdk_init_auth_ui.obj
 0001:00027c00       ?Show@CAuthSDKUIGroup@@QAEXXZ 00428c00 f   sdk_init_auth_ui.obj
 0001:00027c50       ?Show@CInitSDKUIGroup@@QAEXXZ 00428c50 f   sdk_init_auth_ui.obj
 0001:00027ca0       ?ShowErrorMessage@CSDKInitAuthUIMgr@@QAEXPB_W@Z 00428ca0 f   sdk_init_auth_ui.obj
 0001:00027cd0       ?SwitchToAuthPage@CSDKInitAuthUIMgr@@QAEX_N@Z 00428cd0 f   sdk_init_auth_ui.obj
 0001:00027d00       ?SwitchToWaitingPage@CSDKInitAuthUIMgr@@QAEXPB_W_N@Z 00428d00 f   sdk_init_auth_ui.obj
 0001:00027df0       ?UninitWindow@CAuthSDKUIGroup@@QAEXXZ 00428df0 f   sdk_init_auth_ui.obj
 0001:00027e20       ?UninitWindow@CInitSDKUIGroup@@QAEXXZ 00428e20 f   sdk_init_auth_ui.obj
 0001:00027e50       ?onSDKAuthed@CAuthSDKUIGroup@@UAEXW4AuthResult@ZOOMSDK@@@Z 00428e50 f   sdk_init_auth_ui.obj
 0001:00027ed0       ?onSDKInited@CInitSDKUIGroup@@UAEXW4SDKError@ZOOMSDK@@@Z 00428ed0 f   sdk_init_auth_ui.obj
 0001:00027f80       ??$?0AAPAU?$_Tree_node@PAVIMeetingServiceEvent@ZOOMSDK@@PAX@std@@AAPAU01@$0A@@?$pair@PAU?$_Tree_node@PAVIMeetingServiceEvent@ZOOMSDK@@PAX@std@@PAU12@@std@@QAE@AAPAU?$_Tree_node@PAVIMeetingServiceEvent@ZOOMSDK@@PAX@1@0@Z 00428f80 f i sdk_util.obj
 0001:00027f80       ??$?0AAPAU?$_Tree_node@PAVIAuthServiceEvent@ZOOMSDK@@PAX@std@@AAPAU01@$0A@@?$pair@PAU?$_Tree_node@PAVIAuthServiceEvent@ZOOMSDK@@PAX@std@@PAU12@@std@@QAE@AAPAU?$_Tree_node@PAVIAuthServiceEvent@ZOOMSDK@@PAX@1@0@Z 00428f80 f i sdk_util.obj
 0001:00027f80       ??$?0AAPAU?$_Tree_node@PAVIPreMeetingServiceEvent@ZOOMSDK@@PAX@std@@AAPAU01@$0A@@?$pair@PAU?$_Tree_node@PAVIPreMeetingServiceEvent@ZOOMSDK@@PAX@std@@PAU12@@std@@QAE@AAPAU?$_Tree_node@PAVIPreMeetingServiceEvent@ZOOMSDK@@PAX@1@0@Z 00428f80 f i sdk_util.obj
 0001:00027f80       ??$?0IAAPAVIUserInfo@ZOOMSDK@@$0A@@?$pair@IPAVIUserInfo@ZOOMSDK@@@std@@QAE@$$QAIAAPAVIUserInfo@ZOOMSDK@@@Z 00428f80 f i user_manager.obj
 0001:00027f80       ??$?0AAPAU?$_Tree_node@PAVIMeetingParticipantsCtrlEvent@ZOOMSDK@@PAX@std@@AAPAU01@$0A@@?$pair@PAU?$_Tree_node@PAVIMeetingParticipantsCtrlEvent@ZOOMSDK@@PAX@std@@PAU12@@std@@QAE@AAPAU?$_Tree_node@PAVIMeetingParticipantsCtrlEvent@ZOOMSDK@@PAX@1@0@Z 00428f80 f i sdk_util.obj
 0001:00027f80       ??$?0AAPAU?$_Tree_node@PAVIMeetingChatCtrlEvent@ZOOMSDK@@PAX@std@@AAPAU01@$0A@@?$pair@PAU?$_Tree_node@PAVIMeetingChatCtrlEvent@ZOOMSDK@@PAX@std@@PAU12@@std@@QAE@AAPAU?$_Tree_node@PAVIMeetingChatCtrlEvent@ZOOMSDK@@PAX@1@0@Z 00428f80 f i sdk_util.obj
 0001:00027f80       ??$?0AAPAU?$_Tree_node@PAVIClosedCaptionControllerEvent@ZOOMSDK@@PAX@std@@AAPAU01@$0A@@?$pair@PAU?$_Tree_node@PAVIClosedCaptionControllerEvent@ZOOMSDK@@PAX@std@@PAU12@@std@@QAE@AAPAU?$_Tree_node@PAVIClosedCaptionControllerEvent@ZOOMSDK@@PAX@1@0@Z 00428f80 f i sdk_util.obj
 0001:00027f80       ??$?0IAAW4bkItemType@@$0A@@?$pair@HW4bkItemType@@@std@@QAE@$$QAIAAW4bkItemType@@@Z 00428f80 f i settings_ui.obj
 0001:00027f80       ??$?0AAPAU?$_Tree_node@PAVISDKInMeetingServiceMgrEvent@@PAX@std@@AAPAU01@$0A@@?$pair@PAU?$_Tree_node@PAVISDKInMeetingServiceMgrEvent@@PAX@std@@PAU12@@std@@QAE@AAPAU?$_Tree_node@PAVISDKInMeetingServiceMgrEvent@@PAX@1@0@Z 00428f80 f i sdk_util.obj
 0001:00027fc0       ??$?0PAU?$_Tree_node@PAVIMeetingVideoCtrlEvent@ZOOMSDK@@PAX@std@@_N$0A@@?$pair@PAU?$_Tree_node@PAVIMeetingVideoCtrlEvent@ZOOMSDK@@PAX@std@@_N@std@@QAE@$$QAPAU?$_Tree_node@PAVIMeetingVideoCtrlEvent@ZOOMSDK@@PAX@1@$$QA_N@Z 00428fc0 f i sdk_util.obj
 0001:00027fc0       ??$?0AAPAU?$_Tree_node@PAVIAuthServiceEvent@ZOOMSDK@@PAX@std@@_N$0A@@?$pair@PAU?$_Tree_node@PAVIAuthServiceEvent@ZOOMSDK@@PAX@std@@_N@std@@QAE@AAPAU?$_Tree_node@PAVIAuthServiceEvent@ZOOMSDK@@PAX@1@$$QA_N@Z 00428fc0 f i sdk_util.obj
 0001:00027fc0       ??$?0PAU?$_Tree_node@PAVIMeetingParticipantsCtrlEvent@ZOOMSDK@@PAX@std@@_N$0A@@?$pair@PAU?$_Tree_node@PAVIMeetingParticipantsCtrlEvent@ZOOMSDK@@PAX@std@@_N@std@@QAE@$$QAPAU?$_Tree_node@PAVIMeetingParticipantsCtrlEvent@ZOOMSDK@@PAX@1@$$QA_N@Z 00428fc0 f i sdk_util.obj
 0001:00027fc0       ??$?0AAPAU?$_Tree_node@PAVIPreMeetingServiceEvent@ZOOMSDK@@PAX@std@@_N$0A@@?$pair@PAU?$_Tree_node@PAVIPreMeetingServiceEvent@ZOOMSDK@@PAX@std@@_N@std@@QAE@AAPAU?$_Tree_node@PAVIPreMeetingServiceEvent@ZOOMSDK@@PAX@1@$$QA_N@Z 00428fc0 f i sdk_util.obj
 0001:00027fc0       ??$?0PAU?$_Tree_node@PAVIPreMeetingServiceEvent@ZOOMSDK@@PAX@std@@_N$0A@@?$pair@PAU?$_Tree_node@PAVIPreMeetingServiceEvent@ZOOMSDK@@PAX@std@@_N@std@@QAE@$$QAPAU?$_Tree_node@PAVIPreMeetingServiceEvent@ZOOMSDK@@PAX@1@$$QA_N@Z 00428fc0 f i sdk_util.obj
 0001:00027fc0       ??$?0AAPAU?$_Tree_node@PAVIMeetingChatCtrlEvent@ZOOMSDK@@PAX@std@@_N$0A@@?$pair@PAU?$_Tree_node@PAVIMeetingChatCtrlEvent@ZOOMSDK@@PAX@std@@_N@std@@QAE@AAPAU?$_Tree_node@PAVIMeetingChatCtrlEvent@ZOOMSDK@@PAX@1@$$QA_N@Z 00428fc0 f i sdk_util.obj
 0001:00027fc0       ??$?0AAPAU?$_Tree_node@PAVIMeetingParticipantsCtrlEvent@ZOOMSDK@@PAX@std@@_N$0A@@?$pair@PAU?$_Tree_node@PAVIMeetingParticipantsCtrlEvent@ZOOMSDK@@PAX@std@@_N@std@@QAE@AAPAU?$_Tree_node@PAVIMeetingParticipantsCtrlEvent@ZOOMSDK@@PAX@1@$$QA_N@Z 00428fc0 f i sdk_util.obj
 0001:00027fc0       ??$?0AAPAU?$_Tree_node@U?$pair@$$CBIPAVIUserInfo@ZOOMSDK@@@std@@PAX@std@@_N$0A@@?$pair@PAU?$_Tree_node@U?$pair@$$CBIPAVIUserInfo@ZOOMSDK@@@std@@PAX@std@@_N@std@@QAE@AAPAU?$_Tree_node@U?$pair@$$CBIPAVIUserInfo@ZOOMSDK@@@std@@PAX@1@$$QA_N@Z 00428fc0 f i user_manager.obj
 0001:00027fc0       ??$?0AAPAU?$_Tree_node@PAVIMeetingVideoCtrlEvent@ZOOMSDK@@PAX@std@@_N$0A@@?$pair@PAU?$_Tree_node@PAVIMeetingVideoCtrlEvent@ZOOMSDK@@PAX@std@@_N@std@@QAE@AAPAU?$_Tree_node@PAVIMeetingVideoCtrlEvent@ZOOMSDK@@PAX@1@$$QA_N@Z 00428fc0 f i sdk_util.obj
 0001:00027fc0       ??$?0PAU?$_Tree_node@PAVIMeetingChatCtrlEvent@ZOOMSDK@@PAX@std@@_N$0A@@?$pair@PAU?$_Tree_node@PAVIMeetingChatCtrlEvent@ZOOMSDK@@PAX@std@@_N@std@@QAE@$$QAPAU?$_Tree_node@PAVIMeetingChatCtrlEvent@ZOOMSDK@@PAX@1@$$QA_N@Z 00428fc0 f i sdk_util.obj
 0001:00027fc0       ??$?0ABQAU?$_Tree_node@U?$pair@$$CBIPAVIUserInfo@ZOOMSDK@@@std@@PAX@std@@_N$0A@@?$pair@PAU?$_Tree_node@U?$pair@$$CBIPAVIUserInfo@ZOOMSDK@@@std@@PAX@std@@_N@std@@QAE@ABQAU?$_Tree_node@U?$pair@$$CBIPAVIUserInfo@ZOOMSDK@@@std@@PAX@1@$$QA_N@Z 00428fc0 f i user_manager.obj
 0001:00027fc0       ??$?0AAPAU?$_Tree_node@PAVIMeetingServiceEvent@ZOOMSDK@@PAX@std@@_N$0A@@?$pair@PAU?$_Tree_node@PAVIMeetingServiceEvent@ZOOMSDK@@PAX@std@@_N@std@@QAE@AAPAU?$_Tree_node@PAVIMeetingServiceEvent@ZOOMSDK@@PAX@1@$$QA_N@Z 00428fc0 f i sdk_util.obj
 0001:00027fc0       ??$?0PAU?$_Tree_node@U?$pair@$$CBIPAVIUserInfo@ZOOMSDK@@@std@@PAX@std@@_N$0A@@?$pair@PAU?$_Tree_node@U?$pair@$$CBIPAVIUserInfo@ZOOMSDK@@@std@@PAX@std@@_N@std@@QAE@$$QAPAU?$_Tree_node@U?$pair@$$CBIPAVIUserInfo@ZOOMSDK@@@std@@PAX@1@$$QA_N@Z 00428fc0 f i user_manager.obj
 0001:00027fc0       ??$?0AAPAU?$_Tree_node@PAVIClosedCaptionControllerEvent@ZOOMSDK@@PAX@std@@_N$0A@@?$pair@PAU?$_Tree_node@PAVIClosedCaptionControllerEvent@ZOOMSDK@@PAX@std@@_N@std@@QAE@AAPAU?$_Tree_node@PAVIClosedCaptionControllerEvent@ZOOMSDK@@PAX@1@$$QA_N@Z 00428fc0 f i sdk_util.obj
 0001:00027fc0       ??$?0AAPAU?$_Tree_node@U?$pair@$$CBHW4bkItemType@@@std@@PAX@std@@_N$0A@@?$pair@PAU?$_Tree_node@U?$pair@$$CBHW4bkItemType@@@std@@PAX@std@@_N@std@@QAE@AAPAU?$_Tree_node@U?$pair@$$CBHW4bkItemType@@@std@@PAX@1@$$QA_N@Z 00428fc0 f i settings_ui.obj
 0001:00027fc0       ??$?0PAU?$_Tree_node@PAVISDKInMeetingServiceMgrEvent@@PAX@std@@_N$0A@@?$pair@PAU?$_Tree_node@PAVISDKInMeetingServiceMgrEvent@@PAX@std@@_N@std@@QAE@$$QAPAU?$_Tree_node@PAVISDKInMeetingServiceMgrEvent@@PAX@1@$$QA_N@Z 00428fc0 f i sdk_util.obj
 0001:00027fc0       ??$?0PAU?$_Tree_node@PAVIAuthServiceEvent@ZOOMSDK@@PAX@std@@_N$0A@@?$pair@PAU?$_Tree_node@PAVIAuthServiceEvent@ZOOMSDK@@PAX@std@@_N@std@@QAE@$$QAPAU?$_Tree_node@PAVIAuthServiceEvent@ZOOMSDK@@PAX@1@$$QA_N@Z 00428fc0 f i sdk_util.obj
 0001:00027fc0       ??$?0PAU?$_Tree_node@PAVIClosedCaptionControllerEvent@ZOOMSDK@@PAX@std@@_N$0A@@?$pair@PAU?$_Tree_node@PAVIClosedCaptionControllerEvent@ZOOMSDK@@PAX@std@@_N@std@@QAE@$$QAPAU?$_Tree_node@PAVIClosedCaptionControllerEvent@ZOOMSDK@@PAX@1@$$QA_N@Z 00428fc0 f i sdk_util.obj
 0001:00027fc0       ??$?0PAU?$_Tree_node@U?$pair@$$CBHW4bkItemType@@@std@@PAX@std@@_N$0A@@?$pair@PAU?$_Tree_node@U?$pair@$$CBHW4bkItemType@@@std@@PAX@std@@_N@std@@QAE@$$QAPAU?$_Tree_node@U?$pair@$$CBHW4bkItemType@@@std@@PAX@1@$$QA_N@Z 00428fc0 f i settings_ui.obj
 0001:00027fc0       ??$?0AAPAU?$_Tree_node@PAVISDKInMeetingServiceMgrEvent@@PAX@std@@_N$0A@@?$pair@PAU?$_Tree_node@PAVISDKInMeetingServiceMgrEvent@@PAX@std@@_N@std@@QAE@AAPAU?$_Tree_node@PAVISDKInMeetingServiceMgrEvent@@PAX@1@$$QA_N@Z 00428fc0 f i sdk_util.obj
 0001:00027fc0       ??$?0PAU?$_Tree_node@PAVIMeetingServiceEvent@ZOOMSDK@@PAX@std@@_N$0A@@?$pair@PAU?$_Tree_node@PAVIMeetingServiceEvent@ZOOMSDK@@PAX@std@@_N@std@@QAE@$$QAPAU?$_Tree_node@PAVIMeetingServiceEvent@ZOOMSDK@@PAX@1@$$QA_N@Z 00428fc0 f i sdk_util.obj
 0001:00028000       ??$?0ABQAVIClosedCaptionControllerEvent@ZOOMSDK@@@?$_Tree_temp_node@V?$allocator@U?$_Tree_node@PAVIClosedCaptionControllerEvent@ZOOMSDK@@PAX@std@@@std@@@std@@QAE@AAV?$allocator@U?$_Tree_node@PAVIClosedCaptionControllerEvent@ZOOMSDK@@PAX@std@@@1@PAU?$_Tree_node@PAVIClosedCaptionControllerEvent@ZOOMSDK@@PAX@1@ABQAVIClosedCaptionControllerEvent@ZOOMSDK@@@Z 00429000 f i sdk_util.obj
 0001:00028000       ??$?0ABQAVIMeetingServiceEvent@ZOOMSDK@@@?$_Tree_temp_node@V?$allocator@U?$_Tree_node@PAVIMeetingServiceEvent@ZOOMSDK@@PAX@std@@@std@@@std@@QAE@AAV?$allocator@U?$_Tree_node@PAVIMeetingServiceEvent@ZOOMSDK@@PAX@std@@@1@PAU?$_Tree_node@PAVIMeetingServiceEvent@ZOOMSDK@@PAX@1@ABQAVIMeetingServiceEvent@ZOOMSDK@@@Z 00429000 f i sdk_util.obj
 0001:00028000       ??$?0ABQAVIMeetingParticipantsCtrlEvent@ZOOMSDK@@@?$_Tree_temp_node@V?$allocator@U?$_Tree_node@PAVIMeetingParticipantsCtrlEvent@ZOOMSDK@@PAX@std@@@std@@@std@@QAE@AAV?$allocator@U?$_Tree_node@PAVIMeetingParticipantsCtrlEvent@ZOOMSDK@@PAX@std@@@1@PAU?$_Tree_node@PAVIMeetingParticipantsCtrlEvent@ZOOMSDK@@PAX@1@ABQAVIMeetingParticipantsCtrlEvent@ZOOMSDK@@@Z 00429000 f i sdk_util.obj
 0001:00028000       ??$?0ABQAVIAuthServiceEvent@ZOOMSDK@@@?$_Tree_temp_node@V?$allocator@U?$_Tree_node@PAVIAuthServiceEvent@ZOOMSDK@@PAX@std@@@std@@@std@@QAE@AAV?$allocator@U?$_Tree_node@PAVIAuthServiceEvent@ZOOMSDK@@PAX@std@@@1@PAU?$_Tree_node@PAVIAuthServiceEvent@ZOOMSDK@@PAX@1@ABQAVIAuthServiceEvent@ZOOMSDK@@@Z 00429000 f i sdk_util.obj
 0001:00028000       ??$?0ABQAVISDKInMeetingServiceMgrEvent@@@?$_Tree_temp_node@V?$allocator@U?$_Tree_node@PAVISDKInMeetingServiceMgrEvent@@PAX@std@@@std@@@std@@QAE@AAV?$allocator@U?$_Tree_node@PAVISDKInMeetingServiceMgrEvent@@PAX@std@@@1@PAU?$_Tree_node@PAVISDKInMeetingServiceMgrEvent@@PAX@1@ABQAVISDKInMeetingServiceMgrEvent@@@Z 00429000 f i sdk_util.obj
 0001:00028000       ??$?0ABQAVIPreMeetingServiceEvent@ZOOMSDK@@@?$_Tree_temp_node@V?$allocator@U?$_Tree_node@PAVIPreMeetingServiceEvent@ZOOMSDK@@PAX@std@@@std@@@std@@QAE@AAV?$allocator@U?$_Tree_node@PAVIPreMeetingServiceEvent@ZOOMSDK@@PAX@std@@@1@PAU?$_Tree_node@PAVIPreMeetingServiceEvent@ZOOMSDK@@PAX@1@ABQAVIPreMeetingServiceEvent@ZOOMSDK@@@Z 00429000 f i sdk_util.obj
 0001:00028000       ??$?0ABQAVIMeetingVideoCtrlEvent@ZOOMSDK@@@?$_Tree_temp_node@V?$allocator@U?$_Tree_node@PAVIMeetingVideoCtrlEvent@ZOOMSDK@@PAX@std@@@std@@@std@@QAE@AAV?$allocator@U?$_Tree_node@PAVIMeetingVideoCtrlEvent@ZOOMSDK@@PAX@std@@@1@PAU?$_Tree_node@PAVIMeetingVideoCtrlEvent@ZOOMSDK@@PAX@1@ABQAVIMeetingVideoCtrlEvent@ZOOMSDK@@@Z 00429000 f i sdk_util.obj
 0001:00028000       ??$?0ABQAVIMeetingChatCtrlEvent@ZOOMSDK@@@?$_Tree_temp_node@V?$allocator@U?$_Tree_node@PAVIMeetingChatCtrlEvent@ZOOMSDK@@PAX@std@@@std@@@std@@QAE@AAV?$allocator@U?$_Tree_node@PAVIMeetingChatCtrlEvent@ZOOMSDK@@PAX@std@@@1@PAU?$_Tree_node@PAVIMeetingChatCtrlEvent@ZOOMSDK@@PAX@1@ABQAVIMeetingChatCtrlEvent@ZOOMSDK@@@Z 00429000 f i sdk_util.obj
 0001:000280e0       ??$?0ABU?$less@I@std@@U_Zero_then_variadic_args_t@1@@?$_Compressed_pair@U?$less@I@std@@V?$_Compressed_pair@V?$allocator@U?$_Tree_node@U?$pair@$$CBIPAVIUserInfo@ZOOMSDK@@@std@@PAX@std@@@std@@V?$_Tree_val@U?$_Tree_simple_types@U?$pair@$$CBIPAVIUserInfo@ZOOMSDK@@@std@@@std@@@2@$00@2@$00@std@@QAE@U_One_then_variadic_args_t@1@ABU?$less@I@1@$$QAU_Zero_then_variadic_args_t@1@@Z 004290e0 f i user_manager.obj
 0001:000280e0       ??$?0ABU?$less@PAVIMeetingServiceEvent@ZOOMSDK@@@std@@U_Zero_then_variadic_args_t@1@@?$_Compressed_pair@U?$less@PAVIMeetingServiceEvent@ZOOMSDK@@@std@@V?$_Compressed_pair@V?$allocator@U?$_Tree_node@PAVIMeetingServiceEvent@ZOOMSDK@@PAX@std@@@std@@V?$_Tree_val@U?$_Tree_simple_types@PAVIMeetingServiceEvent@ZOOMSDK@@@std@@@2@$00@2@$00@std@@QAE@U_One_then_variadic_args_t@1@ABU?$less@PAVIMeetingServiceEvent@ZOOMSDK@@@1@$$QAU_Zero_then_variadic_args_t@1@@Z 004290e0 f i sdk_util.obj
 0001:000280e0       ??$?0ABU?$less@H@std@@U_Zero_then_variadic_args_t@1@@?$_Compressed_pair@U?$less@H@std@@V?$_Compressed_pair@V?$allocator@U?$_Tree_node@U?$pair@$$CBHW4bkItemType@@@std@@PAX@std@@@std@@V?$_Tree_val@U?$_Tree_simple_types@U?$pair@$$CBHW4bkItemType@@@std@@@std@@@2@$00@2@$00@std@@QAE@U_One_then_variadic_args_t@1@ABU?$less@H@1@$$QAU_Zero_then_variadic_args_t@1@@Z 004290e0 f i settings_ui.obj
 0001:000280e0       ??$?0ABU?$less@PAVIMeetingChatCtrlEvent@ZOOMSDK@@@std@@U_Zero_then_variadic_args_t@1@@?$_Compressed_pair@U?$less@PAVIMeetingChatCtrlEvent@ZOOMSDK@@@std@@V?$_Compressed_pair@V?$allocator@U?$_Tree_node@PAVIMeetingChatCtrlEvent@ZOOMSDK@@PAX@std@@@std@@V?$_Tree_val@U?$_Tree_simple_types@PAVIMeetingChatCtrlEvent@ZOOMSDK@@@std@@@2@$00@2@$00@std@@QAE@U_One_then_variadic_args_t@1@ABU?$less@PAVIMeetingChatCtrlEvent@ZOOMSDK@@@1@$$QAU_Zero_then_variadic_args_t@1@@Z 004290e0 f i sdk_util.obj
 0001:000280e0       ??$?0ABU?$less@PAVIMeetingParticipantsCtrlEvent@ZOOMSDK@@@std@@U_Zero_then_variadic_args_t@1@@?$_Compressed_pair@U?$less@PAVIMeetingParticipantsCtrlEvent@ZOOMSDK@@@std@@V?$_Compressed_pair@V?$allocator@U?$_Tree_node@PAVIMeetingParticipantsCtrlEvent@ZOOMSDK@@PAX@std@@@std@@V?$_Tree_val@U?$_Tree_simple_types@PAVIMeetingParticipantsCtrlEvent@ZOOMSDK@@@std@@@2@$00@2@$00@std@@QAE@U_One_then_variadic_args_t@1@ABU?$less@PAVIMeetingParticipantsCtrlEvent@ZOOMSDK@@@1@$$QAU_Zero_then_variadic_args_t@1@@Z 004290e0 f i sdk_util.obj
 0001:000280e0       ??$?0ABU?$less@PAVIAuthServiceEvent@ZOOMSDK@@@std@@U_Zero_then_variadic_args_t@1@@?$_Compressed_pair@U?$less@PAVIAuthServiceEvent@ZOOMSDK@@@std@@V?$_Compressed_pair@V?$allocator@U?$_Tree_node@PAVIAuthServiceEvent@ZOOMSDK@@PAX@std@@@std@@V?$_Tree_val@U?$_Tree_simple_types@PAVIAuthServiceEvent@ZOOMSDK@@@std@@@2@$00@2@$00@std@@QAE@U_One_then_variadic_args_t@1@ABU?$less@PAVIAuthServiceEvent@ZOOMSDK@@@1@$$QAU_Zero_then_variadic_args_t@1@@Z 004290e0 f i sdk_util.obj
 0001:000280e0       ??$?0ABU?$less@PAVIMeetingVideoCtrlEvent@ZOOMSDK@@@std@@U_Zero_then_variadic_args_t@1@@?$_Compressed_pair@U?$less@PAVIMeetingVideoCtrlEvent@ZOOMSDK@@@std@@V?$_Compressed_pair@V?$allocator@U?$_Tree_node@PAVIMeetingVideoCtrlEvent@ZOOMSDK@@PAX@std@@@std@@V?$_Tree_val@U?$_Tree_simple_types@PAVIMeetingVideoCtrlEvent@ZOOMSDK@@@std@@@2@$00@2@$00@std@@QAE@U_One_then_variadic_args_t@1@ABU?$less@PAVIMeetingVideoCtrlEvent@ZOOMSDK@@@1@$$QAU_Zero_then_variadic_args_t@1@@Z 004290e0 f i sdk_util.obj
 0001:000280e0       ??$?0ABU?$less@PAVIPreMeetingServiceEvent@ZOOMSDK@@@std@@U_Zero_then_variadic_args_t@1@@?$_Compressed_pair@U?$less@PAVIPreMeetingServiceEvent@ZOOMSDK@@@std@@V?$_Compressed_pair@V?$allocator@U?$_Tree_node@PAVIPreMeetingServiceEvent@ZOOMSDK@@PAX@std@@@std@@V?$_Tree_val@U?$_Tree_simple_types@PAVIPreMeetingServiceEvent@ZOOMSDK@@@std@@@2@$00@2@$00@std@@QAE@U_One_then_variadic_args_t@1@ABU?$less@PAVIPreMeetingServiceEvent@ZOOMSDK@@@1@$$QAU_Zero_then_variadic_args_t@1@@Z 004290e0 f i sdk_util.obj
 0001:000280e0       ??$?0ABU?$less@PAVIClosedCaptionControllerEvent@ZOOMSDK@@@std@@U_Zero_then_variadic_args_t@1@@?$_Compressed_pair@U?$less@PAVIClosedCaptionControllerEvent@ZOOMSDK@@@std@@V?$_Compressed_pair@V?$allocator@U?$_Tree_node@PAVIClosedCaptionControllerEvent@ZOOMSDK@@PAX@std@@@std@@V?$_Tree_val@U?$_Tree_simple_types@PAVIClosedCaptionControllerEvent@ZOOMSDK@@@std@@@2@$00@2@$00@std@@QAE@U_One_then_variadic_args_t@1@ABU?$less@PAVIClosedCaptionControllerEvent@ZOOMSDK@@@1@$$QAU_Zero_then_variadic_args_t@1@@Z 004290e0 f i sdk_util.obj
 0001:000280e0       ??$?0ABU?$less@PAVISDKInMeetingServiceMgrEvent@@@std@@U_Zero_then_variadic_args_t@1@@?$_Compressed_pair@U?$less@PAVISDKInMeetingServiceMgrEvent@@@std@@V?$_Compressed_pair@V?$allocator@U?$_Tree_node@PAVISDKInMeetingServiceMgrEvent@@PAX@std@@@std@@V?$_Tree_val@U?$_Tree_simple_types@PAVISDKInMeetingServiceMgrEvent@@@std@@@2@$00@2@$00@std@@QAE@U_One_then_variadic_args_t@1@ABU?$less@PAVISDKInMeetingServiceMgrEvent@@@1@$$QAU_Zero_then_variadic_args_t@1@@Z 004290e0 f i sdk_util.obj
 0001:00028120       ??$?0V?$_Tree_const_iterator@V?$_Tree_val@U?$_Tree_simple_types@PAVIClosedCaptionControllerEvent@ZOOMSDK@@@std@@@std@@@std@@AB_N$0A@@?$pair@V?$_Tree_const_iterator@V?$_Tree_val@U?$_Tree_simple_types@PAVIClosedCaptionControllerEvent@ZOOMSDK@@@std@@@std@@@std@@_N@std@@QAE@$$QAV?$_Tree_const_iterator@V?$_Tree_val@U?$_Tree_simple_types@PAVIClosedCaptionControllerEvent@ZOOMSDK@@@std@@@std@@@1@AB_N@Z 00429120 f i sdk_util.obj
 0001:00028120       ??$?0V?$_Tree_const_iterator@V?$_Tree_val@U?$_Tree_simple_types@PAVIMeetingServiceEvent@ZOOMSDK@@@std@@@std@@@std@@AB_N$0A@@?$pair@V?$_Tree_const_iterator@V?$_Tree_val@U?$_Tree_simple_types@PAVIMeetingServiceEvent@ZOOMSDK@@@std@@@std@@@std@@_N@std@@QAE@$$QAV?$_Tree_const_iterator@V?$_Tree_val@U?$_Tree_simple_types@PAVIMeetingServiceEvent@ZOOMSDK@@@std@@@std@@@1@AB_N@Z 00429120 f i sdk_util.obj
 0001:00028120       ??$?0V?$_Tree_const_iterator@V?$_Tree_val@U?$_Tree_simple_types@PAVIPreMeetingServiceEvent@ZOOMSDK@@@std@@@std@@@std@@AB_N$0A@@?$pair@V?$_Tree_const_iterator@V?$_Tree_val@U?$_Tree_simple_types@PAVIPreMeetingServiceEvent@ZOOMSDK@@@std@@@std@@@std@@_N@std@@QAE@$$QAV?$_Tree_const_iterator@V?$_Tree_val@U?$_Tree_simple_types@PAVIPreMeetingServiceEvent@ZOOMSDK@@@std@@@std@@@1@AB_N@Z 00429120 f i sdk_util.obj
 0001:00028120       ??$?0V?$_Tree_iterator@V?$_Tree_val@U?$_Tree_simple_types@U?$pair@$$CBHW4bkItemType@@@std@@@std@@@std@@@std@@AB_N$0A@@?$pair@V?$_Tree_iterator@V?$_Tree_val@U?$_Tree_simple_types@U?$pair@$$CBHW4bkItemType@@@std@@@std@@@std@@@std@@_N@std@@QAE@$$QAV?$_Tree_iterator@V?$_Tree_val@U?$_Tree_simple_types@U?$pair@$$CBHW4bkItemType@@@std@@@std@@@std@@@1@AB_N@Z 00429120 f i settings_ui.obj
 0001:00028120       ??$?0V?$_Tree_const_iterator@V?$_Tree_val@U?$_Tree_simple_types@PAVIAuthServiceEvent@ZOOMSDK@@@std@@@std@@@std@@AB_N$0A@@?$pair@V?$_Tree_const_iterator@V?$_Tree_val@U?$_Tree_simple_types@PAVIAuthServiceEvent@ZOOMSDK@@@std@@@std@@@std@@_N@std@@QAE@$$QAV?$_Tree_const_iterator@V?$_Tree_val@U?$_Tree_simple_types@PAVIAuthServiceEvent@ZOOMSDK@@@std@@@std@@@1@AB_N@Z 00429120 f i sdk_util.obj
 0001:00028120       ??$?0V?$_Tree_const_iterator@V?$_Tree_val@U?$_Tree_simple_types@PAVISDKInMeetingServiceMgrEvent@@@std@@@std@@@std@@AB_N$0A@@?$pair@V?$_Tree_const_iterator@V?$_Tree_val@U?$_Tree_simple_types@PAVISDKInMeetingServiceMgrEvent@@@std@@@std@@@std@@_N@std@@QAE@$$QAV?$_Tree_const_iterator@V?$_Tree_val@U?$_Tree_simple_types@PAVISDKInMeetingServiceMgrEvent@@@std@@@std@@@1@AB_N@Z 00429120 f i sdk_util.obj
 0001:00028120       ??$?0V?$_Tree_const_iterator@V?$_Tree_val@U?$_Tree_simple_types@PAVIMeetingChatCtrlEvent@ZOOMSDK@@@std@@@std@@@std@@AB_N$0A@@?$pair@V?$_Tree_const_iterator@V?$_Tree_val@U?$_Tree_simple_types@PAVIMeetingChatCtrlEvent@ZOOMSDK@@@std@@@std@@@std@@_N@std@@QAE@$$QAV?$_Tree_const_iterator@V?$_Tree_val@U?$_Tree_simple_types@PAVIMeetingChatCtrlEvent@ZOOMSDK@@@std@@@std@@@1@AB_N@Z 00429120 f i sdk_util.obj
 0001:00028120       ??$?0V?$_Tree_const_iterator@V?$_Tree_val@U?$_Tree_simple_types@PAVIMeetingParticipantsCtrlEvent@ZOOMSDK@@@std@@@std@@@std@@AB_N$0A@@?$pair@V?$_Tree_const_iterator@V?$_Tree_val@U?$_Tree_simple_types@PAVIMeetingParticipantsCtrlEvent@ZOOMSDK@@@std@@@std@@@std@@_N@std@@QAE@$$QAV?$_Tree_const_iterator@V?$_Tree_val@U?$_Tree_simple_types@PAVIMeetingParticipantsCtrlEvent@ZOOMSDK@@@std@@@std@@@1@AB_N@Z 00429120 f i sdk_util.obj
 0001:00028120       ??$?0V?$_Tree_const_iterator@V?$_Tree_val@U?$_Tree_simple_types@PAVIMeetingVideoCtrlEvent@ZOOMSDK@@@std@@@std@@@std@@AB_N$0A@@?$pair@V?$_Tree_const_iterator@V?$_Tree_val@U?$_Tree_simple_types@PAVIMeetingVideoCtrlEvent@ZOOMSDK@@@std@@@std@@@std@@_N@std@@QAE@$$QAV?$_Tree_const_iterator@V?$_Tree_val@U?$_Tree_simple_types@PAVIMeetingVideoCtrlEvent@ZOOMSDK@@@std@@@std@@@1@AB_N@Z 00429120 f i sdk_util.obj
 0001:00028120       ??$?0V?$_Tree_iterator@V?$_Tree_val@U?$_Tree_simple_types@U?$pair@$$CBIPAVIUserInfo@ZOOMSDK@@@std@@@std@@@std@@@std@@AB_N$0A@@?$pair@V?$_Tree_iterator@V?$_Tree_val@U?$_Tree_simple_types@U?$pair@$$CBIPAVIUserInfo@ZOOMSDK@@@std@@@std@@@std@@@std@@_N@std@@QAE@$$QAV?$_Tree_iterator@V?$_Tree_val@U?$_Tree_simple_types@U?$pair@$$CBIPAVIUserInfo@ZOOMSDK@@@std@@@std@@@std@@@1@AB_N@Z 00429120 f i user_manager.obj
 0001:00028160       ??$_Buyheadnode@V?$allocator@U?$_Tree_node@PAVIMeetingServiceEvent@ZOOMSDK@@PAX@std@@@std@@@?$_Tree_node@PAVIMeetingServiceEvent@ZOOMSDK@@PAX@std@@SAPAU01@AAV?$allocator@U?$_Tree_node@PAVIMeetingServiceEvent@ZOOMSDK@@PAX@std@@@1@@Z 00429160 f i sdk_util.obj
 0001:00028160       ??$_Buyheadnode@V?$allocator@U?$_Tree_node@PAVIMeetingChatCtrlEvent@ZOOMSDK@@PAX@std@@@std@@@?$_Tree_node@PAVIMeetingChatCtrlEvent@ZOOMSDK@@PAX@std@@SAPAU01@AAV?$allocator@U?$_Tree_node@PAVIMeetingChatCtrlEvent@ZOOMSDK@@PAX@std@@@1@@Z 00429160 f i sdk_util.obj
 0001:00028160       ??$_Buyheadnode@V?$allocator@U?$_Tree_node@PAVIPreMeetingServiceEvent@ZOOMSDK@@PAX@std@@@std@@@?$_Tree_node@PAVIPreMeetingServiceEvent@ZOOMSDK@@PAX@std@@SAPAU01@AAV?$allocator@U?$_Tree_node@PAVIPreMeetingServiceEvent@ZOOMSDK@@PAX@std@@@1@@Z 00429160 f i sdk_util.obj
 0001:00028160       ??$_Buyheadnode@V?$allocator@U?$_Tree_node@PAVISDKInMeetingServiceMgrEvent@@PAX@std@@@std@@@?$_Tree_node@PAVISDKInMeetingServiceMgrEvent@@PAX@std@@SAPAU01@AAV?$allocator@U?$_Tree_node@PAVISDKInMeetingServiceMgrEvent@@PAX@std@@@1@@Z 00429160 f i sdk_util.obj
 0001:00028160       ??$_Buyheadnode@V?$allocator@U?$_Tree_node@PAVIClosedCaptionControllerEvent@ZOOMSDK@@PAX@std@@@std@@@?$_Tree_node@PAVIClosedCaptionControllerEvent@ZOOMSDK@@PAX@std@@SAPAU01@AAV?$allocator@U?$_Tree_node@PAVIClosedCaptionControllerEvent@ZOOMSDK@@PAX@std@@@1@@Z 00429160 f i sdk_util.obj
 0001:00028160       ??$_Buyheadnode@V?$allocator@U?$_Tree_node@PAVIMeetingVideoCtrlEvent@ZOOMSDK@@PAX@std@@@std@@@?$_Tree_node@PAVIMeetingVideoCtrlEvent@ZOOMSDK@@PAX@std@@SAPAU01@AAV?$allocator@U?$_Tree_node@PAVIMeetingVideoCtrlEvent@ZOOMSDK@@PAX@std@@@1@@Z 00429160 f i sdk_util.obj
 0001:00028160       ??$_Buyheadnode@V?$allocator@U?$_Tree_node@PAVIMeetingParticipantsCtrlEvent@ZOOMSDK@@PAX@std@@@std@@@?$_Tree_node@PAVIMeetingParticipantsCtrlEvent@ZOOMSDK@@PAX@std@@SAPAU01@AAV?$allocator@U?$_Tree_node@PAVIMeetingParticipantsCtrlEvent@ZOOMSDK@@PAX@std@@@1@@Z 00429160 f i sdk_util.obj
 0001:00028160       ??$_Buyheadnode@V?$allocator@U?$_Tree_node@PAVIAuthServiceEvent@ZOOMSDK@@PAX@std@@@std@@@?$_Tree_node@PAVIAuthServiceEvent@ZOOMSDK@@PAX@std@@SAPAU01@AAV?$allocator@U?$_Tree_node@PAVIAuthServiceEvent@ZOOMSDK@@PAX@std@@@1@@Z 00429160 f i sdk_util.obj
 0001:000281c0       ??$_Emplace@ABQAVIMeetingParticipantsCtrlEvent@ZOOMSDK@@@?$_Tree@V?$_Tset_traits@PAVIMeetingParticipantsCtrlEvent@ZOOMSDK@@U?$less@PAVIMeetingParticipantsCtrlEvent@ZOOMSDK@@@std@@V?$allocator@PAVIMeetingParticipantsCtrlEvent@ZOOMSDK@@@4@$0A@@std@@@std@@IAE?AU?$pair@PAU?$_Tree_node@PAVIMeetingParticipantsCtrlEvent@ZOOMSDK@@PAX@std@@_N@1@ABQAVIMeetingParticipantsCtrlEvent@ZOOMSDK@@@Z 004291c0 f i sdk_util.obj
 0001:000281c0       ??$_Emplace@ABQAVIMeetingServiceEvent@ZOOMSDK@@@?$_Tree@V?$_Tset_traits@PAVIMeetingServiceEvent@ZOOMSDK@@U?$less@PAVIMeetingServiceEvent@ZOOMSDK@@@std@@V?$allocator@PAVIMeetingServiceEvent@ZOOMSDK@@@4@$0A@@std@@@std@@IAE?AU?$pair@PAU?$_Tree_node@PAVIMeetingServiceEvent@ZOOMSDK@@PAX@std@@_N@1@ABQAVIMeetingServiceEvent@ZOOMSDK@@@Z 004291c0 f i sdk_util.obj
 0001:000281c0       ??$_Emplace@ABQAVIClosedCaptionControllerEvent@ZOOMSDK@@@?$_Tree@V?$_Tset_traits@PAVIClosedCaptionControllerEvent@ZOOMSDK@@U?$less@PAVIClosedCaptionControllerEvent@ZOOMSDK@@@std@@V?$allocator@PAVIClosedCaptionControllerEvent@ZOOMSDK@@@4@$0A@@std@@@std@@IAE?AU?$pair@PAU?$_Tree_node@PAVIClosedCaptionControllerEvent@ZOOMSDK@@PAX@std@@_N@1@ABQAVIClosedCaptionControllerEvent@ZOOMSDK@@@Z 004291c0 f i sdk_util.obj
 0001:000281c0       ??$_Emplace@ABQAVISDKInMeetingServiceMgrEvent@@@?$_Tree@V?$_Tset_traits@PAVISDKInMeetingServiceMgrEvent@@U?$less@PAVISDKInMeetingServiceMgrEvent@@@std@@V?$allocator@PAVISDKInMeetingServiceMgrEvent@@@3@$0A@@std@@@std@@IAE?AU?$pair@PAU?$_Tree_node@PAVISDKInMeetingServiceMgrEvent@@PAX@std@@_N@1@ABQAVISDKInMeetingServiceMgrEvent@@@Z 004291c0 f i sdk_util.obj
 0001:000281c0       ??$_Emplace@ABQAVIMeetingVideoCtrlEvent@ZOOMSDK@@@?$_Tree@V?$_Tset_traits@PAVIMeetingVideoCtrlEvent@ZOOMSDK@@U?$less@PAVIMeetingVideoCtrlEvent@ZOOMSDK@@@std@@V?$allocator@PAVIMeetingVideoCtrlEvent@ZOOMSDK@@@4@$0A@@std@@@std@@IAE?AU?$pair@PAU?$_Tree_node@PAVIMeetingVideoCtrlEvent@ZOOMSDK@@PAX@std@@_N@1@ABQAVIMeetingVideoCtrlEvent@ZOOMSDK@@@Z 004291c0 f i sdk_util.obj
 0001:000281c0       ??$_Emplace@ABQAVIMeetingChatCtrlEvent@ZOOMSDK@@@?$_Tree@V?$_Tset_traits@PAVIMeetingChatCtrlEvent@ZOOMSDK@@U?$less@PAVIMeetingChatCtrlEvent@ZOOMSDK@@@std@@V?$allocator@PAVIMeetingChatCtrlEvent@ZOOMSDK@@@4@$0A@@std@@@std@@IAE?AU?$pair@PAU?$_Tree_node@PAVIMeetingChatCtrlEvent@ZOOMSDK@@PAX@std@@_N@1@ABQAVIMeetingChatCtrlEvent@ZOOMSDK@@@Z 004291c0 f i sdk_util.obj
 0001:000281c0       ??$_Emplace@ABQAVIAuthServiceEvent@ZOOMSDK@@@?$_Tree@V?$_Tset_traits@PAVIAuthServiceEvent@ZOOMSDK@@U?$less@PAVIAuthServiceEvent@ZOOMSDK@@@std@@V?$allocator@PAVIAuthServiceEvent@ZOOMSDK@@@4@$0A@@std@@@std@@IAE?AU?$pair@PAU?$_Tree_node@PAVIAuthServiceEvent@ZOOMSDK@@PAX@std@@_N@1@ABQAVIAuthServiceEvent@ZOOMSDK@@@Z 004291c0 f i sdk_util.obj
 0001:000281c0       ??$_Emplace@ABQAVIPreMeetingServiceEvent@ZOOMSDK@@@?$_Tree@V?$_Tset_traits@PAVIPreMeetingServiceEvent@ZOOMSDK@@U?$less@PAVIPreMeetingServiceEvent@ZOOMSDK@@@std@@V?$allocator@PAVIPreMeetingServiceEvent@ZOOMSDK@@@4@$0A@@std@@@std@@IAE?AU?$pair@PAU?$_Tree_node@PAVIPreMeetingServiceEvent@ZOOMSDK@@PAX@std@@_N@1@ABQAVIPreMeetingServiceEvent@ZOOMSDK@@@Z 004291c0 f i sdk_util.obj
 0001:000282b0       ??$_Emplace_hint@ABQAVIClosedCaptionControllerEvent@ZOOMSDK@@@?$_Tree@V?$_Tset_traits@PAVIClosedCaptionControllerEvent@ZOOMSDK@@U?$less@PAVIClosedCaptionControllerEvent@ZOOMSDK@@@std@@V?$allocator@PAVIClosedCaptionControllerEvent@ZOOMSDK@@@4@$0A@@std@@@std@@IAEPAU?$_Tree_node@PAVIClosedCaptionControllerEvent@ZOOMSDK@@PAX@1@QAU21@ABQAVIClosedCaptionControllerEvent@ZOOMSDK@@@Z 004292b0 f i sdk_util.obj
 0001:000282b0       ??$_Emplace_hint@ABQAVIPreMeetingServiceEvent@ZOOMSDK@@@?$_Tree@V?$_Tset_traits@PAVIPreMeetingServiceEvent@ZOOMSDK@@U?$less@PAVIPreMeetingServiceEvent@ZOOMSDK@@@std@@V?$allocator@PAVIPreMeetingServiceEvent@ZOOMSDK@@@4@$0A@@std@@@std@@IAEPAU?$_Tree_node@PAVIPreMeetingServiceEvent@ZOOMSDK@@PAX@1@QAU21@ABQAVIPreMeetingServiceEvent@ZOOMSDK@@@Z 004292b0 f i sdk_util.obj
 0001:000282b0       ??$_Emplace_hint@ABQAVIMeetingVideoCtrlEvent@ZOOMSDK@@@?$_Tree@V?$_Tset_traits@PAVIMeetingVideoCtrlEvent@ZOOMSDK@@U?$less@PAVIMeetingVideoCtrlEvent@ZOOMSDK@@@std@@V?$allocator@PAVIMeetingVideoCtrlEvent@ZOOMSDK@@@4@$0A@@std@@@std@@IAEPAU?$_Tree_node@PAVIMeetingVideoCtrlEvent@ZOOMSDK@@PAX@1@QAU21@ABQAVIMeetingVideoCtrlEvent@ZOOMSDK@@@Z 004292b0 f i sdk_util.obj
 0001:000282b0       ??$_Emplace_hint@ABQAVIMeetingChatCtrlEvent@ZOOMSDK@@@?$_Tree@V?$_Tset_traits@PAVIMeetingChatCtrlEvent@ZOOMSDK@@U?$less@PAVIMeetingChatCtrlEvent@ZOOMSDK@@@std@@V?$allocator@PAVIMeetingChatCtrlEvent@ZOOMSDK@@@4@$0A@@std@@@std@@IAEPAU?$_Tree_node@PAVIMeetingChatCtrlEvent@ZOOMSDK@@PAX@1@QAU21@ABQAVIMeetingChatCtrlEvent@ZOOMSDK@@@Z 004292b0 f i sdk_util.obj
 0001:000282b0       ??$_Emplace_hint@ABQAVIMeetingParticipantsCtrlEvent@ZOOMSDK@@@?$_Tree@V?$_Tset_traits@PAVIMeetingParticipantsCtrlEvent@ZOOMSDK@@U?$less@PAVIMeetingParticipantsCtrlEvent@ZOOMSDK@@@std@@V?$allocator@PAVIMeetingParticipantsCtrlEvent@ZOOMSDK@@@4@$0A@@std@@@std@@IAEPAU?$_Tree_node@PAVIMeetingParticipantsCtrlEvent@ZOOMSDK@@PAX@1@QAU21@ABQAVIMeetingParticipantsCtrlEvent@ZOOMSDK@@@Z 004292b0 f i sdk_util.obj
 0001:000282b0       ??$_Emplace_hint@ABQAVISDKInMeetingServiceMgrEvent@@@?$_Tree@V?$_Tset_traits@PAVISDKInMeetingServiceMgrEvent@@U?$less@PAVISDKInMeetingServiceMgrEvent@@@std@@V?$allocator@PAVISDKInMeetingServiceMgrEvent@@@3@$0A@@std@@@std@@IAEPAU?$_Tree_node@PAVISDKInMeetingServiceMgrEvent@@PAX@1@QAU21@ABQAVISDKInMeetingServiceMgrEvent@@@Z 004292b0 f i sdk_util.obj
 0001:000282b0       ??$_Emplace_hint@ABQAVIMeetingServiceEvent@ZOOMSDK@@@?$_Tree@V?$_Tset_traits@PAVIMeetingServiceEvent@ZOOMSDK@@U?$less@PAVIMeetingServiceEvent@ZOOMSDK@@@std@@V?$allocator@PAVIMeetingServiceEvent@ZOOMSDK@@@4@$0A@@std@@@std@@IAEPAU?$_Tree_node@PAVIMeetingServiceEvent@ZOOMSDK@@PAX@1@QAU21@ABQAVIMeetingServiceEvent@ZOOMSDK@@@Z 004292b0 f i sdk_util.obj
 0001:000282b0       ??$_Emplace_hint@ABQAVIAuthServiceEvent@ZOOMSDK@@@?$_Tree@V?$_Tset_traits@PAVIAuthServiceEvent@ZOOMSDK@@U?$less@PAVIAuthServiceEvent@ZOOMSDK@@@std@@V?$allocator@PAVIAuthServiceEvent@ZOOMSDK@@@4@$0A@@std@@@std@@IAEPAU?$_Tree_node@PAVIAuthServiceEvent@ZOOMSDK@@PAX@1@QAU21@ABQAVIAuthServiceEvent@ZOOMSDK@@@Z 004292b0 f i sdk_util.obj
 0001:00028360       ??$_Eqrange@PAVIPreMeetingServiceEvent@ZOOMSDK@@@?$_Tree@V?$_Tset_traits@PAVIPreMeetingServiceEvent@ZOOMSDK@@U?$less@PAVIPreMeetingServiceEvent@ZOOMSDK@@@std@@V?$allocator@PAVIPreMeetingServiceEvent@ZOOMSDK@@@4@$0A@@std@@@std@@IBE?AU?$pair@PAU?$_Tree_node@PAVIPreMeetingServiceEvent@ZOOMSDK@@PAX@std@@PAU12@@1@ABQAVIPreMeetingServiceEvent@ZOOMSDK@@@Z 00429360 f i sdk_util.obj
 0001:00028360       ??$_Eqrange@PAVIAuthServiceEvent@ZOOMSDK@@@?$_Tree@V?$_Tset_traits@PAVIAuthServiceEvent@ZOOMSDK@@U?$less@PAVIAuthServiceEvent@ZOOMSDK@@@std@@V?$allocator@PAVIAuthServiceEvent@ZOOMSDK@@@4@$0A@@std@@@std@@IBE?AU?$pair@PAU?$_Tree_node@PAVIAuthServiceEvent@ZOOMSDK@@PAX@std@@PAU12@@1@ABQAVIAuthServiceEvent@ZOOMSDK@@@Z 00429360 f i sdk_util.obj
 0001:00028360       ??$_Eqrange@PAVIMeetingChatCtrlEvent@ZOOMSDK@@@?$_Tree@V?$_Tset_traits@PAVIMeetingChatCtrlEvent@ZOOMSDK@@U?$less@PAVIMeetingChatCtrlEvent@ZOOMSDK@@@std@@V?$allocator@PAVIMeetingChatCtrlEvent@ZOOMSDK@@@4@$0A@@std@@@std@@IBE?AU?$pair@PAU?$_Tree_node@PAVIMeetingChatCtrlEvent@ZOOMSDK@@PAX@std@@PAU12@@1@ABQAVIMeetingChatCtrlEvent@ZOOMSDK@@@Z 00429360 f i sdk_util.obj
 0001:00028360       ??$_Eqrange@PAVIMeetingParticipantsCtrlEvent@ZOOMSDK@@@?$_Tree@V?$_Tset_traits@PAVIMeetingParticipantsCtrlEvent@ZOOMSDK@@U?$less@PAVIMeetingParticipantsCtrlEvent@ZOOMSDK@@@std@@V?$allocator@PAVIMeetingParticipantsCtrlEvent@ZOOMSDK@@@4@$0A@@std@@@std@@IBE?AU?$pair@PAU?$_Tree_node@PAVIMeetingParticipantsCtrlEvent@ZOOMSDK@@PAX@std@@PAU12@@1@ABQAVIMeetingParticipantsCtrlEvent@ZOOMSDK@@@Z 00429360 f i sdk_util.obj
 0001:00028360       ??$_Eqrange@PAVIClosedCaptionControllerEvent@ZOOMSDK@@@?$_Tree@V?$_Tset_traits@PAVIClosedCaptionControllerEvent@ZOOMSDK@@U?$less@PAVIClosedCaptionControllerEvent@ZOOMSDK@@@std@@V?$allocator@PAVIClosedCaptionControllerEvent@ZOOMSDK@@@4@$0A@@std@@@std@@IBE?AU?$pair@PAU?$_Tree_node@PAVIClosedCaptionControllerEvent@ZOOMSDK@@PAX@std@@PAU12@@1@ABQAVIClosedCaptionControllerEvent@ZOOMSDK@@@Z 00429360 f i sdk_util.obj
 0001:00028360       ??$_Eqrange@PAVISDKInMeetingServiceMgrEvent@@@?$_Tree@V?$_Tset_traits@PAVISDKInMeetingServiceMgrEvent@@U?$less@PAVISDKInMeetingServiceMgrEvent@@@std@@V?$allocator@PAVISDKInMeetingServiceMgrEvent@@@3@$0A@@std@@@std@@IBE?AU?$pair@PAU?$_Tree_node@PAVISDKInMeetingServiceMgrEvent@@PAX@std@@PAU12@@1@ABQAVISDKInMeetingServiceMgrEvent@@@Z 00429360 f i sdk_util.obj
 0001:00028360       ??$_Eqrange@PAVIMeetingServiceEvent@ZOOMSDK@@@?$_Tree@V?$_Tset_traits@PAVIMeetingServiceEvent@ZOOMSDK@@U?$less@PAVIMeetingServiceEvent@ZOOMSDK@@@std@@V?$allocator@PAVIMeetingServiceEvent@ZOOMSDK@@@4@$0A@@std@@@std@@IBE?AU?$pair@PAU?$_Tree_node@PAVIMeetingServiceEvent@ZOOMSDK@@PAX@std@@PAU12@@1@ABQAVIMeetingServiceEvent@ZOOMSDK@@@Z 00429360 f i sdk_util.obj
 0001:000284a0       ??$_Erase_head@V?$allocator@U?$_Tree_node@PAVIMeetingParticipantsCtrlEvent@ZOOMSDK@@PAX@std@@@std@@@?$_Tree_val@U?$_Tree_simple_types@PAVIMeetingParticipantsCtrlEvent@ZOOMSDK@@@std@@@std@@QAEXAAV?$allocator@U?$_Tree_node@PAVIMeetingParticipantsCtrlEvent@ZOOMSDK@@PAX@std@@@1@@Z 004294a0 f i sdk_util.obj
 0001:000284a0       ??$_Erase_head@V?$allocator@U?$_Tree_node@PAVIPreMeetingServiceEvent@ZOOMSDK@@PAX@std@@@std@@@?$_Tree_val@U?$_Tree_simple_types@PAVIPreMeetingServiceEvent@ZOOMSDK@@@std@@@std@@QAEXAAV?$allocator@U?$_Tree_node@PAVIPreMeetingServiceEvent@ZOOMSDK@@PAX@std@@@1@@Z 004294a0 f i sdk_util.obj
 0001:000284a0       ??$_Erase_head@V?$allocator@U?$_Tree_node@PAVIAuthServiceEvent@ZOOMSDK@@PAX@std@@@std@@@?$_Tree_val@U?$_Tree_simple_types@PAVIAuthServiceEvent@ZOOMSDK@@@std@@@std@@QAEXAAV?$allocator@U?$_Tree_node@PAVIAuthServiceEvent@ZOOMSDK@@PAX@std@@@1@@Z 004294a0 f i sdk_util.obj
 0001:000284a0       ??$_Erase_head@V?$allocator@U?$_Tree_node@PAVISDKInMeetingServiceMgrEvent@@PAX@std@@@std@@@?$_Tree_val@U?$_Tree_simple_types@PAVISDKInMeetingServiceMgrEvent@@@std@@@std@@QAEXAAV?$allocator@U?$_Tree_node@PAVISDKInMeetingServiceMgrEvent@@PAX@std@@@1@@Z 004294a0 f i sdk_util.obj
 0001:000284a0       ??$_Erase_head@V?$allocator@U?$_Tree_node@PAVIClosedCaptionControllerEvent@ZOOMSDK@@PAX@std@@@std@@@?$_Tree_val@U?$_Tree_simple_types@PAVIClosedCaptionControllerEvent@ZOOMSDK@@@std@@@std@@QAEXAAV?$allocator@U?$_Tree_node@PAVIClosedCaptionControllerEvent@ZOOMSDK@@PAX@std@@@1@@Z 004294a0 f i sdk_util.obj
 0001:000284a0       ??$_Erase_head@V?$allocator@U?$_Tree_node@PAVIMeetingChatCtrlEvent@ZOOMSDK@@PAX@std@@@std@@@?$_Tree_val@U?$_Tree_simple_types@PAVIMeetingChatCtrlEvent@ZOOMSDK@@@std@@@std@@QAEXAAV?$allocator@U?$_Tree_node@PAVIMeetingChatCtrlEvent@ZOOMSDK@@PAX@std@@@1@@Z 004294a0 f i sdk_util.obj
 0001:000284a0       ??$_Erase_head@V?$allocator@U?$_Tree_node@PAVIMeetingVideoCtrlEvent@ZOOMSDK@@PAX@std@@@std@@@?$_Tree_val@U?$_Tree_simple_types@PAVIMeetingVideoCtrlEvent@ZOOMSDK@@@std@@@std@@QAEXAAV?$allocator@U?$_Tree_node@PAVIMeetingVideoCtrlEvent@ZOOMSDK@@PAX@std@@@1@@Z 004294a0 f i sdk_util.obj
 0001:000284a0       ??$_Erase_head@V?$allocator@U?$_Tree_node@PAVIMeetingServiceEvent@ZOOMSDK@@PAX@std@@@std@@@?$_Tree_val@U?$_Tree_simple_types@PAVIMeetingServiceEvent@ZOOMSDK@@@std@@@std@@QAEXAAV?$allocator@U?$_Tree_node@PAVIMeetingServiceEvent@ZOOMSDK@@PAX@std@@@1@@Z 004294a0 f i sdk_util.obj
 0001:000284e0       ??$_Erase_tree@V?$allocator@U?$_Tree_node@PAVIAuthServiceEvent@ZOOMSDK@@PAX@std@@@std@@@?$_Tree_val@U?$_Tree_simple_types@PAVIAuthServiceEvent@ZOOMSDK@@@std@@@std@@QAEXAAV?$allocator@U?$_Tree_node@PAVIAuthServiceEvent@ZOOMSDK@@PAX@std@@@1@PAU?$_Tree_node@PAVIAuthServiceEvent@ZOOMSDK@@PAX@1@@Z 004294e0 f i sdk_util.obj
 0001:000284e0       ??$_Erase_tree@V?$allocator@U?$_Tree_node@PAVISDKInMeetingServiceMgrEvent@@PAX@std@@@std@@@?$_Tree_val@U?$_Tree_simple_types@PAVISDKInMeetingServiceMgrEvent@@@std@@@std@@QAEXAAV?$allocator@U?$_Tree_node@PAVISDKInMeetingServiceMgrEvent@@PAX@std@@@1@PAU?$_Tree_node@PAVISDKInMeetingServiceMgrEvent@@PAX@1@@Z 004294e0 f i sdk_util.obj
 0001:000284e0       ??$_Erase_tree@V?$allocator@U?$_Tree_node@PAVIMeetingVideoCtrlEvent@ZOOMSDK@@PAX@std@@@std@@@?$_Tree_val@U?$_Tree_simple_types@PAVIMeetingVideoCtrlEvent@ZOOMSDK@@@std@@@std@@QAEXAAV?$allocator@U?$_Tree_node@PAVIMeetingVideoCtrlEvent@ZOOMSDK@@PAX@std@@@1@PAU?$_Tree_node@PAVIMeetingVideoCtrlEvent@ZOOMSDK@@PAX@1@@Z 004294e0 f i sdk_util.obj
 0001:000284e0       ??$_Erase_tree@V?$allocator@U?$_Tree_node@PAVIMeetingServiceEvent@ZOOMSDK@@PAX@std@@@std@@@?$_Tree_val@U?$_Tree_simple_types@PAVIMeetingServiceEvent@ZOOMSDK@@@std@@@std@@QAEXAAV?$allocator@U?$_Tree_node@PAVIMeetingServiceEvent@ZOOMSDK@@PAX@std@@@1@PAU?$_Tree_node@PAVIMeetingServiceEvent@ZOOMSDK@@PAX@1@@Z 004294e0 f i sdk_util.obj
 0001:000284e0       ??$_Erase_tree@V?$allocator@U?$_Tree_node@PAVIMeetingParticipantsCtrlEvent@ZOOMSDK@@PAX@std@@@std@@@?$_Tree_val@U?$_Tree_simple_types@PAVIMeetingParticipantsCtrlEvent@ZOOMSDK@@@std@@@std@@QAEXAAV?$allocator@U?$_Tree_node@PAVIMeetingParticipantsCtrlEvent@ZOOMSDK@@PAX@std@@@1@PAU?$_Tree_node@PAVIMeetingParticipantsCtrlEvent@ZOOMSDK@@PAX@1@@Z 004294e0 f i sdk_util.obj
 0001:000284e0       ??$_Erase_tree@V?$allocator@U?$_Tree_node@PAVIMeetingChatCtrlEvent@ZOOMSDK@@PAX@std@@@std@@@?$_Tree_val@U?$_Tree_simple_types@PAVIMeetingChatCtrlEvent@ZOOMSDK@@@std@@@std@@QAEXAAV?$allocator@U?$_Tree_node@PAVIMeetingChatCtrlEvent@ZOOMSDK@@PAX@std@@@1@PAU?$_Tree_node@PAVIMeetingChatCtrlEvent@ZOOMSDK@@PAX@1@@Z 004294e0 f i sdk_util.obj
 0001:000284e0       ??$_Erase_tree@V?$allocator@U?$_Tree_node@PAVIClosedCaptionControllerEvent@ZOOMSDK@@PAX@std@@@std@@@?$_Tree_val@U?$_Tree_simple_types@PAVIClosedCaptionControllerEvent@ZOOMSDK@@@std@@@std@@QAEXAAV?$allocator@U?$_Tree_node@PAVIClosedCaptionControllerEvent@ZOOMSDK@@PAX@std@@@1@PAU?$_Tree_node@PAVIClosedCaptionControllerEvent@ZOOMSDK@@PAX@1@@Z 004294e0 f i sdk_util.obj
 0001:000284e0       ??$_Erase_tree@V?$allocator@U?$_Tree_node@PAVIPreMeetingServiceEvent@ZOOMSDK@@PAX@std@@@std@@@?$_Tree_val@U?$_Tree_simple_types@PAVIPreMeetingServiceEvent@ZOOMSDK@@@std@@@std@@QAEXAAV?$allocator@U?$_Tree_node@PAVIPreMeetingServiceEvent@ZOOMSDK@@PAX@std@@@1@PAU?$_Tree_node@PAVIPreMeetingServiceEvent@ZOOMSDK@@PAX@1@@Z 004294e0 f i sdk_util.obj
 0001:00028530       ??$_Find_hint@PAVIPreMeetingServiceEvent@ZOOMSDK@@@?$_Tree@V?$_Tset_traits@PAVIPreMeetingServiceEvent@ZOOMSDK@@U?$less@PAVIPreMeetingServiceEvent@ZOOMSDK@@@std@@V?$allocator@PAVIPreMeetingServiceEvent@ZOOMSDK@@@4@$0A@@std@@@std@@IBE?AU?$_Tree_find_hint_result@PAU?$_Tree_node@PAVIPreMeetingServiceEvent@ZOOMSDK@@PAX@std@@@1@QAU?$_Tree_node@PAVIPreMeetingServiceEvent@ZOOMSDK@@PAX@1@ABQAVIPreMeetingServiceEvent@ZOOMSDK@@@Z 00429530 f i sdk_util.obj
 0001:00028530       ??$_Find_hint@PAVIMeetingServiceEvent@ZOOMSDK@@@?$_Tree@V?$_Tset_traits@PAVIMeetingServiceEvent@ZOOMSDK@@U?$less@PAVIMeetingServiceEvent@ZOOMSDK@@@std@@V?$allocator@PAVIMeetingServiceEvent@ZOOMSDK@@@4@$0A@@std@@@std@@IBE?AU?$_Tree_find_hint_result@PAU?$_Tree_node@PAVIMeetingServiceEvent@ZOOMSDK@@PAX@std@@@1@QAU?$_Tree_node@PAVIMeetingServiceEvent@ZOOMSDK@@PAX@1@ABQAVIMeetingServiceEvent@ZOOMSDK@@@Z 00429530 f i sdk_util.obj
 0001:00028530       ??$_Find_hint@PAVIMeetingChatCtrlEvent@ZOOMSDK@@@?$_Tree@V?$_Tset_traits@PAVIMeetingChatCtrlEvent@ZOOMSDK@@U?$less@PAVIMeetingChatCtrlEvent@ZOOMSDK@@@std@@V?$allocator@PAVIMeetingChatCtrlEvent@ZOOMSDK@@@4@$0A@@std@@@std@@IBE?AU?$_Tree_find_hint_result@PAU?$_Tree_node@PAVIMeetingChatCtrlEvent@ZOOMSDK@@PAX@std@@@1@QAU?$_Tree_node@PAVIMeetingChatCtrlEvent@ZOOMSDK@@PAX@1@ABQAVIMeetingChatCtrlEvent@ZOOMSDK@@@Z 00429530 f i sdk_util.obj
 0001:00028530       ??$_Find_hint@PAVIAuthServiceEvent@ZOOMSDK@@@?$_Tree@V?$_Tset_traits@PAVIAuthServiceEvent@ZOOMSDK@@U?$less@PAVIAuthServiceEvent@ZOOMSDK@@@std@@V?$allocator@PAVIAuthServiceEvent@ZOOMSDK@@@4@$0A@@std@@@std@@IBE?AU?$_Tree_find_hint_result@PAU?$_Tree_node@PAVIAuthServiceEvent@ZOOMSDK@@PAX@std@@@1@QAU?$_Tree_node@PAVIAuthServiceEvent@ZOOMSDK@@PAX@1@ABQAVIAuthServiceEvent@ZOOMSDK@@@Z 00429530 f i sdk_util.obj
 0001:00028530       ??$_Find_hint@PAVIMeetingVideoCtrlEvent@ZOOMSDK@@@?$_Tree@V?$_Tset_traits@PAVIMeetingVideoCtrlEvent@ZOOMSDK@@U?$less@PAVIMeetingVideoCtrlEvent@ZOOMSDK@@@std@@V?$allocator@PAVIMeetingVideoCtrlEvent@ZOOMSDK@@@4@$0A@@std@@@std@@IBE?AU?$_Tree_find_hint_result@PAU?$_Tree_node@PAVIMeetingVideoCtrlEvent@ZOOMSDK@@PAX@std@@@1@QAU?$_Tree_node@PAVIMeetingVideoCtrlEvent@ZOOMSDK@@PAX@1@ABQAVIMeetingVideoCtrlEvent@ZOOMSDK@@@Z 00429530 f i sdk_util.obj
 0001:00028530       ??$_Find_hint@PAVIClosedCaptionControllerEvent@ZOOMSDK@@@?$_Tree@V?$_Tset_traits@PAVIClosedCaptionControllerEvent@ZOOMSDK@@U?$less@PAVIClosedCaptionControllerEvent@ZOOMSDK@@@std@@V?$allocator@PAVIClosedCaptionControllerEvent@ZOOMSDK@@@4@$0A@@std@@@std@@IBE?AU?$_Tree_find_hint_result@PAU?$_Tree_node@PAVIClosedCaptionControllerEvent@ZOOMSDK@@PAX@std@@@1@QAU?$_Tree_node@PAVIClosedCaptionControllerEvent@ZOOMSDK@@PAX@1@ABQAVIClosedCaptionControllerEvent@ZOOMSDK@@@Z 00429530 f i sdk_util.obj
 0001:00028530       ??$_Find_hint@PAVIMeetingParticipantsCtrlEvent@ZOOMSDK@@@?$_Tree@V?$_Tset_traits@PAVIMeetingParticipantsCtrlEvent@ZOOMSDK@@U?$less@PAVIMeetingParticipantsCtrlEvent@ZOOMSDK@@@std@@V?$allocator@PAVIMeetingParticipantsCtrlEvent@ZOOMSDK@@@4@$0A@@std@@@std@@IBE?AU?$_Tree_find_hint_result@PAU?$_Tree_node@PAVIMeetingParticipantsCtrlEvent@ZOOMSDK@@PAX@std@@@1@QAU?$_Tree_node@PAVIMeetingParticipantsCtrlEvent@ZOOMSDK@@PAX@1@ABQAVIMeetingParticipantsCtrlEvent@ZOOMSDK@@@Z 00429530 f i sdk_util.obj
 0001:00028530       ??$_Find_hint@PAVISDKInMeetingServiceMgrEvent@@@?$_Tree@V?$_Tset_traits@PAVISDKInMeetingServiceMgrEvent@@U?$less@PAVISDKInMeetingServiceMgrEvent@@@std@@V?$allocator@PAVISDKInMeetingServiceMgrEvent@@@3@$0A@@std@@@std@@IBE?AU?$_Tree_find_hint_result@PAU?$_Tree_node@PAVISDKInMeetingServiceMgrEvent@@PAX@std@@@1@QAU?$_Tree_node@PAVISDKInMeetingServiceMgrEvent@@PAX@1@ABQAVISDKInMeetingServiceMgrEvent@@@Z 00429530 f i sdk_util.obj
 0001:00028810       ??$_Find_lower_bound@PAVIMeetingServiceEvent@ZOOMSDK@@@?$_Tree@V?$_Tset_traits@PAVIMeetingServiceEvent@ZOOMSDK@@U?$less@PAVIMeetingServiceEvent@ZOOMSDK@@@std@@V?$allocator@PAVIMeetingServiceEvent@ZOOMSDK@@@4@$0A@@std@@@std@@IBE?AU?$_Tree_find_result@PAU?$_Tree_node@PAVIMeetingServiceEvent@ZOOMSDK@@PAX@std@@@1@ABQAVIMeetingServiceEvent@ZOOMSDK@@@Z 00429810 f i sdk_util.obj
 0001:00028810       ??$_Find_lower_bound@PAVIClosedCaptionControllerEvent@ZOOMSDK@@@?$_Tree@V?$_Tset_traits@PAVIClosedCaptionControllerEvent@ZOOMSDK@@U?$less@PAVIClosedCaptionControllerEvent@ZOOMSDK@@@std@@V?$allocator@PAVIClosedCaptionControllerEvent@ZOOMSDK@@@4@$0A@@std@@@std@@IBE?AU?$_Tree_find_result@PAU?$_Tree_node@PAVIClosedCaptionControllerEvent@ZOOMSDK@@PAX@std@@@1@ABQAVIClosedCaptionControllerEvent@ZOOMSDK@@@Z 00429810 f i sdk_util.obj
 0001:00028810       ??$_Find_lower_bound@PAVIMeetingVideoCtrlEvent@ZOOMSDK@@@?$_Tree@V?$_Tset_traits@PAVIMeetingVideoCtrlEvent@ZOOMSDK@@U?$less@PAVIMeetingVideoCtrlEvent@ZOOMSDK@@@std@@V?$allocator@PAVIMeetingVideoCtrlEvent@ZOOMSDK@@@4@$0A@@std@@@std@@IBE?AU?$_Tree_find_result@PAU?$_Tree_node@PAVIMeetingVideoCtrlEvent@ZOOMSDK@@PAX@std@@@1@ABQAVIMeetingVideoCtrlEvent@ZOOMSDK@@@Z 00429810 f i sdk_util.obj
 0001:00028810       ??$_Find_lower_bound@PAVISDKInMeetingServiceMgrEvent@@@?$_Tree@V?$_Tset_traits@PAVISDKInMeetingServiceMgrEvent@@U?$less@PAVISDKInMeetingServiceMgrEvent@@@std@@V?$allocator@PAVISDKInMeetingServiceMgrEvent@@@3@$0A@@std@@@std@@IBE?AU?$_Tree_find_result@PAU?$_Tree_node@PAVISDKInMeetingServiceMgrEvent@@PAX@std@@@1@ABQAVISDKInMeetingServiceMgrEvent@@@Z 00429810 f i sdk_util.obj
 0001:00028810       ??$_Find_lower_bound@PAVIMeetingChatCtrlEvent@ZOOMSDK@@@?$_Tree@V?$_Tset_traits@PAVIMeetingChatCtrlEvent@ZOOMSDK@@U?$less@PAVIMeetingChatCtrlEvent@ZOOMSDK@@@std@@V?$allocator@PAVIMeetingChatCtrlEvent@ZOOMSDK@@@4@$0A@@std@@@std@@IBE?AU?$_Tree_find_result@PAU?$_Tree_node@PAVIMeetingChatCtrlEvent@ZOOMSDK@@PAX@std@@@1@ABQAVIMeetingChatCtrlEvent@ZOOMSDK@@@Z 00429810 f i sdk_util.obj
 0001:00028810       ??$_Find_lower_bound@I@?$_Tree@V?$_Tmap_traits@IPAVIUserInfo@ZOOMSDK@@U?$less@I@std@@V?$allocator@U?$pair@$$CBIPAVIUserInfo@ZOOMSDK@@@std@@@4@$0A@@std@@@std@@IBE?AU?$_Tree_find_result@PAU?$_Tree_node@U?$pair@$$CBIPAVIUserInfo@ZOOMSDK@@@std@@PAX@std@@@1@ABI@Z 00429810 f i user_manager.obj
 0001:00028810       ??$_Find_lower_bound@PAVIAuthServiceEvent@ZOOMSDK@@@?$_Tree@V?$_Tset_traits@PAVIAuthServiceEvent@ZOOMSDK@@U?$less@PAVIAuthServiceEvent@ZOOMSDK@@@std@@V?$allocator@PAVIAuthServiceEvent@ZOOMSDK@@@4@$0A@@std@@@std@@IBE?AU?$_Tree_find_result@PAU?$_Tree_node@PAVIAuthServiceEvent@ZOOMSDK@@PAX@std@@@1@ABQAVIAuthServiceEvent@ZOOMSDK@@@Z 00429810 f i sdk_util.obj
 0001:00028810       ??$_Find_lower_bound@PAVIPreMeetingServiceEvent@ZOOMSDK@@@?$_Tree@V?$_Tset_traits@PAVIPreMeetingServiceEvent@ZOOMSDK@@U?$less@PAVIPreMeetingServiceEvent@ZOOMSDK@@@std@@V?$allocator@PAVIPreMeetingServiceEvent@ZOOMSDK@@@4@$0A@@std@@@std@@IBE?AU?$_Tree_find_result@PAU?$_Tree_node@PAVIPreMeetingServiceEvent@ZOOMSDK@@PAX@std@@@1@ABQAVIPreMeetingServiceEvent@ZOOMSDK@@@Z 00429810 f i sdk_util.obj
 0001:00028810       ??$_Find_lower_bound@PAVIMeetingParticipantsCtrlEvent@ZOOMSDK@@@?$_Tree@V?$_Tset_traits@PAVIMeetingParticipantsCtrlEvent@ZOOMSDK@@U?$less@PAVIMeetingParticipantsCtrlEvent@ZOOMSDK@@@std@@V?$allocator@PAVIMeetingParticipantsCtrlEvent@ZOOMSDK@@@4@$0A@@std@@@std@@IBE?AU?$_Tree_find_result@PAU?$_Tree_node@PAVIMeetingParticipantsCtrlEvent@ZOOMSDK@@PAX@std@@@1@ABQAVIMeetingParticipantsCtrlEvent@ZOOMSDK@@@Z 00429810 f i sdk_util.obj
 0001:000288d0       ??$_Freenode0@V?$allocator@U?$_Tree_node@PAVIClosedCaptionControllerEvent@ZOOMSDK@@PAX@std@@@std@@@?$_Tree_node@PAVIClosedCaptionControllerEvent@ZOOMSDK@@PAX@std@@SAXAAV?$allocator@U?$_Tree_node@PAVIClosedCaptionControllerEvent@ZOOMSDK@@PAX@std@@@1@PAU01@@Z 004298d0 f i sdk_util.obj
 0001:000288d0       ??$_Freenode0@V?$allocator@U?$_Tree_node@PAVIPreMeetingServiceEvent@ZOOMSDK@@PAX@std@@@std@@@?$_Tree_node@PAVIPreMeetingServiceEvent@ZOOMSDK@@PAX@std@@SAXAAV?$allocator@U?$_Tree_node@PAVIPreMeetingServiceEvent@ZOOMSDK@@PAX@std@@@1@PAU01@@Z 004298d0 f i sdk_util.obj
 0001:000288d0       ??$_Freenode0@V?$allocator@U?$_Tree_node@PAVISDKInMeetingServiceMgrEvent@@PAX@std@@@std@@@?$_Tree_node@PAVISDKInMeetingServiceMgrEvent@@PAX@std@@SAXAAV?$allocator@U?$_Tree_node@PAVISDKInMeetingServiceMgrEvent@@PAX@std@@@1@PAU01@@Z 004298d0 f i sdk_util.obj
 0001:000288d0       ??$_Freenode0@V?$allocator@U?$_Tree_node@PAVIMeetingServiceEvent@ZOOMSDK@@PAX@std@@@std@@@?$_Tree_node@PAVIMeetingServiceEvent@ZOOMSDK@@PAX@std@@SAXAAV?$allocator@U?$_Tree_node@PAVIMeetingServiceEvent@ZOOMSDK@@PAX@std@@@1@PAU01@@Z 004298d0 f i sdk_util.obj
 0001:000288d0       ??$_Freenode0@V?$allocator@U?$_Tree_node@PAVIAuthServiceEvent@ZOOMSDK@@PAX@std@@@std@@@?$_Tree_node@PAVIAuthServiceEvent@ZOOMSDK@@PAX@std@@SAXAAV?$allocator@U?$_Tree_node@PAVIAuthServiceEvent@ZOOMSDK@@PAX@std@@@1@PAU01@@Z 004298d0 f i sdk_util.obj
 0001:000288d0       ??$_Freenode0@V?$allocator@U?$_Tree_node@PAVIMeetingParticipantsCtrlEvent@ZOOMSDK@@PAX@std@@@std@@@?$_Tree_node@PAVIMeetingParticipantsCtrlEvent@ZOOMSDK@@PAX@std@@SAXAAV?$allocator@U?$_Tree_node@PAVIMeetingParticipantsCtrlEvent@ZOOMSDK@@PAX@std@@@1@PAU01@@Z 004298d0 f i sdk_util.obj
 0001:000288d0       ??$_Freenode0@V?$allocator@U?$_Tree_node@PAVIMeetingChatCtrlEvent@ZOOMSDK@@PAX@std@@@std@@@?$_Tree_node@PAVIMeetingChatCtrlEvent@ZOOMSDK@@PAX@std@@SAXAAV?$allocator@U?$_Tree_node@PAVIMeetingChatCtrlEvent@ZOOMSDK@@PAX@std@@@1@PAU01@@Z 004298d0 f i sdk_util.obj
 0001:000288d0       ??$_Freenode0@V?$allocator@U?$_Tree_node@PAVIMeetingVideoCtrlEvent@ZOOMSDK@@PAX@std@@@std@@@?$_Tree_node@PAVIMeetingVideoCtrlEvent@ZOOMSDK@@PAX@std@@SAXAAV?$allocator@U?$_Tree_node@PAVIMeetingVideoCtrlEvent@ZOOMSDK@@PAX@std@@@1@PAU01@@Z 004298d0 f i sdk_util.obj
 0001:00028950       ??$_Freenode@V?$allocator@U?$_Tree_node@PAVIMeetingServiceEvent@ZOOMSDK@@PAX@std@@@std@@@?$_Tree_node@PAVIMeetingServiceEvent@ZOOMSDK@@PAX@std@@SAXAAV?$allocator@U?$_Tree_node@PAVIMeetingServiceEvent@ZOOMSDK@@PAX@std@@@1@PAU01@@Z 00429950 f i sdk_util.obj
 0001:00028950       ??$_Freenode@V?$allocator@U?$_Tree_node@PAVIAuthServiceEvent@ZOOMSDK@@PAX@std@@@std@@@?$_Tree_node@PAVIAuthServiceEvent@ZOOMSDK@@PAX@std@@SAXAAV?$allocator@U?$_Tree_node@PAVIAuthServiceEvent@ZOOMSDK@@PAX@std@@@1@PAU01@@Z 00429950 f i sdk_util.obj
 0001:00028950       ??$_Freenode@V?$allocator@U?$_Tree_node@PAVIClosedCaptionControllerEvent@ZOOMSDK@@PAX@std@@@std@@@?$_Tree_node@PAVIClosedCaptionControllerEvent@ZOOMSDK@@PAX@std@@SAXAAV?$allocator@U?$_Tree_node@PAVIClosedCaptionControllerEvent@ZOOMSDK@@PAX@std@@@1@PAU01@@Z 00429950 f i sdk_util.obj
 0001:00028950       ??$_Freenode@V?$allocator@U?$_Tree_node@PAVIPreMeetingServiceEvent@ZOOMSDK@@PAX@std@@@std@@@?$_Tree_node@PAVIPreMeetingServiceEvent@ZOOMSDK@@PAX@std@@SAXAAV?$allocator@U?$_Tree_node@PAVIPreMeetingServiceEvent@ZOOMSDK@@PAX@std@@@1@PAU01@@Z 00429950 f i sdk_util.obj
 0001:00028950       ??$_Freenode@V?$allocator@U?$_Tree_node@PAVIMeetingVideoCtrlEvent@ZOOMSDK@@PAX@std@@@std@@@?$_Tree_node@PAVIMeetingVideoCtrlEvent@ZOOMSDK@@PAX@std@@SAXAAV?$allocator@U?$_Tree_node@PAVIMeetingVideoCtrlEvent@ZOOMSDK@@PAX@std@@@1@PAU01@@Z 00429950 f i sdk_util.obj
 0001:00028950       ??$_Freenode@V?$allocator@U?$_Tree_node@PAVISDKInMeetingServiceMgrEvent@@PAX@std@@@std@@@?$_Tree_node@PAVISDKInMeetingServiceMgrEvent@@PAX@std@@SAXAAV?$allocator@U?$_Tree_node@PAVISDKInMeetingServiceMgrEvent@@PAX@std@@@1@PAU01@@Z 00429950 f i sdk_util.obj
 0001:00028950       ??$_Freenode@V?$allocator@U?$_Tree_node@PAVIMeetingChatCtrlEvent@ZOOMSDK@@PAX@std@@@std@@@?$_Tree_node@PAVIMeetingChatCtrlEvent@ZOOMSDK@@PAX@std@@SAXAAV?$allocator@U?$_Tree_node@PAVIMeetingChatCtrlEvent@ZOOMSDK@@PAX@std@@@1@PAU01@@Z 00429950 f i sdk_util.obj
 0001:00028950       ??$_Freenode@V?$allocator@U?$_Tree_node@PAVIMeetingParticipantsCtrlEvent@ZOOMSDK@@PAX@std@@@std@@@?$_Tree_node@PAVIMeetingParticipantsCtrlEvent@ZOOMSDK@@PAX@std@@SAXAAV?$allocator@U?$_Tree_node@PAVIMeetingParticipantsCtrlEvent@ZOOMSDK@@PAX@std@@@1@PAU01@@Z 00429950 f i sdk_util.obj
 0001:000289c0       ??$_Get_size_of_n@$0BE@@std@@YAII@Z 004299c0 f i sdk_util.obj
 0001:000289f0       ??$_Get_unwrapped@AAV?$_Tree_const_iterator@V?$_Tree_val@U?$_Tree_simple_types@PAVIAuthServiceEvent@ZOOMSDK@@@std@@@std@@@std@@@std@@YA?AV?$_Tree_unchecked_const_iterator@V?$_Tree_val@U?$_Tree_simple_types@PAVIAuthServiceEvent@ZOOMSDK@@@std@@@std@@U_Iterator_base0@2@@0@AAV?$_Tree_const_iterator@V?$_Tree_val@U?$_Tree_simple_types@PAVIAuthServiceEvent@ZOOMSDK@@@std@@@std@@@0@@Z 004299f0 f i sdk_util.obj
 0001:000289f0       ??$_Get_unwrapped@AAV?$_Tree_const_iterator@V?$_Tree_val@U?$_Tree_simple_types@PAVIClosedCaptionControllerEvent@ZOOMSDK@@@std@@@std@@@std@@@std@@YA?AV?$_Tree_unchecked_const_iterator@V?$_Tree_val@U?$_Tree_simple_types@PAVIClosedCaptionControllerEvent@ZOOMSDK@@@std@@@std@@U_Iterator_base0@2@@0@AAV?$_Tree_const_iterator@V?$_Tree_val@U?$_Tree_simple_types@PAVIClosedCaptionControllerEvent@ZOOMSDK@@@std@@@std@@@0@@Z 004299f0 f i sdk_util.obj
 0001:000289f0       ??$_Get_unwrapped@AAV?$_Tree_const_iterator@V?$_Tree_val@U?$_Tree_simple_types@PAVIMeetingParticipantsCtrlEvent@ZOOMSDK@@@std@@@std@@@std@@@std@@YA?AV?$_Tree_unchecked_const_iterator@V?$_Tree_val@U?$_Tree_simple_types@PAVIMeetingParticipantsCtrlEvent@ZOOMSDK@@@std@@@std@@U_Iterator_base0@2@@0@AAV?$_Tree_const_iterator@V?$_Tree_val@U?$_Tree_simple_types@PAVIMeetingParticipantsCtrlEvent@ZOOMSDK@@@std@@@std@@@0@@Z 004299f0 f i sdk_util.obj
 0001:000289f0       ??$_Get_unwrapped@AAV?$_Tree_const_iterator@V?$_Tree_val@U?$_Tree_simple_types@PAVIMeetingChatCtrlEvent@ZOOMSDK@@@std@@@std@@@std@@@std@@YA?AV?$_Tree_unchecked_const_iterator@V?$_Tree_val@U?$_Tree_simple_types@PAVIMeetingChatCtrlEvent@ZOOMSDK@@@std@@@std@@U_Iterator_base0@2@@0@AAV?$_Tree_const_iterator@V?$_Tree_val@U?$_Tree_simple_types@PAVIMeetingChatCtrlEvent@ZOOMSDK@@@std@@@std@@@0@@Z 004299f0 f i sdk_util.obj
 0001:000289f0       ??$_Get_unwrapped@AAV?$_Tree_const_iterator@V?$_Tree_val@U?$_Tree_simple_types@PAVISDKInMeetingServiceMgrEvent@@@std@@@std@@@std@@@std@@YA?AV?$_Tree_unchecked_const_iterator@V?$_Tree_val@U?$_Tree_simple_types@PAVISDKInMeetingServiceMgrEvent@@@std@@@std@@U_Iterator_base0@2@@0@AAV?$_Tree_const_iterator@V?$_Tree_val@U?$_Tree_simple_types@PAVISDKInMeetingServiceMgrEvent@@@std@@@std@@@0@@Z 004299f0 f i sdk_util.obj
 0001:000289f0       ??$_Get_unwrapped@AAV?$_Tree_const_iterator@V?$_Tree_val@U?$_Tree_simple_types@PAVIMeetingVideoCtrlEvent@ZOOMSDK@@@std@@@std@@@std@@@std@@YA?AV?$_Tree_unchecked_const_iterator@V?$_Tree_val@U?$_Tree_simple_types@PAVIMeetingVideoCtrlEvent@ZOOMSDK@@@std@@@std@@U_Iterator_base0@2@@0@AAV?$_Tree_const_iterator@V?$_Tree_val@U?$_Tree_simple_types@PAVIMeetingVideoCtrlEvent@ZOOMSDK@@@std@@@std@@@0@@Z 004299f0 f i sdk_util.obj
 0001:000289f0       ??$_Get_unwrapped@AAV?$_Tree_const_iterator@V?$_Tree_val@U?$_Tree_simple_types@PAVIMeetingServiceEvent@ZOOMSDK@@@std@@@std@@@std@@@std@@YA?AV?$_Tree_unchecked_const_iterator@V?$_Tree_val@U?$_Tree_simple_types@PAVIMeetingServiceEvent@ZOOMSDK@@@std@@@std@@U_Iterator_base0@2@@0@AAV?$_Tree_const_iterator@V?$_Tree_val@U?$_Tree_simple_types@PAVIMeetingServiceEvent@ZOOMSDK@@@std@@@std@@@0@@Z 004299f0 f i sdk_util.obj
 0001:000289f0       ??$_Get_unwrapped@AAV?$_Tree_const_iterator@V?$_Tree_val@U?$_Tree_simple_types@PAVIPreMeetingServiceEvent@ZOOMSDK@@@std@@@std@@@std@@@std@@YA?AV?$_Tree_unchecked_const_iterator@V?$_Tree_val@U?$_Tree_simple_types@PAVIPreMeetingServiceEvent@ZOOMSDK@@@std@@@std@@U_Iterator_base0@2@@0@AAV?$_Tree_const_iterator@V?$_Tree_val@U?$_Tree_simple_types@PAVIPreMeetingServiceEvent@ZOOMSDK@@@std@@@std@@@0@@Z 004299f0 f i sdk_util.obj
 0001:00028a10       ??$_Lower_bound_duplicate@PAVISDKInMeetingServiceMgrEvent@@@?$_Tree@V?$_Tset_traits@PAVISDKInMeetingServiceMgrEvent@@U?$less@PAVISDKInMeetingServiceMgrEvent@@@std@@V?$allocator@PAVISDKInMeetingServiceMgrEvent@@@3@$0A@@std@@@std@@IBE_NQAU?$_Tree_node@PAVISDKInMeetingServiceMgrEvent@@PAX@1@ABQAVISDKInMeetingServiceMgrEvent@@@Z 00429a10 f i sdk_util.obj
 0001:00028a10       ??$_Lower_bound_duplicate@PAVIMeetingServiceEvent@ZOOMSDK@@@?$_Tree@V?$_Tset_traits@PAVIMeetingServiceEvent@ZOOMSDK@@U?$less@PAVIMeetingServiceEvent@ZOOMSDK@@@std@@V?$allocator@PAVIMeetingServiceEvent@ZOOMSDK@@@4@$0A@@std@@@std@@IBE_NQAU?$_Tree_node@PAVIMeetingServiceEvent@ZOOMSDK@@PAX@1@ABQAVIMeetingServiceEvent@ZOOMSDK@@@Z 00429a10 f i sdk_util.obj
 0001:00028a10       ??$_Lower_bound_duplicate@PAVIMeetingChatCtrlEvent@ZOOMSDK@@@?$_Tree@V?$_Tset_traits@PAVIMeetingChatCtrlEvent@ZOOMSDK@@U?$less@PAVIMeetingChatCtrlEvent@ZOOMSDK@@@std@@V?$allocator@PAVIMeetingChatCtrlEvent@ZOOMSDK@@@4@$0A@@std@@@std@@IBE_NQAU?$_Tree_node@PAVIMeetingChatCtrlEvent@ZOOMSDK@@PAX@1@ABQAVIMeetingChatCtrlEvent@ZOOMSDK@@@Z 00429a10 f i sdk_util.obj
 0001:00028a10       ??$_Lower_bound_duplicate@PAVIMeetingParticipantsCtrlEvent@ZOOMSDK@@@?$_Tree@V?$_Tset_traits@PAVIMeetingParticipantsCtrlEvent@ZOOMSDK@@U?$less@PAVIMeetingParticipantsCtrlEvent@ZOOMSDK@@@std@@V?$allocator@PAVIMeetingParticipantsCtrlEvent@ZOOMSDK@@@4@$0A@@std@@@std@@IBE_NQAU?$_Tree_node@PAVIMeetingParticipantsCtrlEvent@ZOOMSDK@@PAX@1@ABQAVIMeetingParticipantsCtrlEvent@ZOOMSDK@@@Z 00429a10 f i sdk_util.obj
 0001:00028a10       ??$_Lower_bound_duplicate@PAVIPreMeetingServiceEvent@ZOOMSDK@@@?$_Tree@V?$_Tset_traits@PAVIPreMeetingServiceEvent@ZOOMSDK@@U?$less@PAVIPreMeetingServiceEvent@ZOOMSDK@@@std@@V?$allocator@PAVIPreMeetingServiceEvent@ZOOMSDK@@@4@$0A@@std@@@std@@IBE_NQAU?$_Tree_node@PAVIPreMeetingServiceEvent@ZOOMSDK@@PAX@1@ABQAVIPreMeetingServiceEvent@ZOOMSDK@@@Z 00429a10 f i sdk_util.obj
 0001:00028a10       ??$_Lower_bound_duplicate@PAVIAuthServiceEvent@ZOOMSDK@@@?$_Tree@V?$_Tset_traits@PAVIAuthServiceEvent@ZOOMSDK@@U?$less@PAVIAuthServiceEvent@ZOOMSDK@@@std@@V?$allocator@PAVIAuthServiceEvent@ZOOMSDK@@@4@$0A@@std@@@std@@IBE_NQAU?$_Tree_node@PAVIAuthServiceEvent@ZOOMSDK@@PAX@1@ABQAVIAuthServiceEvent@ZOOMSDK@@@Z 00429a10 f i sdk_util.obj
 0001:00028a10       ??$_Lower_bound_duplicate@PAVIClosedCaptionControllerEvent@ZOOMSDK@@@?$_Tree@V?$_Tset_traits@PAVIClosedCaptionControllerEvent@ZOOMSDK@@U?$less@PAVIClosedCaptionControllerEvent@ZOOMSDK@@@std@@V?$allocator@PAVIClosedCaptionControllerEvent@ZOOMSDK@@@4@$0A@@std@@@std@@IBE_NQAU?$_Tree_node@PAVIClosedCaptionControllerEvent@ZOOMSDK@@PAX@1@ABQAVIClosedCaptionControllerEvent@ZOOMSDK@@@Z 00429a10 f i sdk_util.obj
 0001:00028a10       ??$_Lower_bound_duplicate@PAVIMeetingVideoCtrlEvent@ZOOMSDK@@@?$_Tree@V?$_Tset_traits@PAVIMeetingVideoCtrlEvent@ZOOMSDK@@U?$less@PAVIMeetingVideoCtrlEvent@ZOOMSDK@@@std@@V?$allocator@PAVIMeetingVideoCtrlEvent@ZOOMSDK@@@4@$0A@@std@@@std@@IBE_NQAU?$_Tree_node@PAVIMeetingVideoCtrlEvent@ZOOMSDK@@PAX@1@ABQAVIMeetingVideoCtrlEvent@ZOOMSDK@@@Z 00429a10 f i sdk_util.obj
 0001:00028a10       ??$_Lower_bound_duplicate@I@?$_Tree@V?$_Tmap_traits@IPAVIUserInfo@ZOOMSDK@@U?$less@I@std@@V?$allocator@U?$pair@$$CBIPAVIUserInfo@ZOOMSDK@@@std@@@4@$0A@@std@@@std@@IBE_NQAU?$_Tree_node@U?$pair@$$CBIPAVIUserInfo@ZOOMSDK@@@std@@PAX@1@ABI@Z 00429a10 f i user_manager.obj
 0001:00028a70       ??$distance@V?$_Tree_unchecked_const_iterator@V?$_Tree_val@U?$_Tree_simple_types@PAVIMeetingServiceEvent@ZOOMSDK@@@std@@@std@@U_Iterator_base0@2@@std@@@std@@YAHV?$_Tree_unchecked_const_iterator@V?$_Tree_val@U?$_Tree_simple_types@PAVIMeetingServiceEvent@ZOOMSDK@@@std@@@std@@U_Iterator_base0@2@@0@0@Z 00429a70 f i sdk_util.obj
 0001:00028a70       ??$distance@V?$_Tree_unchecked_const_iterator@V?$_Tree_val@U?$_Tree_simple_types@PAVISDKInMeetingServiceMgrEvent@@@std@@@std@@U_Iterator_base0@2@@std@@@std@@YAHV?$_Tree_unchecked_const_iterator@V?$_Tree_val@U?$_Tree_simple_types@PAVISDKInMeetingServiceMgrEvent@@@std@@@std@@U_Iterator_base0@2@@0@0@Z 00429a70 f i sdk_util.obj
 0001:00028a70       ??$distance@V?$_Tree_unchecked_const_iterator@V?$_Tree_val@U?$_Tree_simple_types@PAVIMeetingChatCtrlEvent@ZOOMSDK@@@std@@@std@@U_Iterator_base0@2@@std@@@std@@YAHV?$_Tree_unchecked_const_iterator@V?$_Tree_val@U?$_Tree_simple_types@PAVIMeetingChatCtrlEvent@ZOOMSDK@@@std@@@std@@U_Iterator_base0@2@@0@0@Z 00429a70 f i sdk_util.obj
 0001:00028a70       ??$distance@V?$_Tree_unchecked_const_iterator@V?$_Tree_val@U?$_Tree_simple_types@PAVIClosedCaptionControllerEvent@ZOOMSDK@@@std@@@std@@U_Iterator_base0@2@@std@@@std@@YAHV?$_Tree_unchecked_const_iterator@V?$_Tree_val@U?$_Tree_simple_types@PAVIClosedCaptionControllerEvent@ZOOMSDK@@@std@@@std@@U_Iterator_base0@2@@0@0@Z 00429a70 f i sdk_util.obj
 0001:00028a70       ??$distance@V?$_Tree_unchecked_const_iterator@V?$_Tree_val@U?$_Tree_simple_types@PAVIMeetingParticipantsCtrlEvent@ZOOMSDK@@@std@@@std@@U_Iterator_base0@2@@std@@@std@@YAHV?$_Tree_unchecked_const_iterator@V?$_Tree_val@U?$_Tree_simple_types@PAVIMeetingParticipantsCtrlEvent@ZOOMSDK@@@std@@@std@@U_Iterator_base0@2@@0@0@Z 00429a70 f i sdk_util.obj
 0001:00028a70       ??$distance@V?$_Tree_unchecked_const_iterator@V?$_Tree_val@U?$_Tree_simple_types@PAVIAuthServiceEvent@ZOOMSDK@@@std@@@std@@U_Iterator_base0@2@@std@@@std@@YAHV?$_Tree_unchecked_const_iterator@V?$_Tree_val@U?$_Tree_simple_types@PAVIAuthServiceEvent@ZOOMSDK@@@std@@@std@@U_Iterator_base0@2@@0@0@Z 00429a70 f i sdk_util.obj
 0001:00028a70       ??$distance@V?$_Tree_unchecked_const_iterator@V?$_Tree_val@U?$_Tree_simple_types@PAVIPreMeetingServiceEvent@ZOOMSDK@@@std@@@std@@U_Iterator_base0@2@@std@@@std@@YAHV?$_Tree_unchecked_const_iterator@V?$_Tree_val@U?$_Tree_simple_types@PAVIPreMeetingServiceEvent@ZOOMSDK@@@std@@@std@@U_Iterator_base0@2@@0@0@Z 00429a70 f i sdk_util.obj
 0001:00028ae0       ??$exchange@PAU?$_Tree_node@PAVIMeetingServiceEvent@ZOOMSDK@@PAX@std@@AAPAU12@@std@@YAPAU?$_Tree_node@PAVIMeetingServiceEvent@ZOOMSDK@@PAX@0@AAPAU10@0@Z 00429ae0 f i sdk_util.obj
 0001:00028ae0       ??$exchange@PAU?$_Tree_node@PAVIAuthServiceEvent@ZOOMSDK@@PAX@std@@$$T@std@@YAPAU?$_Tree_node@PAVIAuthServiceEvent@ZOOMSDK@@PAX@0@AAPAU10@$$QA$$T@Z 00429ae0 f i sdk_util.obj
 0001:00028ae0       ??$exchange@PAU?$_Tree_node@U?$pair@$$CBIPAVIUserInfo@ZOOMSDK@@@std@@PAX@std@@$$T@std@@YAPAU?$_Tree_node@U?$pair@$$CBIPAVIUserInfo@ZOOMSDK@@@std@@PAX@0@AAPAU10@$$QA$$T@Z 00429ae0 f i user_manager.obj
 0001:00028ae0       ??$exchange@PAU?$_Tree_node@PAVIMeetingServiceEvent@ZOOMSDK@@PAX@std@@$$T@std@@YAPAU?$_Tree_node@PAVIMeetingServiceEvent@ZOOMSDK@@PAX@0@AAPAU10@$$QA$$T@Z 00429ae0 f i sdk_util.obj
 0001:00028ae0       ??$exchange@PAU?$_Tree_node@PAVISDKInMeetingServiceMgrEvent@@PAX@std@@AAPAU12@@std@@YAPAU?$_Tree_node@PAVISDKInMeetingServiceMgrEvent@@PAX@0@AAPAU10@0@Z 00429ae0 f i sdk_util.obj
 0001:00028ae0       ??$exchange@PAU?$_Tree_node@PAVIMeetingParticipantsCtrlEvent@ZOOMSDK@@PAX@std@@AAPAU12@@std@@YAPAU?$_Tree_node@PAVIMeetingParticipantsCtrlEvent@ZOOMSDK@@PAX@0@AAPAU10@0@Z 00429ae0 f i sdk_util.obj
 0001:00028ae0       ??$exchange@PAU?$_Tree_node@PAVIMeetingChatCtrlEvent@ZOOMSDK@@PAX@std@@$$T@std@@YAPAU?$_Tree_node@PAVIMeetingChatCtrlEvent@ZOOMSDK@@PAX@0@AAPAU10@$$QA$$T@Z 00429ae0 f i sdk_util.obj
 0001:00028ae0       ??$exchange@PAU?$_Tree_node@PAVIClosedCaptionControllerEvent@ZOOMSDK@@PAX@std@@$$T@std@@YAPAU?$_Tree_node@PAVIClosedCaptionControllerEvent@ZOOMSDK@@PAX@0@AAPAU10@$$QA$$T@Z 00429ae0 f i sdk_util.obj
 0001:00028ae0       ??$exchange@PAU?$_Tree_node@PAVIClosedCaptionControllerEvent@ZOOMSDK@@PAX@std@@AAPAU12@@std@@YAPAU?$_Tree_node@PAVIClosedCaptionControllerEvent@ZOOMSDK@@PAX@0@AAPAU10@0@Z 00429ae0 f i sdk_util.obj
 0001:00028ae0       ??$exchange@PAU?$_Tree_node@PAVIMeetingVideoCtrlEvent@ZOOMSDK@@PAX@std@@AAPAU12@@std@@YAPAU?$_Tree_node@PAVIMeetingVideoCtrlEvent@ZOOMSDK@@PAX@0@AAPAU10@0@Z 00429ae0 f i sdk_util.obj
 0001:00028ae0       ??$exchange@PAU?$_Tree_node@PAVIMeetingVideoCtrlEvent@ZOOMSDK@@PAX@std@@$$T@std@@YAPAU?$_Tree_node@PAVIMeetingVideoCtrlEvent@ZOOMSDK@@PAX@0@AAPAU10@$$QA$$T@Z 00429ae0 f i sdk_util.obj
 0001:00028ae0       ??$exchange@PAU?$_Tree_node@PAVIPreMeetingServiceEvent@ZOOMSDK@@PAX@std@@AAPAU12@@std@@YAPAU?$_Tree_node@PAVIPreMeetingServiceEvent@ZOOMSDK@@PAX@0@AAPAU10@0@Z 00429ae0 f i sdk_util.obj
 0001:00028ae0       ??$exchange@PAU?$_Tree_node@U?$pair@$$CBHW4bkItemType@@@std@@PAX@std@@AAPAU12@@std@@YAPAU?$_Tree_node@U?$pair@$$CBHW4bkItemType@@@std@@PAX@0@AAPAU10@0@Z 00429ae0 f i settings_ui.obj
 0001:00028ae0       ??$exchange@PAU?$_Tree_node@PAVIAuthServiceEvent@ZOOMSDK@@PAX@std@@AAPAU12@@std@@YAPAU?$_Tree_node@PAVIAuthServiceEvent@ZOOMSDK@@PAX@0@AAPAU10@0@Z 00429ae0 f i sdk_util.obj
 0001:00028ae0       ??$exchange@PAU?$_Tree_node@PAVISDKInMeetingServiceMgrEvent@@PAX@std@@$$T@std@@YAPAU?$_Tree_node@PAVISDKInMeetingServiceMgrEvent@@PAX@0@AAPAU10@$$QA$$T@Z 00429ae0 f i sdk_util.obj
 0001:00028ae0       ??$exchange@PAU?$_Tree_node@U?$pair@$$CBHW4bkItemType@@@std@@PAX@std@@$$T@std@@YAPAU?$_Tree_node@U?$pair@$$CBHW4bkItemType@@@std@@PAX@0@AAPAU10@$$QA$$T@Z 00429ae0 f i settings_ui.obj
 0001:00028ae0       ??$exchange@PAU?$_Tree_node@PAVIPreMeetingServiceEvent@ZOOMSDK@@PAX@std@@$$T@std@@YAPAU?$_Tree_node@PAVIPreMeetingServiceEvent@ZOOMSDK@@PAX@0@AAPAU10@$$QA$$T@Z 00429ae0 f i sdk_util.obj
 0001:00028ae0       ??$exchange@PAU?$_Tree_node@PAVIMeetingChatCtrlEvent@ZOOMSDK@@PAX@std@@AAPAU12@@std@@YAPAU?$_Tree_node@PAVIMeetingChatCtrlEvent@ZOOMSDK@@PAX@0@AAPAU10@0@Z 00429ae0 f i sdk_util.obj
 0001:00028ae0       ??$exchange@PAU?$_Tree_node@PAVIMeetingParticipantsCtrlEvent@ZOOMSDK@@PAX@std@@$$T@std@@YAPAU?$_Tree_node@PAVIMeetingParticipantsCtrlEvent@ZOOMSDK@@PAX@0@AAPAU10@$$QA$$T@Z 00429ae0 f i sdk_util.obj
 0001:00028ae0       ??$exchange@PAU?$_Tree_node@U?$pair@$$CBIPAVIUserInfo@ZOOMSDK@@@std@@PAX@std@@AAPAU12@@std@@YAPAU?$_Tree_node@U?$pair@$$CBIPAVIUserInfo@ZOOMSDK@@@std@@PAX@0@AAPAU10@0@Z 00429ae0 f i user_manager.obj
 0001:00028b00       ??$insert@$0A@$0A@@?$_Tree@V?$_Tset_traits@PAVIClosedCaptionControllerEvent@ZOOMSDK@@U?$less@PAVIClosedCaptionControllerEvent@ZOOMSDK@@@std@@V?$allocator@PAVIClosedCaptionControllerEvent@ZOOMSDK@@@4@$0A@@std@@@std@@QAE?AU?$pair@V?$_Tree_const_iterator@V?$_Tree_val@U?$_Tree_simple_types@PAVIClosedCaptionControllerEvent@ZOOMSDK@@@std@@@std@@@std@@_N@1@ABQAVIClosedCaptionControllerEvent@ZOOMSDK@@@Z 00429b00 f i sdk_util.obj
 0001:00028b00       ??$insert@$0A@$0A@@?$_Tree@V?$_Tset_traits@PAVIMeetingParticipantsCtrlEvent@ZOOMSDK@@U?$less@PAVIMeetingParticipantsCtrlEvent@ZOOMSDK@@@std@@V?$allocator@PAVIMeetingParticipantsCtrlEvent@ZOOMSDK@@@4@$0A@@std@@@std@@QAE?AU?$pair@V?$_Tree_const_iterator@V?$_Tree_val@U?$_Tree_simple_types@PAVIMeetingParticipantsCtrlEvent@ZOOMSDK@@@std@@@std@@@std@@_N@1@ABQAVIMeetingParticipantsCtrlEvent@ZOOMSDK@@@Z 00429b00 f i sdk_util.obj
 0001:00028b00       ??$insert@$0A@$0A@@?$_Tree@V?$_Tset_traits@PAVIAuthServiceEvent@ZOOMSDK@@U?$less@PAVIAuthServiceEvent@ZOOMSDK@@@std@@V?$allocator@PAVIAuthServiceEvent@ZOOMSDK@@@4@$0A@@std@@@std@@QAE?AU?$pair@V?$_Tree_const_iterator@V?$_Tree_val@U?$_Tree_simple_types@PAVIAuthServiceEvent@ZOOMSDK@@@std@@@std@@@std@@_N@1@ABQAVIAuthServiceEvent@ZOOMSDK@@@Z 00429b00 f i sdk_util.obj
 0001:00028b00       ??$insert@$0A@$0A@@?$_Tree@V?$_Tset_traits@PAVIMeetingServiceEvent@ZOOMSDK@@U?$less@PAVIMeetingServiceEvent@ZOOMSDK@@@std@@V?$allocator@PAVIMeetingServiceEvent@ZOOMSDK@@@4@$0A@@std@@@std@@QAE?AU?$pair@V?$_Tree_const_iterator@V?$_Tree_val@U?$_Tree_simple_types@PAVIMeetingServiceEvent@ZOOMSDK@@@std@@@std@@@std@@_N@1@ABQAVIMeetingServiceEvent@ZOOMSDK@@@Z 00429b00 f i sdk_util.obj
 0001:00028b00       ??$insert@$0A@$0A@@?$_Tree@V?$_Tset_traits@PAVISDKInMeetingServiceMgrEvent@@U?$less@PAVISDKInMeetingServiceMgrEvent@@@std@@V?$allocator@PAVISDKInMeetingServiceMgrEvent@@@3@$0A@@std@@@std@@QAE?AU?$pair@V?$_Tree_const_iterator@V?$_Tree_val@U?$_Tree_simple_types@PAVISDKInMeetingServiceMgrEvent@@@std@@@std@@@std@@_N@1@ABQAVISDKInMeetingServiceMgrEvent@@@Z 00429b00 f i sdk_util.obj
 0001:00028b00       ??$insert@$0A@$0A@@?$_Tree@V?$_Tset_traits@PAVIPreMeetingServiceEvent@ZOOMSDK@@U?$less@PAVIPreMeetingServiceEvent@ZOOMSDK@@@std@@V?$allocator@PAVIPreMeetingServiceEvent@ZOOMSDK@@@4@$0A@@std@@@std@@QAE?AU?$pair@V?$_Tree_const_iterator@V?$_Tree_val@U?$_Tree_simple_types@PAVIPreMeetingServiceEvent@ZOOMSDK@@@std@@@std@@@std@@_N@1@ABQAVIPreMeetingServiceEvent@ZOOMSDK@@@Z 00429b00 f i sdk_util.obj
 0001:00028b00       ??$insert@$0A@$0A@@?$_Tree@V?$_Tset_traits@PAVIMeetingVideoCtrlEvent@ZOOMSDK@@U?$less@PAVIMeetingVideoCtrlEvent@ZOOMSDK@@@std@@V?$allocator@PAVIMeetingVideoCtrlEvent@ZOOMSDK@@@4@$0A@@std@@@std@@QAE?AU?$pair@V?$_Tree_const_iterator@V?$_Tree_val@U?$_Tree_simple_types@PAVIMeetingVideoCtrlEvent@ZOOMSDK@@@std@@@std@@@std@@_N@1@ABQAVIMeetingVideoCtrlEvent@ZOOMSDK@@@Z 00429b00 f i sdk_util.obj
 0001:00028b00       ??$insert@$0A@$0A@@?$_Tree@V?$_Tset_traits@PAVIMeetingChatCtrlEvent@ZOOMSDK@@U?$less@PAVIMeetingChatCtrlEvent@ZOOMSDK@@@std@@V?$allocator@PAVIMeetingChatCtrlEvent@ZOOMSDK@@@4@$0A@@std@@@std@@QAE?AU?$pair@V?$_Tree_const_iterator@V?$_Tree_val@U?$_Tree_simple_types@PAVIMeetingChatCtrlEvent@ZOOMSDK@@@std@@@std@@@std@@_N@1@ABQAVIMeetingChatCtrlEvent@ZOOMSDK@@@Z 00429b00 f i sdk_util.obj
 0001:00028b50       ??$insert@V?$_Tree_const_iterator@V?$_Tree_val@U?$_Tree_simple_types@PAVIMeetingServiceEvent@ZOOMSDK@@@std@@@std@@@std@@@?$_Tree@V?$_Tset_traits@PAVIMeetingServiceEvent@ZOOMSDK@@U?$less@PAVIMeetingServiceEvent@ZOOMSDK@@@std@@V?$allocator@PAVIMeetingServiceEvent@ZOOMSDK@@@4@$0A@@std@@@std@@QAEXV?$_Tree_const_iterator@V?$_Tree_val@U?$_Tree_simple_types@PAVIMeetingServiceEvent@ZOOMSDK@@@std@@@std@@@1@0@Z 00429b50 f i sdk_util.obj
 0001:00028b50       ??$insert@V?$_Tree_const_iterator@V?$_Tree_val@U?$_Tree_simple_types@PAVIAuthServiceEvent@ZOOMSDK@@@std@@@std@@@std@@@?$_Tree@V?$_Tset_traits@PAVIAuthServiceEvent@ZOOMSDK@@U?$less@PAVIAuthServiceEvent@ZOOMSDK@@@std@@V?$allocator@PAVIAuthServiceEvent@ZOOMSDK@@@4@$0A@@std@@@std@@QAEXV?$_Tree_const_iterator@V?$_Tree_val@U?$_Tree_simple_types@PAVIAuthServiceEvent@ZOOMSDK@@@std@@@std@@@1@0@Z 00429b50 f i sdk_util.obj
 0001:00028b50       ??$insert@V?$_Tree_const_iterator@V?$_Tree_val@U?$_Tree_simple_types@PAVIPreMeetingServiceEvent@ZOOMSDK@@@std@@@std@@@std@@@?$_Tree@V?$_Tset_traits@PAVIPreMeetingServiceEvent@ZOOMSDK@@U?$less@PAVIPreMeetingServiceEvent@ZOOMSDK@@@std@@V?$allocator@PAVIPreMeetingServiceEvent@ZOOMSDK@@@4@$0A@@std@@@std@@QAEXV?$_Tree_const_iterator@V?$_Tree_val@U?$_Tree_simple_types@PAVIPreMeetingServiceEvent@ZOOMSDK@@@std@@@std@@@1@0@Z 00429b50 f i sdk_util.obj
 0001:00028b50       ??$insert@V?$_Tree_const_iterator@V?$_Tree_val@U?$_Tree_simple_types@PAVIMeetingVideoCtrlEvent@ZOOMSDK@@@std@@@std@@@std@@@?$_Tree@V?$_Tset_traits@PAVIMeetingVideoCtrlEvent@ZOOMSDK@@U?$less@PAVIMeetingVideoCtrlEvent@ZOOMSDK@@@std@@V?$allocator@PAVIMeetingVideoCtrlEvent@ZOOMSDK@@@4@$0A@@std@@@std@@QAEXV?$_Tree_const_iterator@V?$_Tree_val@U?$_Tree_simple_types@PAVIMeetingVideoCtrlEvent@ZOOMSDK@@@std@@@std@@@1@0@Z 00429b50 f i sdk_util.obj
 0001:00028b50       ??$insert@V?$_Tree_const_iterator@V?$_Tree_val@U?$_Tree_simple_types@PAVIClosedCaptionControllerEvent@ZOOMSDK@@@std@@@std@@@std@@@?$_Tree@V?$_Tset_traits@PAVIClosedCaptionControllerEvent@ZOOMSDK@@U?$less@PAVIClosedCaptionControllerEvent@ZOOMSDK@@@std@@V?$allocator@PAVIClosedCaptionControllerEvent@ZOOMSDK@@@4@$0A@@std@@@std@@QAEXV?$_Tree_const_iterator@V?$_Tree_val@U?$_Tree_simple_types@PAVIClosedCaptionControllerEvent@ZOOMSDK@@@std@@@std@@@1@0@Z 00429b50 f i sdk_util.obj
 0001:00028b50       ??$insert@V?$_Tree_const_iterator@V?$_Tree_val@U?$_Tree_simple_types@PAVISDKInMeetingServiceMgrEvent@@@std@@@std@@@std@@@?$_Tree@V?$_Tset_traits@PAVISDKInMeetingServiceMgrEvent@@U?$less@PAVISDKInMeetingServiceMgrEvent@@@std@@V?$allocator@PAVISDKInMeetingServiceMgrEvent@@@3@$0A@@std@@@std@@QAEXV?$_Tree_const_iterator@V?$_Tree_val@U?$_Tree_simple_types@PAVISDKInMeetingServiceMgrEvent@@@std@@@std@@@1@0@Z 00429b50 f i sdk_util.obj
 0001:00028b50       ??$insert@V?$_Tree_const_iterator@V?$_Tree_val@U?$_Tree_simple_types@PAVIMeetingChatCtrlEvent@ZOOMSDK@@@std@@@std@@@std@@@?$_Tree@V?$_Tset_traits@PAVIMeetingChatCtrlEvent@ZOOMSDK@@U?$less@PAVIMeetingChatCtrlEvent@ZOOMSDK@@@std@@V?$allocator@PAVIMeetingChatCtrlEvent@ZOOMSDK@@@4@$0A@@std@@@std@@QAEXV?$_Tree_const_iterator@V?$_Tree_val@U?$_Tree_simple_types@PAVIMeetingChatCtrlEvent@ZOOMSDK@@@std@@@std@@@1@0@Z 00429b50 f i sdk_util.obj
 0001:00028b50       ??$insert@V?$_Tree_const_iterator@V?$_Tree_val@U?$_Tree_simple_types@PAVIMeetingParticipantsCtrlEvent@ZOOMSDK@@@std@@@std@@@std@@@?$_Tree@V?$_Tset_traits@PAVIMeetingParticipantsCtrlEvent@ZOOMSDK@@U?$less@PAVIMeetingParticipantsCtrlEvent@ZOOMSDK@@@std@@V?$allocator@PAVIMeetingParticipantsCtrlEvent@ZOOMSDK@@@4@$0A@@std@@@std@@QAEXV?$_Tree_const_iterator@V?$_Tree_val@U?$_Tree_simple_types@PAVIMeetingParticipantsCtrlEvent@ZOOMSDK@@@std@@@std@@@1@0@Z 00429b50 f i sdk_util.obj
 0001:00028bd0       ??$swap@D$0A@@std@@YAXAAD0@Z 00429bd0 f i sdk_util.obj
 0001:00028c10       ??0?$EventSinkPool@VIAuthServiceEvent@ZOOMSDK@@@@QAE@XZ 00429c10 f i sdk_util.obj
 0001:00028c80       ??0?$EventSinkPool@VIClosedCaptionControllerEvent@ZOOMSDK@@@@QAE@XZ 00429c80 f i sdk_util.obj
 0001:00028cf0       ??0?$EventSinkPool@VIMeetingChatCtrlEvent@ZOOMSDK@@@@QAE@XZ 00429cf0 f i sdk_util.obj
 0001:00028d60       ??0?$EventSinkPool@VIMeetingParticipantsCtrlEvent@ZOOMSDK@@@@QAE@XZ 00429d60 f i sdk_util.obj
 0001:00028dd0       ??0?$EventSinkPool@VIMeetingServiceEvent@ZOOMSDK@@@@QAE@XZ 00429dd0 f i sdk_util.obj
 0001:00028e40       ??0?$EventSinkPool@VIMeetingVideoCtrlEvent@ZOOMSDK@@@@QAE@XZ 00429e40 f i sdk_util.obj
 0001:00028eb0       ??0?$EventSinkPool@VIPreMeetingServiceEvent@ZOOMSDK@@@@QAE@XZ 00429eb0 f i sdk_util.obj
 0001:00028f20       ??0?$EventSinkPool@VISDKInMeetingServiceMgrEvent@@@@QAE@XZ 00429f20 f i sdk_util.obj
 0001:00028f90       ??0?$_Tree@V?$_Tset_traits@PAVIAuthServiceEvent@ZOOMSDK@@U?$less@PAVIAuthServiceEvent@ZOOMSDK@@@std@@V?$allocator@PAVIAuthServiceEvent@ZOOMSDK@@@4@$0A@@std@@@std@@QAE@ABU?$less@PAVIAuthServiceEvent@ZOOMSDK@@@1@@Z 00429f90 f i sdk_util.obj
 0001:00028f90       ??0?$_Tree@V?$_Tset_traits@PAVIClosedCaptionControllerEvent@ZOOMSDK@@U?$less@PAVIClosedCaptionControllerEvent@ZOOMSDK@@@std@@V?$allocator@PAVIClosedCaptionControllerEvent@ZOOMSDK@@@4@$0A@@std@@@std@@QAE@ABU?$less@PAVIClosedCaptionControllerEvent@ZOOMSDK@@@1@@Z 00429f90 f i sdk_util.obj
 0001:00028f90       ??0?$_Tree@V?$_Tset_traits@PAVISDKInMeetingServiceMgrEvent@@U?$less@PAVISDKInMeetingServiceMgrEvent@@@std@@V?$allocator@PAVISDKInMeetingServiceMgrEvent@@@3@$0A@@std@@@std@@QAE@ABU?$less@PAVISDKInMeetingServiceMgrEvent@@@1@@Z 00429f90 f i sdk_util.obj
 0001:00028f90       ??0?$_Tree@V?$_Tset_traits@PAVIMeetingParticipantsCtrlEvent@ZOOMSDK@@U?$less@PAVIMeetingParticipantsCtrlEvent@ZOOMSDK@@@std@@V?$allocator@PAVIMeetingParticipantsCtrlEvent@ZOOMSDK@@@4@$0A@@std@@@std@@QAE@ABU?$less@PAVIMeetingParticipantsCtrlEvent@ZOOMSDK@@@1@@Z 00429f90 f i sdk_util.obj
 0001:00028f90       ??0?$_Tree@V?$_Tset_traits@PAVIMeetingServiceEvent@ZOOMSDK@@U?$less@PAVIMeetingServiceEvent@ZOOMSDK@@@std@@V?$allocator@PAVIMeetingServiceEvent@ZOOMSDK@@@4@$0A@@std@@@std@@QAE@ABU?$less@PAVIMeetingServiceEvent@ZOOMSDK@@@1@@Z 00429f90 f i sdk_util.obj
 0001:00028f90       ??0?$_Tree@V?$_Tset_traits@PAVIPreMeetingServiceEvent@ZOOMSDK@@U?$less@PAVIPreMeetingServiceEvent@ZOOMSDK@@@std@@V?$allocator@PAVIPreMeetingServiceEvent@ZOOMSDK@@@4@$0A@@std@@@std@@QAE@ABU?$less@PAVIPreMeetingServiceEvent@ZOOMSDK@@@1@@Z 00429f90 f i sdk_util.obj
 0001:00028f90       ??0?$_Tree@V?$_Tset_traits@PAVIMeetingVideoCtrlEvent@ZOOMSDK@@U?$less@PAVIMeetingVideoCtrlEvent@ZOOMSDK@@@std@@V?$allocator@PAVIMeetingVideoCtrlEvent@ZOOMSDK@@@4@$0A@@std@@@std@@QAE@ABU?$less@PAVIMeetingVideoCtrlEvent@ZOOMSDK@@@1@@Z 00429f90 f i sdk_util.obj
 0001:00028f90       ??0?$_Tree@V?$_Tset_traits@PAVIMeetingChatCtrlEvent@ZOOMSDK@@U?$less@PAVIMeetingChatCtrlEvent@ZOOMSDK@@@std@@V?$allocator@PAVIMeetingChatCtrlEvent@ZOOMSDK@@@4@$0A@@std@@@std@@QAE@ABU?$less@PAVIMeetingChatCtrlEvent@ZOOMSDK@@@1@@Z 00429f90 f i sdk_util.obj
 0001:00028fc0       ??0?$_Tree_temp_node_alloc@V?$allocator@U?$_Tree_node@PAVIMeetingVideoCtrlEvent@ZOOMSDK@@PAX@std@@@std@@@std@@QAE@AAV?$allocator@U?$_Tree_node@PAVIMeetingVideoCtrlEvent@ZOOMSDK@@PAX@std@@@1@@Z 00429fc0 f i sdk_util.obj
 0001:00028fc0       ??0?$_Tree_temp_node_alloc@V?$allocator@U?$_Tree_node@PAVIAuthServiceEvent@ZOOMSDK@@PAX@std@@@std@@@std@@QAE@AAV?$allocator@U?$_Tree_node@PAVIAuthServiceEvent@ZOOMSDK@@PAX@std@@@1@@Z 00429fc0 f i sdk_util.obj
 0001:00028fc0       ??0?$_Tree_temp_node_alloc@V?$allocator@U?$_Tree_node@PAVIMeetingServiceEvent@ZOOMSDK@@PAX@std@@@std@@@std@@QAE@AAV?$allocator@U?$_Tree_node@PAVIMeetingServiceEvent@ZOOMSDK@@PAX@std@@@1@@Z 00429fc0 f i sdk_util.obj
 0001:00028fc0       ??0?$_Tree_temp_node_alloc@V?$allocator@U?$_Tree_node@PAVISDKInMeetingServiceMgrEvent@@PAX@std@@@std@@@std@@QAE@AAV?$allocator@U?$_Tree_node@PAVISDKInMeetingServiceMgrEvent@@PAX@std@@@1@@Z 00429fc0 f i sdk_util.obj
 0001:00028fc0       ??0?$_Tree_temp_node_alloc@V?$allocator@U?$_Tree_node@PAVIClosedCaptionControllerEvent@ZOOMSDK@@PAX@std@@@std@@@std@@QAE@AAV?$allocator@U?$_Tree_node@PAVIClosedCaptionControllerEvent@ZOOMSDK@@PAX@std@@@1@@Z 00429fc0 f i sdk_util.obj
 0001:00028fc0       ??0?$_Tree_temp_node_alloc@V?$allocator@U?$_Tree_node@PAVIMeetingParticipantsCtrlEvent@ZOOMSDK@@PAX@std@@@std@@@std@@QAE@AAV?$allocator@U?$_Tree_node@PAVIMeetingParticipantsCtrlEvent@ZOOMSDK@@PAX@std@@@1@@Z 00429fc0 f i sdk_util.obj
 0001:00028fc0       ??0?$_Tree_temp_node_alloc@V?$allocator@U?$_Tree_node@PAVIMeetingChatCtrlEvent@ZOOMSDK@@PAX@std@@@std@@@std@@QAE@AAV?$allocator@U?$_Tree_node@PAVIMeetingChatCtrlEvent@ZOOMSDK@@PAX@std@@@1@@Z 00429fc0 f i sdk_util.obj
 0001:00028fc0       ??0?$_Tree_temp_node_alloc@V?$allocator@U?$_Tree_node@PAVIPreMeetingServiceEvent@ZOOMSDK@@PAX@std@@@std@@@std@@QAE@AAV?$allocator@U?$_Tree_node@PAVIPreMeetingServiceEvent@ZOOMSDK@@PAX@std@@@1@@Z 00429fc0 f i sdk_util.obj
 0001:00029020       ??0?$set@PAVIMeetingChatCtrlEvent@ZOOMSDK@@U?$less@PAVIMeetingChatCtrlEvent@ZOOMSDK@@@std@@V?$allocator@PAVIMeetingChatCtrlEvent@ZOOMSDK@@@4@@std@@QAE@XZ 0042a020 f i sdk_util.obj
 0001:00029020       ??0?$set@PAVIMeetingVideoCtrlEvent@ZOOMSDK@@U?$less@PAVIMeetingVideoCtrlEvent@ZOOMSDK@@@std@@V?$allocator@PAVIMeetingVideoCtrlEvent@ZOOMSDK@@@4@@std@@QAE@XZ 0042a020 f i sdk_util.obj
 0001:00029020       ??0?$set@PAVIMeetingParticipantsCtrlEvent@ZOOMSDK@@U?$less@PAVIMeetingParticipantsCtrlEvent@ZOOMSDK@@@std@@V?$allocator@PAVIMeetingParticipantsCtrlEvent@ZOOMSDK@@@4@@std@@QAE@XZ 0042a020 f i sdk_util.obj
 0001:00029020       ??0?$set@PAVISDKInMeetingServiceMgrEvent@@U?$less@PAVISDKInMeetingServiceMgrEvent@@@std@@V?$allocator@PAVISDKInMeetingServiceMgrEvent@@@3@@std@@QAE@XZ 0042a020 f i sdk_util.obj
 0001:00029020       ??0?$set@PAVIClosedCaptionControllerEvent@ZOOMSDK@@U?$less@PAVIClosedCaptionControllerEvent@ZOOMSDK@@@std@@V?$allocator@PAVIClosedCaptionControllerEvent@ZOOMSDK@@@4@@std@@QAE@XZ 0042a020 f i sdk_util.obj
 0001:00029020       ??0?$set@PAVIMeetingServiceEvent@ZOOMSDK@@U?$less@PAVIMeetingServiceEvent@ZOOMSDK@@@std@@V?$allocator@PAVIMeetingServiceEvent@ZOOMSDK@@@4@@std@@QAE@XZ 0042a020 f i sdk_util.obj
 0001:00029020       ??0?$set@PAVIPreMeetingServiceEvent@ZOOMSDK@@U?$less@PAVIPreMeetingServiceEvent@ZOOMSDK@@@std@@V?$allocator@PAVIPreMeetingServiceEvent@ZOOMSDK@@@4@@std@@QAE@XZ 0042a020 f i sdk_util.obj
 0001:00029020       ??0?$set@PAVIAuthServiceEvent@ZOOMSDK@@U?$less@PAVIAuthServiceEvent@ZOOMSDK@@@std@@V?$allocator@PAVIAuthServiceEvent@ZOOMSDK@@@4@@std@@QAE@XZ 0042a020 f i sdk_util.obj
 0001:00029040       ??0STRINGorID@DuiLib@@QAE@PB_W@Z 0042a040 f i DuiLib:Utils.obj
 0001:00029040       ??0CAtlException@ATL@@QAE@J@Z 0042a040 f i sdk_util.obj
 0001:00029060       ??0CComAutoCriticalSection@ATL@@QAE@XZ 0042a060 f i sdk_util.obj
 0001:000290d0       ??0SDKInterfaceWrap@@AAE@XZ 0042a0d0 f   sdk_util.obj
 0001:000292d0       ??1?$EventSinkPool@VIAuthServiceEvent@ZOOMSDK@@@@UAE@XZ 0042a2d0 f i sdk_util.obj
 0001:00029320       ??1?$EventSinkPool@VIClosedCaptionControllerEvent@ZOOMSDK@@@@UAE@XZ 0042a320 f i sdk_util.obj
 0001:00029370       ??1?$EventSinkPool@VIMeetingChatCtrlEvent@ZOOMSDK@@@@UAE@XZ 0042a370 f i sdk_util.obj
 0001:000293c0       ??1?$EventSinkPool@VIMeetingParticipantsCtrlEvent@ZOOMSDK@@@@UAE@XZ 0042a3c0 f i sdk_util.obj
 0001:00029410       ??1?$EventSinkPool@VIMeetingServiceEvent@ZOOMSDK@@@@UAE@XZ 0042a410 f i sdk_util.obj
 0001:00029460       ??1?$EventSinkPool@VIMeetingVideoCtrlEvent@ZOOMSDK@@@@UAE@XZ 0042a460 f i sdk_util.obj
 0001:000294b0       ??1?$EventSinkPool@VIPreMeetingServiceEvent@ZOOMSDK@@@@UAE@XZ 0042a4b0 f i sdk_util.obj
 0001:00029500       ??1?$EventSinkPool@VISDKInMeetingServiceMgrEvent@@@@UAE@XZ 0042a500 f i sdk_util.obj
 0001:00029550       ??1?$_Alloc_construct_ptr@V?$allocator@U?$_Tree_node@PAVISDKInMeetingServiceMgrEvent@@PAX@std@@@std@@@std@@QAE@XZ 0042a550 f i sdk_util.obj
 0001:00029550       ??1?$_Alloc_construct_ptr@V?$allocator@U?$_Tree_node@PAVIAuthServiceEvent@ZOOMSDK@@PAX@std@@@std@@@std@@QAE@XZ 0042a550 f i sdk_util.obj
 0001:00029550       ??1?$_Alloc_construct_ptr@V?$allocator@U?$_Tree_node@PAVIPreMeetingServiceEvent@ZOOMSDK@@PAX@std@@@std@@@std@@QAE@XZ 0042a550 f i sdk_util.obj
 0001:00029550       ??1?$_Alloc_construct_ptr@V?$allocator@U?$_Tree_node@PAVIMeetingServiceEvent@ZOOMSDK@@PAX@std@@@std@@@std@@QAE@XZ 0042a550 f i sdk_util.obj
 0001:00029550       ??1?$_Alloc_construct_ptr@V?$allocator@U?$_Tree_node@PAVIMeetingChatCtrlEvent@ZOOMSDK@@PAX@std@@@std@@@std@@QAE@XZ 0042a550 f i sdk_util.obj
 0001:00029550       ??1?$_Alloc_construct_ptr@V?$allocator@U?$_Tree_node@PAVIMeetingParticipantsCtrlEvent@ZOOMSDK@@PAX@std@@@std@@@std@@QAE@XZ 0042a550 f i sdk_util.obj
 0001:00029550       ??1?$_Alloc_construct_ptr@V?$allocator@U?$_Tree_node@PAVIMeetingVideoCtrlEvent@ZOOMSDK@@PAX@std@@@std@@@std@@QAE@XZ 0042a550 f i sdk_util.obj
 0001:00029550       ??1?$_Alloc_construct_ptr@V?$allocator@U?$_Tree_node@PAVIClosedCaptionControllerEvent@ZOOMSDK@@PAX@std@@@std@@@std@@QAE@XZ 0042a550 f i sdk_util.obj
 0001:000295b0       ??1?$_Tree@V?$_Tset_traits@PAVIMeetingChatCtrlEvent@ZOOMSDK@@U?$less@PAVIMeetingChatCtrlEvent@ZOOMSDK@@@std@@V?$allocator@PAVIMeetingChatCtrlEvent@ZOOMSDK@@@4@$0A@@std@@@std@@QAE@XZ 0042a5b0 f i sdk_util.obj
 0001:000295b0       ??1?$_Tree@V?$_Tset_traits@PAVIClosedCaptionControllerEvent@ZOOMSDK@@U?$less@PAVIClosedCaptionControllerEvent@ZOOMSDK@@@std@@V?$allocator@PAVIClosedCaptionControllerEvent@ZOOMSDK@@@4@$0A@@std@@@std@@QAE@XZ 0042a5b0 f i sdk_util.obj
 0001:000295b0       ??1?$_Tree@V?$_Tset_traits@PAVIPreMeetingServiceEvent@ZOOMSDK@@U?$less@PAVIPreMeetingServiceEvent@ZOOMSDK@@@std@@V?$allocator@PAVIPreMeetingServiceEvent@ZOOMSDK@@@4@$0A@@std@@@std@@QAE@XZ 0042a5b0 f i sdk_util.obj
 0001:000295b0       ??1?$_Tree@V?$_Tset_traits@PAVIMeetingParticipantsCtrlEvent@ZOOMSDK@@U?$less@PAVIMeetingParticipantsCtrlEvent@ZOOMSDK@@@std@@V?$allocator@PAVIMeetingParticipantsCtrlEvent@ZOOMSDK@@@4@$0A@@std@@@std@@QAE@XZ 0042a5b0 f i sdk_util.obj
 0001:000295b0       ??1?$_Tree@V?$_Tset_traits@PAVISDKInMeetingServiceMgrEvent@@U?$less@PAVISDKInMeetingServiceMgrEvent@@@std@@V?$allocator@PAVISDKInMeetingServiceMgrEvent@@@3@$0A@@std@@@std@@QAE@XZ 0042a5b0 f i sdk_util.obj
 0001:000295b0       ??1?$_Tree@V?$_Tset_traits@PAVIMeetingServiceEvent@ZOOMSDK@@U?$less@PAVIMeetingServiceEvent@ZOOMSDK@@@std@@V?$allocator@PAVIMeetingServiceEvent@ZOOMSDK@@@4@$0A@@std@@@std@@QAE@XZ 0042a5b0 f i sdk_util.obj
 0001:000295b0       ??1?$_Tree@V?$_Tset_traits@PAVIAuthServiceEvent@ZOOMSDK@@U?$less@PAVIAuthServiceEvent@ZOOMSDK@@@std@@V?$allocator@PAVIAuthServiceEvent@ZOOMSDK@@@4@$0A@@std@@@std@@QAE@XZ 0042a5b0 f i sdk_util.obj
 0001:000295b0       ??1?$_Tree@V?$_Tset_traits@PAVIMeetingVideoCtrlEvent@ZOOMSDK@@U?$less@PAVIMeetingVideoCtrlEvent@ZOOMSDK@@@std@@V?$allocator@PAVIMeetingVideoCtrlEvent@ZOOMSDK@@@4@$0A@@std@@@std@@QAE@XZ 0042a5b0 f i sdk_util.obj
 0001:000295e0       ??1?$_Tree_temp_node@V?$allocator@U?$_Tree_node@PAVIPreMeetingServiceEvent@ZOOMSDK@@PAX@std@@@std@@@std@@QAE@XZ 0042a5e0 f i sdk_util.obj
 0001:000295e0       ??1?$_Tree_temp_node@V?$allocator@U?$_Tree_node@PAVIClosedCaptionControllerEvent@ZOOMSDK@@PAX@std@@@std@@@std@@QAE@XZ 0042a5e0 f i sdk_util.obj
 0001:000295e0       ??1?$_Tree_temp_node@V?$allocator@U?$_Tree_node@PAVISDKInMeetingServiceMgrEvent@@PAX@std@@@std@@@std@@QAE@XZ 0042a5e0 f i sdk_util.obj
 0001:000295e0       ??1?$_Tree_temp_node@V?$allocator@U?$_Tree_node@PAVIMeetingChatCtrlEvent@ZOOMSDK@@PAX@std@@@std@@@std@@QAE@XZ 0042a5e0 f i sdk_util.obj
 0001:000295e0       ??1?$_Tree_temp_node@V?$allocator@U?$_Tree_node@PAVIMeetingParticipantsCtrlEvent@ZOOMSDK@@PAX@std@@@std@@@std@@QAE@XZ 0042a5e0 f i sdk_util.obj
 0001:000295e0       ??1?$_Tree_temp_node@V?$allocator@U?$_Tree_node@PAVIMeetingVideoCtrlEvent@ZOOMSDK@@PAX@std@@@std@@@std@@QAE@XZ 0042a5e0 f i sdk_util.obj
 0001:000295e0       ??1?$_Tree_temp_node@V?$allocator@U?$_Tree_node@PAVIMeetingServiceEvent@ZOOMSDK@@PAX@std@@@std@@@std@@QAE@XZ 0042a5e0 f i sdk_util.obj
 0001:000295e0       ??1?$_Tree_temp_node@V?$allocator@U?$_Tree_node@PAVIAuthServiceEvent@ZOOMSDK@@PAX@std@@@std@@@std@@QAE@XZ 0042a5e0 f i sdk_util.obj
 0001:00029680       ??1?$_Tree_temp_node_alloc@V?$allocator@U?$_Tree_node@PAVIMeetingServiceEvent@ZOOMSDK@@PAX@std@@@std@@@std@@QAE@XZ 0042a680 f i sdk_util.obj
 0001:00029680       ??1?$_Tree_temp_node_alloc@V?$allocator@U?$_Tree_node@PAVIPreMeetingServiceEvent@ZOOMSDK@@PAX@std@@@std@@@std@@QAE@XZ 0042a680 f i sdk_util.obj
 0001:00029680       ??1?$_Tree_temp_node_alloc@V?$allocator@U?$_Tree_node@PAVIMeetingParticipantsCtrlEvent@ZOOMSDK@@PAX@std@@@std@@@std@@QAE@XZ 0042a680 f i sdk_util.obj
 0001:00029680       ??1?$_Tree_temp_node_alloc@V?$allocator@U?$_Tree_node@PAVIAuthServiceEvent@ZOOMSDK@@PAX@std@@@std@@@std@@QAE@XZ 0042a680 f i sdk_util.obj
 0001:00029680       ??1?$_Tree_temp_node_alloc@V?$allocator@U?$_Tree_node@PAVIClosedCaptionControllerEvent@ZOOMSDK@@PAX@std@@@std@@@std@@QAE@XZ 0042a680 f i sdk_util.obj
 0001:00029680       ??1?$_Tree_temp_node_alloc@V?$allocator@U?$_Tree_node@PAVIMeetingChatCtrlEvent@ZOOMSDK@@PAX@std@@@std@@@std@@QAE@XZ 0042a680 f i sdk_util.obj
 0001:00029680       ??1?$_Tree_temp_node_alloc@V?$allocator@U?$_Tree_node@PAVISDKInMeetingServiceMgrEvent@@PAX@std@@@std@@@std@@QAE@XZ 0042a680 f i sdk_util.obj
 0001:00029680       ??1?$_Tree_temp_node_alloc@V?$allocator@U?$_Tree_node@PAVIMeetingVideoCtrlEvent@ZOOMSDK@@PAX@std@@@std@@@std@@QAE@XZ 0042a680 f i sdk_util.obj
 0001:000296a0       ??1?$set@PAVISDKInMeetingServiceMgrEvent@@U?$less@PAVISDKInMeetingServiceMgrEvent@@@std@@V?$allocator@PAVISDKInMeetingServiceMgrEvent@@@3@@std@@QAE@XZ 0042a6a0 f i sdk_util.obj
 0001:000296a0       ??1?$set@PAVIPreMeetingServiceEvent@ZOOMSDK@@U?$less@PAVIPreMeetingServiceEvent@ZOOMSDK@@@std@@V?$allocator@PAVIPreMeetingServiceEvent@ZOOMSDK@@@4@@std@@QAE@XZ 0042a6a0 f i sdk_util.obj
 0001:000296a0       ??1?$set@PAVIMeetingVideoCtrlEvent@ZOOMSDK@@U?$less@PAVIMeetingVideoCtrlEvent@ZOOMSDK@@@std@@V?$allocator@PAVIMeetingVideoCtrlEvent@ZOOMSDK@@@4@@std@@QAE@XZ 0042a6a0 f i sdk_util.obj
 0001:000296a0       ??1?$set@PAVIMeetingParticipantsCtrlEvent@ZOOMSDK@@U?$less@PAVIMeetingParticipantsCtrlEvent@ZOOMSDK@@@std@@V?$allocator@PAVIMeetingParticipantsCtrlEvent@ZOOMSDK@@@4@@std@@QAE@XZ 0042a6a0 f i sdk_util.obj
 0001:000296a0       ??1?$set@PAVIAuthServiceEvent@ZOOMSDK@@U?$less@PAVIAuthServiceEvent@ZOOMSDK@@@std@@V?$allocator@PAVIAuthServiceEvent@ZOOMSDK@@@4@@std@@QAE@XZ 0042a6a0 f i sdk_util.obj
 0001:000296a0       ??1?$set@PAVIMeetingServiceEvent@ZOOMSDK@@U?$less@PAVIMeetingServiceEvent@ZOOMSDK@@@std@@V?$allocator@PAVIMeetingServiceEvent@ZOOMSDK@@@4@@std@@QAE@XZ 0042a6a0 f i sdk_util.obj
 0001:000296a0       ??1?$set@PAVIMeetingChatCtrlEvent@ZOOMSDK@@U?$less@PAVIMeetingChatCtrlEvent@ZOOMSDK@@@std@@V?$allocator@PAVIMeetingChatCtrlEvent@ZOOMSDK@@@4@@std@@QAE@XZ 0042a6a0 f i sdk_util.obj
 0001:000296a0       ??1?$set@PAVIClosedCaptionControllerEvent@ZOOMSDK@@U?$less@PAVIClosedCaptionControllerEvent@ZOOMSDK@@@std@@V?$allocator@PAVIClosedCaptionControllerEvent@ZOOMSDK@@@4@@std@@QAE@XZ 0042a6a0 f i sdk_util.obj
 0001:000296c0       ??1CComAutoCriticalSection@ATL@@QAE@XZ 0042a6c0 f i sdk_util.obj
 0001:000296e0       ??1SDKInterfaceWrap@@EAE@XZ 0042a6e0 f   sdk_util.obj
 0001:000297e0       ??D?$_Tree_unchecked_const_iterator@V?$_Tree_val@U?$_Tree_simple_types@PAVIClosedCaptionControllerEvent@ZOOMSDK@@@std@@@std@@U_Iterator_base0@2@@std@@QBEABQAVIClosedCaptionControllerEvent@ZOOMSDK@@XZ 0042a7e0 f i sdk_util.obj
 0001:000297e0       ??D?$_Tree_unchecked_const_iterator@V?$_Tree_val@U?$_Tree_simple_types@PAVIPreMeetingServiceEvent@ZOOMSDK@@@std@@@std@@U_Iterator_base0@2@@std@@QBEABQAVIPreMeetingServiceEvent@ZOOMSDK@@XZ 0042a7e0 f i sdk_util.obj
 0001:000297e0       ??D?$_Tree_unchecked_const_iterator@V?$_Tree_val@U?$_Tree_simple_types@PAVIMeetingChatCtrlEvent@ZOOMSDK@@@std@@@std@@U_Iterator_base0@2@@std@@QBEABQAVIMeetingChatCtrlEvent@ZOOMSDK@@XZ 0042a7e0 f i sdk_util.obj
 0001:000297e0       ??D?$_Tree_unchecked_const_iterator@V?$_Tree_val@U?$_Tree_simple_types@PAVISDKInMeetingServiceMgrEvent@@@std@@@std@@U_Iterator_base0@2@@std@@QBEABQAVISDKInMeetingServiceMgrEvent@@XZ 0042a7e0 f i sdk_util.obj
 0001:000297e0       ??D?$_Tree_const_iterator@V?$_Tree_val@U?$_Tree_simple_types@PAVIAuthServiceEvent@ZOOMSDK@@@std@@@std@@@std@@QBEABQAVIAuthServiceEvent@ZOOMSDK@@XZ 0042a7e0 f i sdk_util.obj
 0001:000297e0       ??D?$_Tree_const_iterator@V?$_Tree_val@U?$_Tree_simple_types@PAVIMeetingChatCtrlEvent@ZOOMSDK@@@std@@@std@@@std@@QBEABQAVIMeetingChatCtrlEvent@ZOOMSDK@@XZ 0042a7e0 f i sdk_util.obj
 0001:000297e0       ??D?$_Tree_unchecked_const_iterator@V?$_Tree_val@U?$_Tree_simple_types@PAVIAuthServiceEvent@ZOOMSDK@@@std@@@std@@U_Iterator_base0@2@@std@@QBEABQAVIAuthServiceEvent@ZOOMSDK@@XZ 0042a7e0 f i sdk_util.obj
 0001:000297e0       ??D?$_Tree_const_iterator@V?$_Tree_val@U?$_Tree_simple_types@PAVISDKInMeetingServiceMgrEvent@@@std@@@std@@@std@@QBEABQAVISDKInMeetingServiceMgrEvent@@XZ 0042a7e0 f i sdk_util.obj
 0001:000297e0       ??D?$_Tree_const_iterator@V?$_Tree_val@U?$_Tree_simple_types@PAVIClosedCaptionControllerEvent@ZOOMSDK@@@std@@@std@@@std@@QBEABQAVIClosedCaptionControllerEvent@ZOOMSDK@@XZ 0042a7e0 f i sdk_util.obj
 0001:000297e0       ??D?$_Tree_const_iterator@V?$_Tree_val@U?$_Tree_simple_types@PAVIMeetingParticipantsCtrlEvent@ZOOMSDK@@@std@@@std@@@std@@QBEABQAVIMeetingParticipantsCtrlEvent@ZOOMSDK@@XZ 0042a7e0 f i sdk_util.obj
 0001:000297e0       ??D?$_Tree_const_iterator@V?$_Tree_val@U?$_Tree_simple_types@U?$pair@$$CBHW4bkItemType@@@std@@@std@@@std@@@std@@QBEABU?$pair@$$CBHW4bkItemType@@@1@XZ 0042a7e0 f i settings_ui.obj
 0001:000297e0       ??D?$_Tree_unchecked_const_iterator@V?$_Tree_val@U?$_Tree_simple_types@PAVIMeetingServiceEvent@ZOOMSDK@@@std@@@std@@U_Iterator_base0@2@@std@@QBEABQAVIMeetingServiceEvent@ZOOMSDK@@XZ 0042a7e0 f i sdk_util.obj
 0001:000297e0       ??D?$_Tree_const_iterator@V?$_Tree_val@U?$_Tree_simple_types@PAVIPreMeetingServiceEvent@ZOOMSDK@@@std@@@std@@@std@@QBEABQAVIPreMeetingServiceEvent@ZOOMSDK@@XZ 0042a7e0 f i sdk_util.obj
 0001:000297e0       ??D?$_Tree_unchecked_const_iterator@V?$_Tree_val@U?$_Tree_simple_types@PAVIMeetingParticipantsCtrlEvent@ZOOMSDK@@@std@@@std@@U_Iterator_base0@2@@std@@QBEABQAVIMeetingParticipantsCtrlEvent@ZOOMSDK@@XZ 0042a7e0 f i sdk_util.obj
 0001:000297e0       ??D?$_Tree_unchecked_const_iterator@V?$_Tree_val@U?$_Tree_simple_types@PAVIMeetingVideoCtrlEvent@ZOOMSDK@@@std@@@std@@U_Iterator_base0@2@@std@@QBEABQAVIMeetingVideoCtrlEvent@ZOOMSDK@@XZ 0042a7e0 f i sdk_util.obj
 0001:000297e0       ??D?$_Tree_const_iterator@V?$_Tree_val@U?$_Tree_simple_types@PAVIMeetingVideoCtrlEvent@ZOOMSDK@@@std@@@std@@@std@@QBEABQAVIMeetingVideoCtrlEvent@ZOOMSDK@@XZ 0042a7e0 f i sdk_util.obj
 0001:000297e0       ??D?$_Tree_const_iterator@V?$_Tree_val@U?$_Tree_simple_types@PAVIMeetingServiceEvent@ZOOMSDK@@@std@@@std@@@std@@QBEABQAVIMeetingServiceEvent@ZOOMSDK@@XZ 0042a7e0 f i sdk_util.obj
 0001:00029800       ??E?$_Tree_const_iterator@V?$_Tree_val@U?$_Tree_simple_types@PAVISDKInMeetingServiceMgrEvent@@@std@@@std@@@std@@QAE?AV01@H@Z 0042a800 f i sdk_util.obj
 0001:00029800       ??E?$_Tree_const_iterator@V?$_Tree_val@U?$_Tree_simple_types@PAVIPreMeetingServiceEvent@ZOOMSDK@@@std@@@std@@@std@@QAE?AV01@H@Z 0042a800 f i sdk_util.obj
 0001:00029800       ??E?$_Tree_const_iterator@V?$_Tree_val@U?$_Tree_simple_types@PAVIMeetingChatCtrlEvent@ZOOMSDK@@@std@@@std@@@std@@QAE?AV01@H@Z 0042a800 f i sdk_util.obj
 0001:00029800       ??E?$_Tree_const_iterator@V?$_Tree_val@U?$_Tree_simple_types@PAVIClosedCaptionControllerEvent@ZOOMSDK@@@std@@@std@@@std@@QAE?AV01@H@Z 0042a800 f i sdk_util.obj
 0001:00029800       ??E?$_Tree_const_iterator@V?$_Tree_val@U?$_Tree_simple_types@PAVIMeetingServiceEvent@ZOOMSDK@@@std@@@std@@@std@@QAE?AV01@H@Z 0042a800 f i sdk_util.obj
 0001:00029800       ??E?$_Tree_const_iterator@V?$_Tree_val@U?$_Tree_simple_types@PAVIAuthServiceEvent@ZOOMSDK@@@std@@@std@@@std@@QAE?AV01@H@Z 0042a800 f i sdk_util.obj
 0001:00029800       ??E?$_Tree_const_iterator@V?$_Tree_val@U?$_Tree_simple_types@PAVIMeetingVideoCtrlEvent@ZOOMSDK@@@std@@@std@@@std@@QAE?AV01@H@Z 0042a800 f i sdk_util.obj
 0001:00029800       ??E?$_Tree_const_iterator@V?$_Tree_val@U?$_Tree_simple_types@PAVIMeetingParticipantsCtrlEvent@ZOOMSDK@@@std@@@std@@@std@@QAE?AV01@H@Z 0042a800 f i sdk_util.obj
 0001:00029830       ??E?$_Tree_const_iterator@V?$_Tree_val@U?$_Tree_simple_types@PAVIMeetingVideoCtrlEvent@ZOOMSDK@@@std@@@std@@@std@@QAEAAV01@XZ 0042a830 f i sdk_util.obj
 0001:00029830       ??E?$_Tree_const_iterator@V?$_Tree_val@U?$_Tree_simple_types@PAVIPreMeetingServiceEvent@ZOOMSDK@@@std@@@std@@@std@@QAEAAV01@XZ 0042a830 f i sdk_util.obj
 0001:00029830       ??E?$_Tree_const_iterator@V?$_Tree_val@U?$_Tree_simple_types@PAVISDKInMeetingServiceMgrEvent@@@std@@@std@@@std@@QAEAAV01@XZ 0042a830 f i sdk_util.obj
 0001:00029830       ??E?$_Tree_const_iterator@V?$_Tree_val@U?$_Tree_simple_types@PAVIClosedCaptionControllerEvent@ZOOMSDK@@@std@@@std@@@std@@QAEAAV01@XZ 0042a830 f i sdk_util.obj
 0001:00029830       ??E?$_Tree_const_iterator@V?$_Tree_val@U?$_Tree_simple_types@PAVIMeetingChatCtrlEvent@ZOOMSDK@@@std@@@std@@@std@@QAEAAV01@XZ 0042a830 f i sdk_util.obj
 0001:00029830       ??E?$_Tree_const_iterator@V?$_Tree_val@U?$_Tree_simple_types@PAVIMeetingParticipantsCtrlEvent@ZOOMSDK@@@std@@@std@@@std@@QAEAAV01@XZ 0042a830 f i sdk_util.obj
 0001:00029830       ??E?$_Tree_const_iterator@V?$_Tree_val@U?$_Tree_simple_types@PAVIMeetingServiceEvent@ZOOMSDK@@@std@@@std@@@std@@QAEAAV01@XZ 0042a830 f i sdk_util.obj
 0001:00029830       ??E?$_Tree_const_iterator@V?$_Tree_val@U?$_Tree_simple_types@PAVIAuthServiceEvent@ZOOMSDK@@@std@@@std@@@std@@QAEAAV01@XZ 0042a830 f i sdk_util.obj
 0001:00029850       ??E?$_Tree_unchecked_const_iterator@V?$_Tree_val@U?$_Tree_simple_types@PAVIClosedCaptionControllerEvent@ZOOMSDK@@@std@@@std@@U_Iterator_base0@2@@std@@QAE?AV01@H@Z 0042a850 f i sdk_util.obj
 0001:00029850       ??E?$_Tree_unchecked_const_iterator@V?$_Tree_val@U?$_Tree_simple_types@U?$pair@$$CBHW4bkItemType@@@std@@@std@@@std@@U_Iterator_base0@2@@std@@QAE?AV01@H@Z 0042a850 f i settings_ui.obj
 0001:00029850       ??E?$_Tree_unchecked_const_iterator@V?$_Tree_val@U?$_Tree_simple_types@PAVIMeetingChatCtrlEvent@ZOOMSDK@@@std@@@std@@U_Iterator_base0@2@@std@@QAE?AV01@H@Z 0042a850 f i sdk_util.obj
 0001:00029850       ??E?$_Tree_unchecked_const_iterator@V?$_Tree_val@U?$_Tree_simple_types@PAVIAuthServiceEvent@ZOOMSDK@@@std@@@std@@U_Iterator_base0@2@@std@@QAE?AV01@H@Z 0042a850 f i sdk_util.obj
 0001:00029850       ??E?$_Tree_unchecked_const_iterator@V?$_Tree_val@U?$_Tree_simple_types@PAVIMeetingParticipantsCtrlEvent@ZOOMSDK@@@std@@@std@@U_Iterator_base0@2@@std@@QAE?AV01@H@Z 0042a850 f i sdk_util.obj
 0001:00029850       ??E?$_Tree_unchecked_const_iterator@V?$_Tree_val@U?$_Tree_simple_types@PAVISDKInMeetingServiceMgrEvent@@@std@@@std@@U_Iterator_base0@2@@std@@QAE?AV01@H@Z 0042a850 f i sdk_util.obj
 0001:00029850       ??E?$_Tree_unchecked_const_iterator@V?$_Tree_val@U?$_Tree_simple_types@PAVIPreMeetingServiceEvent@ZOOMSDK@@@std@@@std@@U_Iterator_base0@2@@std@@QAE?AV01@H@Z 0042a850 f i sdk_util.obj
 0001:00029850       ??E?$_Tree_unchecked_const_iterator@V?$_Tree_val@U?$_Tree_simple_types@PAVIMeetingServiceEvent@ZOOMSDK@@@std@@@std@@U_Iterator_base0@2@@std@@QAE?AV01@H@Z 0042a850 f i sdk_util.obj
 0001:00029880       ??E?$_Tree_unchecked_const_iterator@V?$_Tree_val@U?$_Tree_simple_types@PAVIMeetingChatCtrlEvent@ZOOMSDK@@@std@@@std@@U_Iterator_base0@2@@std@@QAEAAV01@XZ 0042a880 f i sdk_util.obj
 0001:00029880       ??E?$_Tree_unchecked_const_iterator@V?$_Tree_val@U?$_Tree_simple_types@PAVISDKInMeetingServiceMgrEvent@@@std@@@std@@U_Iterator_base0@2@@std@@QAEAAV01@XZ 0042a880 f i sdk_util.obj
 0001:00029880       ??E?$_Tree_unchecked_const_iterator@V?$_Tree_val@U?$_Tree_simple_types@PAVIMeetingVideoCtrlEvent@ZOOMSDK@@@std@@@std@@U_Iterator_base0@2@@std@@QAEAAV01@XZ 0042a880 f i sdk_util.obj
 0001:00029880       ??E?$_Tree_unchecked_const_iterator@V?$_Tree_val@U?$_Tree_simple_types@U?$pair@$$CBIPAVIUserInfo@ZOOMSDK@@@std@@@std@@@std@@U_Iterator_base0@2@@std@@QAEAAV01@XZ 0042a880 f i user_manager.obj
 0001:00029880       ??E?$_Tree_unchecked_const_iterator@V?$_Tree_val@U?$_Tree_simple_types@PAVIMeetingServiceEvent@ZOOMSDK@@@std@@@std@@U_Iterator_base0@2@@std@@QAEAAV01@XZ 0042a880 f i sdk_util.obj
 0001:00029880       ??E?$_Tree_unchecked_const_iterator@V?$_Tree_val@U?$_Tree_simple_types@PAVIMeetingParticipantsCtrlEvent@ZOOMSDK@@@std@@@std@@U_Iterator_base0@2@@std@@QAEAAV01@XZ 0042a880 f i sdk_util.obj
 0001:00029880       ??E?$_Tree_unchecked_const_iterator@V?$_Tree_val@U?$_Tree_simple_types@U?$pair@$$CBHW4bkItemType@@@std@@@std@@@std@@U_Iterator_base0@2@@std@@QAEAAV01@XZ 0042a880 f i settings_ui.obj
 0001:00029880       ??E?$_Tree_unchecked_const_iterator@V?$_Tree_val@U?$_Tree_simple_types@PAVIClosedCaptionControllerEvent@ZOOMSDK@@@std@@@std@@U_Iterator_base0@2@@std@@QAEAAV01@XZ 0042a880 f i sdk_util.obj
 0001:00029880       ??E?$_Tree_unchecked_const_iterator@V?$_Tree_val@U?$_Tree_simple_types@PAVIAuthServiceEvent@ZOOMSDK@@@std@@@std@@U_Iterator_base0@2@@std@@QAEAAV01@XZ 0042a880 f i sdk_util.obj
 0001:00029880       ??E?$_Tree_unchecked_const_iterator@V?$_Tree_val@U?$_Tree_simple_types@PAVIPreMeetingServiceEvent@ZOOMSDK@@@std@@@std@@U_Iterator_base0@2@@std@@QAEAAV01@XZ 0042a880 f i sdk_util.obj
 0001:000298f0       ??F?$_Tree_unchecked_const_iterator@V?$_Tree_val@U?$_Tree_simple_types@PAVIMeetingVideoCtrlEvent@ZOOMSDK@@@std@@@std@@U_Iterator_base0@2@@std@@QAEAAV01@XZ 0042a8f0 f i sdk_util.obj
 0001:000298f0       ??F?$_Tree_unchecked_const_iterator@V?$_Tree_val@U?$_Tree_simple_types@PAVIMeetingChatCtrlEvent@ZOOMSDK@@@std@@@std@@U_Iterator_base0@2@@std@@QAEAAV01@XZ 0042a8f0 f i sdk_util.obj
 0001:000298f0       ??F?$_Tree_unchecked_const_iterator@V?$_Tree_val@U?$_Tree_simple_types@PAVIClosedCaptionControllerEvent@ZOOMSDK@@@std@@@std@@U_Iterator_base0@2@@std@@QAEAAV01@XZ 0042a8f0 f i sdk_util.obj
 0001:000298f0       ??F?$_Tree_unchecked_const_iterator@V?$_Tree_val@U?$_Tree_simple_types@PAVIAuthServiceEvent@ZOOMSDK@@@std@@@std@@U_Iterator_base0@2@@std@@QAEAAV01@XZ 0042a8f0 f i sdk_util.obj
 0001:000298f0       ??F?$_Tree_unchecked_const_iterator@V?$_Tree_val@U?$_Tree_simple_types@PAVIMeetingServiceEvent@ZOOMSDK@@@std@@@std@@U_Iterator_base0@2@@std@@QAEAAV01@XZ 0042a8f0 f i sdk_util.obj
 0001:000298f0       ??F?$_Tree_unchecked_const_iterator@V?$_Tree_val@U?$_Tree_simple_types@PAVISDKInMeetingServiceMgrEvent@@@std@@@std@@U_Iterator_base0@2@@std@@QAEAAV01@XZ 0042a8f0 f i sdk_util.obj
 0001:000298f0       ??F?$_Tree_unchecked_const_iterator@V?$_Tree_val@U?$_Tree_simple_types@PAVIPreMeetingServiceEvent@ZOOMSDK@@@std@@@std@@U_Iterator_base0@2@@std@@QAEAAV01@XZ 0042a8f0 f i sdk_util.obj
 0001:000298f0       ??F?$_Tree_unchecked_const_iterator@V?$_Tree_val@U?$_Tree_simple_types@PAVIMeetingParticipantsCtrlEvent@ZOOMSDK@@@std@@@std@@U_Iterator_base0@2@@std@@QAEAAV01@XZ 0042a8f0 f i sdk_util.obj
 0001:00029990       ??R?$less@PAVIMeetingServiceEvent@ZOOMSDK@@@std@@QBE_NABQAVIMeetingServiceEvent@ZOOMSDK@@0@Z 0042a990 f i sdk_util.obj
 0001:00029990       ??R?$less@I@std@@QBE_NABI0@Z 0042a990 f i user_manager.obj
 0001:00029990       ??R?$less@PAVIAuthServiceEvent@ZOOMSDK@@@std@@QBE_NABQAVIAuthServiceEvent@ZOOMSDK@@0@Z 0042a990 f i sdk_util.obj
 0001:00029990       ??R?$less@PAVIPreMeetingServiceEvent@ZOOMSDK@@@std@@QBE_NABQAVIPreMeetingServiceEvent@ZOOMSDK@@0@Z 0042a990 f i sdk_util.obj
 0001:00029990       ??R?$less@PAVISDKInMeetingServiceMgrEvent@@@std@@QBE_NABQAVISDKInMeetingServiceMgrEvent@@0@Z 0042a990 f i sdk_util.obj
 0001:00029990       ??R?$less@PAVIMeetingParticipantsCtrlEvent@ZOOMSDK@@@std@@QBE_NABQAVIMeetingParticipantsCtrlEvent@ZOOMSDK@@0@Z 0042a990 f i sdk_util.obj
 0001:00029990       ??R?$less@PAVIMeetingChatCtrlEvent@ZOOMSDK@@@std@@QBE_NABQAVIMeetingChatCtrlEvent@ZOOMSDK@@0@Z 0042a990 f i sdk_util.obj
 0001:00029990       ??R?$less@PAVIMeetingVideoCtrlEvent@ZOOMSDK@@@std@@QBE_NABQAVIMeetingVideoCtrlEvent@ZOOMSDK@@0@Z 0042a990 f i sdk_util.obj
 0001:00029990       ??R?$less@PAVIClosedCaptionControllerEvent@ZOOMSDK@@@std@@QBE_NABQAVIClosedCaptionControllerEvent@ZOOMSDK@@0@Z 0042a990 f i sdk_util.obj
 0001:000299c0       ??_G?$EventSinkPool@VIAuthServiceEvent@ZOOMSDK@@@@UAEPAXI@Z 0042a9c0 f i sdk_util.obj
 0001:000299c0       ??_E?$EventSinkPool@VIAuthServiceEvent@ZOOMSDK@@@@UAEPAXI@Z 0042a9c0 f i sdk_util.obj
 0001:000299f0       ??_G?$EventSinkPool@VIClosedCaptionControllerEvent@ZOOMSDK@@@@UAEPAXI@Z 0042a9f0 f i sdk_util.obj
 0001:000299f0       ??_E?$EventSinkPool@VIClosedCaptionControllerEvent@ZOOMSDK@@@@UAEPAXI@Z 0042a9f0 f i sdk_util.obj
 0001:00029a20       ??_G?$EventSinkPool@VIMeetingChatCtrlEvent@ZOOMSDK@@@@UAEPAXI@Z 0042aa20 f i sdk_util.obj
 0001:00029a20       ??_E?$EventSinkPool@VIMeetingChatCtrlEvent@ZOOMSDK@@@@UAEPAXI@Z 0042aa20 f i sdk_util.obj
 0001:00029a50       ??_E?$EventSinkPool@VIMeetingParticipantsCtrlEvent@ZOOMSDK@@@@UAEPAXI@Z 0042aa50 f i sdk_util.obj
 0001:00029a50       ??_G?$EventSinkPool@VIMeetingParticipantsCtrlEvent@ZOOMSDK@@@@UAEPAXI@Z 0042aa50 f i sdk_util.obj
 0001:00029a80       ??_E?$EventSinkPool@VIMeetingServiceEvent@ZOOMSDK@@@@UAEPAXI@Z 0042aa80 f i sdk_util.obj
 0001:00029a80       ??_G?$EventSinkPool@VIMeetingServiceEvent@ZOOMSDK@@@@UAEPAXI@Z 0042aa80 f i sdk_util.obj
 0001:00029ab0       ??_E?$EventSinkPool@VIMeetingVideoCtrlEvent@ZOOMSDK@@@@UAEPAXI@Z 0042aab0 f i sdk_util.obj
 0001:00029ab0       ??_G?$EventSinkPool@VIMeetingVideoCtrlEvent@ZOOMSDK@@@@UAEPAXI@Z 0042aab0 f i sdk_util.obj
 0001:00029ae0       ??_G?$EventSinkPool@VIPreMeetingServiceEvent@ZOOMSDK@@@@UAEPAXI@Z 0042aae0 f i sdk_util.obj
 0001:00029ae0       ??_E?$EventSinkPool@VIPreMeetingServiceEvent@ZOOMSDK@@@@UAEPAXI@Z 0042aae0 f i sdk_util.obj
 0001:00029b10       ??_G?$EventSinkPool@VISDKInMeetingServiceMgrEvent@@@@UAEPAXI@Z 0042ab10 f i sdk_util.obj
 0001:00029b10       ??_E?$EventSinkPool@VISDKInMeetingServiceMgrEvent@@@@UAEPAXI@Z 0042ab10 f i sdk_util.obj
 0001:00029b40       ??_ESDKInterfaceWrap@@EAEPAXI@Z 0042ab40 f i sdk_util.obj
 0001:00029b40       ??_GSDKInterfaceWrap@@EAEPAXI@Z 0042ab40 f i sdk_util.obj
 0001:00029b80       ?ActiveWindowToTop@@YAXPAUHWND__@@H@Z 0042ab80 f   sdk_util.obj
 0001:00029c80       ?AddListener@?$EventSinkPool@VIAuthServiceEvent@ZOOMSDK@@@@QAEXPAVIAuthServiceEvent@ZOOMSDK@@@Z 0042ac80 f i sdk_util.obj
 0001:00029c80       ?AddListener@?$EventSinkPool@VIMeetingServiceEvent@ZOOMSDK@@@@QAEXPAVIMeetingServiceEvent@ZOOMSDK@@@Z 0042ac80 f i sdk_util.obj
 0001:00029c80       ?AddListener@?$EventSinkPool@VIMeetingVideoCtrlEvent@ZOOMSDK@@@@QAEXPAVIMeetingVideoCtrlEvent@ZOOMSDK@@@Z 0042ac80 f i sdk_util.obj
 0001:00029c80       ?AddListener@?$EventSinkPool@VIMeetingParticipantsCtrlEvent@ZOOMSDK@@@@QAEXPAVIMeetingParticipantsCtrlEvent@ZOOMSDK@@@Z 0042ac80 f i sdk_util.obj
 0001:00029c80       ?AddListener@?$EventSinkPool@VIMeetingChatCtrlEvent@ZOOMSDK@@@@QAEXPAVIMeetingChatCtrlEvent@ZOOMSDK@@@Z 0042ac80 f i sdk_util.obj
 0001:00029c80       ?AddListener@?$EventSinkPool@VISDKInMeetingServiceMgrEvent@@@@QAEXPAVISDKInMeetingServiceMgrEvent@@@Z 0042ac80 f i sdk_util.obj
 0001:00029c80       ?AddListener@?$EventSinkPool@VIClosedCaptionControllerEvent@ZOOMSDK@@@@QAEXPAVIClosedCaptionControllerEvent@ZOOMSDK@@@Z 0042ac80 f i sdk_util.obj
 0001:00029c80       ?AddListener@?$EventSinkPool@VIPreMeetingServiceEvent@ZOOMSDK@@@@QAEXPAVIPreMeetingServiceEvent@ZOOMSDK@@@Z 0042ac80 f i sdk_util.obj
 0001:00029cc0       ?AtlThrowImpl@ATL@@YGXJ@Z  0042acc0 f i sdk_util.obj
 0001:00029cf0       ?Cleanup@SDKInterfaceWrap@@QAE?AW4SDKError@ZOOMSDK@@XZ 0042acf0 f   sdk_util.obj
 0001:00029e20       ?GetAuthService@SDKInterfaceWrap@@QAEPAVIAuthService@ZOOMSDK@@XZ 0042ae20 f   sdk_util.obj
 0001:00029e90       ?GetCloseCaptionController@SDKInterfaceWrap@@QAEPAVIClosedCaptionController@ZOOMSDK@@XZ 0042ae90 f   sdk_util.obj
 0001:00029f30       ?GetCustomizedAnnotationController@SDKInterfaceWrap@@QAEPAVICustomizedAnnotationController@ZOOMSDK@@PAVICustomizedShareRender@3@@Z 0042af30 f   sdk_util.obj
 0001:00029fd0       ?GetInst@SDKInterfaceWrap@@SAAAV1@XZ 0042afd0 f   sdk_util.obj
 0001:0002a070       ?GetLastError@SDKInterfaceWrap@@QAEPBVIZoomLastError@ZOOMSDK@@XZ 0042b070 f   sdk_util.obj
 0001:0002a0b0       ?GetMeetingChatController@SDKInterfaceWrap@@QAEPAVIMeetingChatController@ZOOMSDK@@XZ 0042b0b0 f   sdk_util.obj
 0001:0002a150       ?GetMeetingParticipantsController@SDKInterfaceWrap@@QAEPAVIMeetingParticipantsController@ZOOMSDK@@XZ 0042b150 f   sdk_util.obj
 0001:0002a1f0       ?GetMeetingRemoteController@SDKInterfaceWrap@@QAEPAVIMeetingRemoteController@ZOOMSDK@@XZ 0042b1f0 f   sdk_util.obj
 0001:0002a240       ?GetMeetingService@SDKInterfaceWrap@@QAEPAVIMeetingService@ZOOMSDK@@XZ 0042b240 f   sdk_util.obj
 0001:0002a2e0       ?GetMeetingVideoController@SDKInterfaceWrap@@QAEPAVIMeetingVideoController@ZOOMSDK@@XZ 0042b2e0 f   sdk_util.obj
 0001:0002a380       ?GetNetworkConnectionHelper@SDKInterfaceWrap@@QAEPAVINetworkConnectionHelper@ZOOMSDK@@XZ 0042b380 f   sdk_util.obj
 0001:0002a3c0       ?GetPreMeetingService@SDKInterfaceWrap@@QAEPAVIPreMeetingService@ZOOMSDK@@XZ 0042b3c0 f   sdk_util.obj
 0001:0002a450       ?GetSettingService@SDKInterfaceWrap@@QAEPAVISettingService@ZOOMSDK@@XZ 0042b450 f   sdk_util.obj
 0001:0002a490       ?Init@SDKInterfaceWrap@@QAE?AW4SDKError@ZOOMSDK@@AAUtagInitParam@3@@Z 0042b490 f   sdk_util.obj
 0001:0002a510       ?ListenAuthServiceEvent@SDKInterfaceWrap@@QAEXPAVIAuthServiceEvent@ZOOMSDK@@@Z 0042b510 f   sdk_util.obj
 0001:0002a540       ?ListenChatServiceMgrEvent@SDKInterfaceWrap@@QAEXPAVIMeetingChatCtrlEvent@ZOOMSDK@@@Z 0042b540 f   sdk_util.obj
 0001:0002a560       ?ListenCloseCaptionEvent@SDKInterfaceWrap@@QAEXPAVIClosedCaptionControllerEvent@ZOOMSDK@@@Z 0042b560 f   sdk_util.obj
 0001:0002a580       ?ListenInMeetingServiceMgrEvent@SDKInterfaceWrap@@QAEXPAVISDKInMeetingServiceMgrEvent@@@Z 0042b580 f   sdk_util.obj
 0001:0002a5a0       ?ListenMeetingParticipantsCtrEvent@SDKInterfaceWrap@@QAEXPAVIMeetingParticipantsCtrlEvent@ZOOMSDK@@@Z 0042b5a0 f   sdk_util.obj
 0001:0002a5c0       ?ListenMeetingServiceEvent@SDKInterfaceWrap@@QAEXPAVIMeetingServiceEvent@ZOOMSDK@@@Z 0042b5c0 f   sdk_util.obj
 0001:0002a5e0       ?ListenMeetingVideoCtrEvent@SDKInterfaceWrap@@QAEXPAVIMeetingVideoCtrlEvent@ZOOMSDK@@@Z 0042b5e0 f   sdk_util.obj
 0001:0002a600       ?ListenPremeetingServiceEvent@SDKInterfaceWrap@@QAEXPAVIPreMeetingServiceEvent@ZOOMSDK@@@Z 0042b600 f   sdk_util.obj
 0001:0002a620       ?Lock@CComCriticalSection@ATL@@QAEJXZ 0042b620 f i sdk_util.obj
 0001:0002a640       ?OnMicSpkVolumnChanged@SDKInterfaceWrap@@UAEXII@Z 0042b640 f i sdk_util.obj
 0001:0002a760       ?OnNoAudioDeviceIsUseful@SDKInterfaceWrap@@UAEX_N@Z 0042b760 f i sdk_util.obj
 0001:0002a870       ?OnNoVideoDeviceIsUseful@SDKInterfaceWrap@@UAEXXZ 0042b870 f i sdk_util.obj
 0001:0002a980       ?OnNoWindowToShowPreview@SDKInterfaceWrap@@UAEXXZ 0042b980 f i sdk_util.obj
 0001:0002aa90       ?OnSelectedAudioDeviceIsChanged@SDKInterfaceWrap@@UAEXXZ 0042ba90 f i sdk_util.obj
 0001:0002aba0       ?OnSelectedVideoDeviceIsChanged@SDKInterfaceWrap@@UAEXXZ 0042bba0 f i sdk_util.obj
 0001:0002acb0       ?OnTestMicStatusChanged@SDKInterfaceWrap@@UAEXW4SDK_TESTMIC_STATUS@ZOOMSDK@@AA_N@Z 0042bcb0 f i sdk_util.obj
 0001:0002add0       ?RemoveListener@?$EventSinkPool@VIPreMeetingServiceEvent@ZOOMSDK@@@@QAEXPAVIPreMeetingServiceEvent@ZOOMSDK@@@Z 0042bdd0 f i sdk_util.obj
 0001:0002add0       ?RemoveListener@?$EventSinkPool@VISDKInMeetingServiceMgrEvent@@@@QAEXPAVISDKInMeetingServiceMgrEvent@@@Z 0042bdd0 f i sdk_util.obj
 0001:0002add0       ?RemoveListener@?$EventSinkPool@VIMeetingChatCtrlEvent@ZOOMSDK@@@@QAEXPAVIMeetingChatCtrlEvent@ZOOMSDK@@@Z 0042bdd0 f i sdk_util.obj
 0001:0002add0       ?RemoveListener@?$EventSinkPool@VIClosedCaptionControllerEvent@ZOOMSDK@@@@QAEXPAVIClosedCaptionControllerEvent@ZOOMSDK@@@Z 0042bdd0 f i sdk_util.obj
 0001:0002add0       ?RemoveListener@?$EventSinkPool@VIAuthServiceEvent@ZOOMSDK@@@@QAEXPAVIAuthServiceEvent@ZOOMSDK@@@Z 0042bdd0 f i sdk_util.obj
 0001:0002add0       ?RemoveListener@?$EventSinkPool@VIMeetingServiceEvent@ZOOMSDK@@@@QAEXPAVIMeetingServiceEvent@ZOOMSDK@@@Z 0042bdd0 f i sdk_util.obj
 0001:0002add0       ?RemoveListener@?$EventSinkPool@VIMeetingParticipantsCtrlEvent@ZOOMSDK@@@@QAEXPAVIMeetingParticipantsCtrlEvent@ZOOMSDK@@@Z 0042bdd0 f i sdk_util.obj
 0001:0002ae10       ?SetDataToClipboard@@YA_NPB_WPAUHWND__@@@Z 0042be10 f   sdk_util.obj
 0001:0002af00       ?UnListenAuthServiceEvent@SDKInterfaceWrap@@QAEXPAVIAuthServiceEvent@ZOOMSDK@@@Z 0042bf00 f   sdk_util.obj
 0001:0002af20       ?UnListenChatServiceMgrEvent@SDKInterfaceWrap@@QAEXPAVIMeetingChatCtrlEvent@ZOOMSDK@@@Z 0042bf20 f   sdk_util.obj
 0001:0002af40       ?UnListenCloseCaptionEvent@SDKInterfaceWrap@@QAEXPAVIClosedCaptionControllerEvent@ZOOMSDK@@@Z 0042bf40 f   sdk_util.obj
 0001:0002af60       ?UnListenInMeetingServiceMgrEvent@SDKInterfaceWrap@@QAEXPAVISDKInMeetingServiceMgrEvent@@@Z 0042bf60 f   sdk_util.obj
 0001:0002af80       ?UnListenMeetingParticipantsCtrEvent@SDKInterfaceWrap@@QAEXPAVIMeetingParticipantsCtrlEvent@ZOOMSDK@@@Z 0042bf80 f   sdk_util.obj
 0001:0002afa0       ?UnListenMeetingServiceEvent@SDKInterfaceWrap@@QAEXPAVIMeetingServiceEvent@ZOOMSDK@@@Z 0042bfa0 f   sdk_util.obj
 0001:0002afc0       ?UnListenPremeetingServiceEvent@SDKInterfaceWrap@@QAEXPAVIPreMeetingServiceEvent@ZOOMSDK@@@Z 0042bfc0 f   sdk_util.obj
 0001:0002afe0       ?Unlock@CComCriticalSection@ATL@@QAEJXZ 0042bfe0 f i sdk_util.obj
 0001:0002b000       ?_Alloc_sentinel_and_proxy@?$_Tree@V?$_Tset_traits@PAVISDKInMeetingServiceMgrEvent@@U?$less@PAVISDKInMeetingServiceMgrEvent@@@std@@V?$allocator@PAVISDKInMeetingServiceMgrEvent@@@3@$0A@@std@@@std@@IAEXXZ 0042c000 f i sdk_util.obj
 0001:0002b000       ?_Alloc_sentinel_and_proxy@?$_Tree@V?$_Tset_traits@PAVIPreMeetingServiceEvent@ZOOMSDK@@U?$less@PAVIPreMeetingServiceEvent@ZOOMSDK@@@std@@V?$allocator@PAVIPreMeetingServiceEvent@ZOOMSDK@@@4@$0A@@std@@@std@@IAEXXZ 0042c000 f i sdk_util.obj
 0001:0002b000       ?_Alloc_sentinel_and_proxy@?$_Tree@V?$_Tset_traits@PAVIMeetingServiceEvent@ZOOMSDK@@U?$less@PAVIMeetingServiceEvent@ZOOMSDK@@@std@@V?$allocator@PAVIMeetingServiceEvent@ZOOMSDK@@@4@$0A@@std@@@std@@IAEXXZ 0042c000 f i sdk_util.obj
 0001:0002b000       ?_Alloc_sentinel_and_proxy@?$_Tree@V?$_Tset_traits@PAVIMeetingChatCtrlEvent@ZOOMSDK@@U?$less@PAVIMeetingChatCtrlEvent@ZOOMSDK@@@std@@V?$allocator@PAVIMeetingChatCtrlEvent@ZOOMSDK@@@4@$0A@@std@@@std@@IAEXXZ 0042c000 f i sdk_util.obj
 0001:0002b000       ?_Alloc_sentinel_and_proxy@?$_Tree@V?$_Tset_traits@PAVIAuthServiceEvent@ZOOMSDK@@U?$less@PAVIAuthServiceEvent@ZOOMSDK@@@std@@V?$allocator@PAVIAuthServiceEvent@ZOOMSDK@@@4@$0A@@std@@@std@@IAEXXZ 0042c000 f i sdk_util.obj
 0001:0002b000       ?_Alloc_sentinel_and_proxy@?$_Tree@V?$_Tset_traits@PAVIMeetingParticipantsCtrlEvent@ZOOMSDK@@U?$less@PAVIMeetingParticipantsCtrlEvent@ZOOMSDK@@@std@@V?$allocator@PAVIMeetingParticipantsCtrlEvent@ZOOMSDK@@@4@$0A@@std@@@std@@IAEXXZ 0042c000 f i sdk_util.obj
 0001:0002b000       ?_Alloc_sentinel_and_proxy@?$_Tree@V?$_Tset_traits@PAVIClosedCaptionControllerEvent@ZOOMSDK@@U?$less@PAVIClosedCaptionControllerEvent@ZOOMSDK@@@std@@V?$allocator@PAVIClosedCaptionControllerEvent@ZOOMSDK@@@4@$0A@@std@@@std@@IAEXXZ 0042c000 f i sdk_util.obj
 0001:0002b000       ?_Alloc_sentinel_and_proxy@?$_Tree@V?$_Tset_traits@PAVIMeetingVideoCtrlEvent@ZOOMSDK@@U?$less@PAVIMeetingVideoCtrlEvent@ZOOMSDK@@@std@@V?$allocator@PAVIMeetingVideoCtrlEvent@ZOOMSDK@@@4@$0A@@std@@@std@@IAEXXZ 0042c000 f i sdk_util.obj
 0001:0002b050       ?_Allocate@?$_Alloc_construct_ptr@V?$allocator@U?$_Tree_node@PAVIMeetingChatCtrlEvent@ZOOMSDK@@PAX@std@@@std@@@std@@QAEXXZ 0042c050 f i sdk_util.obj
 0001:0002b050       ?_Allocate@?$_Alloc_construct_ptr@V?$allocator@U?$_Tree_node@PAVIPreMeetingServiceEvent@ZOOMSDK@@PAX@std@@@std@@@std@@QAEXXZ 0042c050 f i sdk_util.obj
 0001:0002b050       ?_Allocate@?$_Alloc_construct_ptr@V?$allocator@U?$_Tree_node@PAVISDKInMeetingServiceMgrEvent@@PAX@std@@@std@@@std@@QAEXXZ 0042c050 f i sdk_util.obj
 0001:0002b050       ?_Allocate@?$_Alloc_construct_ptr@V?$allocator@U?$_Tree_node@PAVIMeetingServiceEvent@ZOOMSDK@@PAX@std@@@std@@@std@@QAEXXZ 0042c050 f i sdk_util.obj
 0001:0002b050       ?_Allocate@?$_Alloc_construct_ptr@V?$allocator@U?$_Tree_node@PAVIMeetingVideoCtrlEvent@ZOOMSDK@@PAX@std@@@std@@@std@@QAEXXZ 0042c050 f i sdk_util.obj
 0001:0002b050       ?_Allocate@?$_Alloc_construct_ptr@V?$allocator@U?$_Tree_node@PAVIClosedCaptionControllerEvent@ZOOMSDK@@PAX@std@@@std@@@std@@QAEXXZ 0042c050 f i sdk_util.obj
 0001:0002b050       ?_Allocate@?$_Alloc_construct_ptr@V?$allocator@U?$_Tree_node@PAVIMeetingParticipantsCtrlEvent@ZOOMSDK@@PAX@std@@@std@@@std@@QAEXXZ 0042c050 f i sdk_util.obj
 0001:0002b050       ?_Allocate@?$_Alloc_construct_ptr@V?$allocator@U?$_Tree_node@PAVIAuthServiceEvent@ZOOMSDK@@PAX@std@@@std@@@std@@QAEXXZ 0042c050 f i sdk_util.obj
 0001:0002b080       ?_Check_grow_by_1@?$_Tree@V?$_Tset_traits@PAVIMeetingVideoCtrlEvent@ZOOMSDK@@U?$less@PAVIMeetingVideoCtrlEvent@ZOOMSDK@@@std@@V?$allocator@PAVIMeetingVideoCtrlEvent@ZOOMSDK@@@4@$0A@@std@@@std@@IAEXXZ 0042c080 f i sdk_util.obj
 0001:0002b080       ?_Check_grow_by_1@?$_Tree@V?$_Tset_traits@PAVIAuthServiceEvent@ZOOMSDK@@U?$less@PAVIAuthServiceEvent@ZOOMSDK@@@std@@V?$allocator@PAVIAuthServiceEvent@ZOOMSDK@@@4@$0A@@std@@@std@@IAEXXZ 0042c080 f i sdk_util.obj
 0001:0002b080       ?_Check_grow_by_1@?$_Tree@V?$_Tset_traits@PAVIPreMeetingServiceEvent@ZOOMSDK@@U?$less@PAVIPreMeetingServiceEvent@ZOOMSDK@@@std@@V?$allocator@PAVIPreMeetingServiceEvent@ZOOMSDK@@@4@$0A@@std@@@std@@IAEXXZ 0042c080 f i sdk_util.obj
 0001:0002b080       ?_Check_grow_by_1@?$_Tree@V?$_Tset_traits@PAVIClosedCaptionControllerEvent@ZOOMSDK@@U?$less@PAVIClosedCaptionControllerEvent@ZOOMSDK@@@std@@V?$allocator@PAVIClosedCaptionControllerEvent@ZOOMSDK@@@4@$0A@@std@@@std@@IAEXXZ 0042c080 f i sdk_util.obj
 0001:0002b080       ?_Check_grow_by_1@?$_Tree@V?$_Tset_traits@PAVIMeetingParticipantsCtrlEvent@ZOOMSDK@@U?$less@PAVIMeetingParticipantsCtrlEvent@ZOOMSDK@@@std@@V?$allocator@PAVIMeetingParticipantsCtrlEvent@ZOOMSDK@@@4@$0A@@std@@@std@@IAEXXZ 0042c080 f i sdk_util.obj
 0001:0002b080       ?_Check_grow_by_1@?$_Tree@V?$_Tset_traits@PAVIMeetingServiceEvent@ZOOMSDK@@U?$less@PAVIMeetingServiceEvent@ZOOMSDK@@@std@@V?$allocator@PAVIMeetingServiceEvent@ZOOMSDK@@@4@$0A@@std@@@std@@IAEXXZ 0042c080 f i sdk_util.obj
 0001:0002b080       ?_Check_grow_by_1@?$_Tree@V?$_Tset_traits@PAVIMeetingChatCtrlEvent@ZOOMSDK@@U?$less@PAVIMeetingChatCtrlEvent@ZOOMSDK@@@std@@V?$allocator@PAVIMeetingChatCtrlEvent@ZOOMSDK@@@4@$0A@@std@@@std@@IAEXXZ 0042c080 f i sdk_util.obj
 0001:0002b080       ?_Check_grow_by_1@?$_Tree@V?$_Tset_traits@PAVISDKInMeetingServiceMgrEvent@@U?$less@PAVISDKInMeetingServiceMgrEvent@@@std@@V?$allocator@PAVISDKInMeetingServiceMgrEvent@@@3@$0A@@std@@@std@@IAEXXZ 0042c080 f i sdk_util.obj
 0001:0002b0b0       ?_Erase_unchecked@?$_Tree@V?$_Tset_traits@PAVIPreMeetingServiceEvent@ZOOMSDK@@U?$less@PAVIPreMeetingServiceEvent@ZOOMSDK@@@std@@V?$allocator@PAVIPreMeetingServiceEvent@ZOOMSDK@@@4@$0A@@std@@@std@@AAEPAU?$_Tree_node@PAVIPreMeetingServiceEvent@ZOOMSDK@@PAX@2@V?$_Tree_unchecked_const_iterator@V?$_Tree_val@U?$_Tree_simple_types@PAVIPreMeetingServiceEvent@ZOOMSDK@@@std@@@std@@U_Iterator_base0@2@@2@0@Z 0042c0b0 f i sdk_util.obj
 0001:0002b0b0       ?_Erase_unchecked@?$_Tree@V?$_Tset_traits@PAVIMeetingChatCtrlEvent@ZOOMSDK@@U?$less@PAVIMeetingChatCtrlEvent@ZOOMSDK@@@std@@V?$allocator@PAVIMeetingChatCtrlEvent@ZOOMSDK@@@4@$0A@@std@@@std@@AAEPAU?$_Tree_node@PAVIMeetingChatCtrlEvent@ZOOMSDK@@PAX@2@V?$_Tree_unchecked_const_iterator@V?$_Tree_val@U?$_Tree_simple_types@PAVIMeetingChatCtrlEvent@ZOOMSDK@@@std@@@std@@U_Iterator_base0@2@@2@0@Z 0042c0b0 f i sdk_util.obj
 0001:0002b0b0       ?_Erase_unchecked@?$_Tree@V?$_Tset_traits@PAVIClosedCaptionControllerEvent@ZOOMSDK@@U?$less@PAVIClosedCaptionControllerEvent@ZOOMSDK@@@std@@V?$allocator@PAVIClosedCaptionControllerEvent@ZOOMSDK@@@4@$0A@@std@@@std@@AAEPAU?$_Tree_node@PAVIClosedCaptionControllerEvent@ZOOMSDK@@PAX@2@V?$_Tree_unchecked_const_iterator@V?$_Tree_val@U?$_Tree_simple_types@PAVIClosedCaptionControllerEvent@ZOOMSDK@@@std@@@std@@U_Iterator_base0@2@@2@0@Z 0042c0b0 f i sdk_util.obj
 0001:0002b0b0       ?_Erase_unchecked@?$_Tree@V?$_Tset_traits@PAVISDKInMeetingServiceMgrEvent@@U?$less@PAVISDKInMeetingServiceMgrEvent@@@std@@V?$allocator@PAVISDKInMeetingServiceMgrEvent@@@3@$0A@@std@@@std@@AAEPAU?$_Tree_node@PAVISDKInMeetingServiceMgrEvent@@PAX@2@V?$_Tree_unchecked_const_iterator@V?$_Tree_val@U?$_Tree_simple_types@PAVISDKInMeetingServiceMgrEvent@@@std@@@std@@U_Iterator_base0@2@@2@0@Z 0042c0b0 f i sdk_util.obj
 0001:0002b0b0       ?_Erase_unchecked@?$_Tree@V?$_Tset_traits@PAVIMeetingServiceEvent@ZOOMSDK@@U?$less@PAVIMeetingServiceEvent@ZOOMSDK@@@std@@V?$allocator@PAVIMeetingServiceEvent@ZOOMSDK@@@4@$0A@@std@@@std@@AAEPAU?$_Tree_node@PAVIMeetingServiceEvent@ZOOMSDK@@PAX@2@V?$_Tree_unchecked_const_iterator@V?$_Tree_val@U?$_Tree_simple_types@PAVIMeetingServiceEvent@ZOOMSDK@@@std@@@std@@U_Iterator_base0@2@@2@0@Z 0042c0b0 f i sdk_util.obj
 0001:0002b0b0       ?_Erase_unchecked@?$_Tree@V?$_Tset_traits@PAVIMeetingParticipantsCtrlEvent@ZOOMSDK@@U?$less@PAVIMeetingParticipantsCtrlEvent@ZOOMSDK@@@std@@V?$allocator@PAVIMeetingParticipantsCtrlEvent@ZOOMSDK@@@4@$0A@@std@@@std@@AAEPAU?$_Tree_node@PAVIMeetingParticipantsCtrlEvent@ZOOMSDK@@PAX@2@V?$_Tree_unchecked_const_iterator@V?$_Tree_val@U?$_Tree_simple_types@PAVIMeetingParticipantsCtrlEvent@ZOOMSDK@@@std@@@std@@U_Iterator_base0@2@@2@0@Z 0042c0b0 f i sdk_util.obj
 0001:0002b0b0       ?_Erase_unchecked@?$_Tree@V?$_Tset_traits@PAVIAuthServiceEvent@ZOOMSDK@@U?$less@PAVIAuthServiceEvent@ZOOMSDK@@@std@@V?$allocator@PAVIAuthServiceEvent@ZOOMSDK@@@4@$0A@@std@@@std@@AAEPAU?$_Tree_node@PAVIAuthServiceEvent@ZOOMSDK@@PAX@2@V?$_Tree_unchecked_const_iterator@V?$_Tree_val@U?$_Tree_simple_types@PAVIAuthServiceEvent@ZOOMSDK@@@std@@@std@@U_Iterator_base0@2@@2@0@Z 0042c0b0 f i sdk_util.obj
 0001:0002b130       ?_Erase_unchecked@?$_Tree@V?$_Tset_traits@PAVIPreMeetingServiceEvent@ZOOMSDK@@U?$less@PAVIPreMeetingServiceEvent@ZOOMSDK@@@std@@V?$allocator@PAVIPreMeetingServiceEvent@ZOOMSDK@@@4@$0A@@std@@@std@@AAEPAU?$_Tree_node@PAVIPreMeetingServiceEvent@ZOOMSDK@@PAX@2@V?$_Tree_unchecked_const_iterator@V?$_Tree_val@U?$_Tree_simple_types@PAVIPreMeetingServiceEvent@ZOOMSDK@@@std@@@std@@U_Iterator_base0@2@@2@@Z 0042c130 f i sdk_util.obj
 0001:0002b130       ?_Erase_unchecked@?$_Tree@V?$_Tset_traits@PAVISDKInMeetingServiceMgrEvent@@U?$less@PAVISDKInMeetingServiceMgrEvent@@@std@@V?$allocator@PAVISDKInMeetingServiceMgrEvent@@@3@$0A@@std@@@std@@AAEPAU?$_Tree_node@PAVISDKInMeetingServiceMgrEvent@@PAX@2@V?$_Tree_unchecked_const_iterator@V?$_Tree_val@U?$_Tree_simple_types@PAVISDKInMeetingServiceMgrEvent@@@std@@@std@@U_Iterator_base0@2@@2@@Z 0042c130 f i sdk_util.obj
 0001:0002b130       ?_Erase_unchecked@?$_Tree@V?$_Tset_traits@PAVIClosedCaptionControllerEvent@ZOOMSDK@@U?$less@PAVIClosedCaptionControllerEvent@ZOOMSDK@@@std@@V?$allocator@PAVIClosedCaptionControllerEvent@ZOOMSDK@@@4@$0A@@std@@@std@@AAEPAU?$_Tree_node@PAVIClosedCaptionControllerEvent@ZOOMSDK@@PAX@2@V?$_Tree_unchecked_const_iterator@V?$_Tree_val@U?$_Tree_simple_types@PAVIClosedCaptionControllerEvent@ZOOMSDK@@@std@@@std@@U_Iterator_base0@2@@2@@Z 0042c130 f i sdk_util.obj
 0001:0002b130       ?_Erase_unchecked@?$_Tree@V?$_Tset_traits@PAVIMeetingServiceEvent@ZOOMSDK@@U?$less@PAVIMeetingServiceEvent@ZOOMSDK@@@std@@V?$allocator@PAVIMeetingServiceEvent@ZOOMSDK@@@4@$0A@@std@@@std@@AAEPAU?$_Tree_node@PAVIMeetingServiceEvent@ZOOMSDK@@PAX@2@V?$_Tree_unchecked_const_iterator@V?$_Tree_val@U?$_Tree_simple_types@PAVIMeetingServiceEvent@ZOOMSDK@@@std@@@std@@U_Iterator_base0@2@@2@@Z 0042c130 f i sdk_util.obj
 0001:0002b130       ?_Erase_unchecked@?$_Tree@V?$_Tset_traits@PAVIMeetingParticipantsCtrlEvent@ZOOMSDK@@U?$less@PAVIMeetingParticipantsCtrlEvent@ZOOMSDK@@@std@@V?$allocator@PAVIMeetingParticipantsCtrlEvent@ZOOMSDK@@@4@$0A@@std@@@std@@AAEPAU?$_Tree_node@PAVIMeetingParticipantsCtrlEvent@ZOOMSDK@@PAX@2@V?$_Tree_unchecked_const_iterator@V?$_Tree_val@U?$_Tree_simple_types@PAVIMeetingParticipantsCtrlEvent@ZOOMSDK@@@std@@@std@@U_Iterator_base0@2@@2@@Z 0042c130 f i sdk_util.obj
 0001:0002b130       ?_Erase_unchecked@?$_Tree@V?$_Tset_traits@PAVIAuthServiceEvent@ZOOMSDK@@U?$less@PAVIAuthServiceEvent@ZOOMSDK@@@std@@V?$allocator@PAVIAuthServiceEvent@ZOOMSDK@@@4@$0A@@std@@@std@@AAEPAU?$_Tree_node@PAVIAuthServiceEvent@ZOOMSDK@@PAX@2@V?$_Tree_unchecked_const_iterator@V?$_Tree_val@U?$_Tree_simple_types@PAVIAuthServiceEvent@ZOOMSDK@@@std@@@std@@U_Iterator_base0@2@@2@@Z 0042c130 f i sdk_util.obj
 0001:0002b130       ?_Erase_unchecked@?$_Tree@V?$_Tset_traits@PAVIMeetingChatCtrlEvent@ZOOMSDK@@U?$less@PAVIMeetingChatCtrlEvent@ZOOMSDK@@@std@@V?$allocator@PAVIMeetingChatCtrlEvent@ZOOMSDK@@@4@$0A@@std@@@std@@AAEPAU?$_Tree_node@PAVIMeetingChatCtrlEvent@ZOOMSDK@@PAX@2@V?$_Tree_unchecked_const_iterator@V?$_Tree_val@U?$_Tree_simple_types@PAVIMeetingChatCtrlEvent@ZOOMSDK@@@std@@@std@@U_Iterator_base0@2@@2@@Z 0042c130 f i sdk_util.obj
 0001:0002b190       ?_Extract@?$_Tree_val@U?$_Tree_simple_types@PAVIAuthServiceEvent@ZOOMSDK@@@std@@@std@@QAEPAU?$_Tree_node@PAVIAuthServiceEvent@ZOOMSDK@@PAX@2@V?$_Tree_unchecked_const_iterator@V?$_Tree_val@U?$_Tree_simple_types@PAVIAuthServiceEvent@ZOOMSDK@@@std@@@std@@U_Iterator_base0@2@@2@@Z 0042c190 f i sdk_util.obj
 0001:0002b190       ?_Extract@?$_Tree_val@U?$_Tree_simple_types@PAVIMeetingServiceEvent@ZOOMSDK@@@std@@@std@@QAEPAU?$_Tree_node@PAVIMeetingServiceEvent@ZOOMSDK@@PAX@2@V?$_Tree_unchecked_const_iterator@V?$_Tree_val@U?$_Tree_simple_types@PAVIMeetingServiceEvent@ZOOMSDK@@@std@@@std@@U_Iterator_base0@2@@2@@Z 0042c190 f i sdk_util.obj
 0001:0002b190       ?_Extract@?$_Tree_val@U?$_Tree_simple_types@PAVIClosedCaptionControllerEvent@ZOOMSDK@@@std@@@std@@QAEPAU?$_Tree_node@PAVIClosedCaptionControllerEvent@ZOOMSDK@@PAX@2@V?$_Tree_unchecked_const_iterator@V?$_Tree_val@U?$_Tree_simple_types@PAVIClosedCaptionControllerEvent@ZOOMSDK@@@std@@@std@@U_Iterator_base0@2@@2@@Z 0042c190 f i sdk_util.obj
 0001:0002b190       ?_Extract@?$_Tree_val@U?$_Tree_simple_types@U?$pair@$$CBIPAVIUserInfo@ZOOMSDK@@@std@@@std@@@std@@QAEPAU?$_Tree_node@U?$pair@$$CBIPAVIUserInfo@ZOOMSDK@@@std@@PAX@2@V?$_Tree_unchecked_const_iterator@V?$_Tree_val@U?$_Tree_simple_types@U?$pair@$$CBIPAVIUserInfo@ZOOMSDK@@@std@@@std@@@std@@U_Iterator_base0@2@@2@@Z 0042c190 f i user_manager.obj
 0001:0002b190       ?_Extract@?$_Tree_val@U?$_Tree_simple_types@PAVISDKInMeetingServiceMgrEvent@@@std@@@std@@QAEPAU?$_Tree_node@PAVISDKInMeetingServiceMgrEvent@@PAX@2@V?$_Tree_unchecked_const_iterator@V?$_Tree_val@U?$_Tree_simple_types@PAVISDKInMeetingServiceMgrEvent@@@std@@@std@@U_Iterator_base0@2@@2@@Z 0042c190 f i sdk_util.obj
 0001:0002b190       ?_Extract@?$_Tree_val@U?$_Tree_simple_types@PAVIMeetingChatCtrlEvent@ZOOMSDK@@@std@@@std@@QAEPAU?$_Tree_node@PAVIMeetingChatCtrlEvent@ZOOMSDK@@PAX@2@V?$_Tree_unchecked_const_iterator@V?$_Tree_val@U?$_Tree_simple_types@PAVIMeetingChatCtrlEvent@ZOOMSDK@@@std@@@std@@U_Iterator_base0@2@@2@@Z 0042c190 f i sdk_util.obj
 0001:0002b190       ?_Extract@?$_Tree_val@U?$_Tree_simple_types@PAVIMeetingParticipantsCtrlEvent@ZOOMSDK@@@std@@@std@@QAEPAU?$_Tree_node@PAVIMeetingParticipantsCtrlEvent@ZOOMSDK@@PAX@2@V?$_Tree_unchecked_const_iterator@V?$_Tree_val@U?$_Tree_simple_types@PAVIMeetingParticipantsCtrlEvent@ZOOMSDK@@@std@@@std@@U_Iterator_base0@2@@2@@Z 0042c190 f i sdk_util.obj
 0001:0002b190       ?_Extract@?$_Tree_val@U?$_Tree_simple_types@PAVIPreMeetingServiceEvent@ZOOMSDK@@@std@@@std@@QAEPAU?$_Tree_node@PAVIPreMeetingServiceEvent@ZOOMSDK@@PAX@2@V?$_Tree_unchecked_const_iterator@V?$_Tree_val@U?$_Tree_simple_types@PAVIPreMeetingServiceEvent@ZOOMSDK@@@std@@@std@@U_Iterator_base0@2@@2@@Z 0042c190 f i sdk_util.obj
 0001:0002b190       ?_Extract@?$_Tree_val@U?$_Tree_simple_types@U?$pair@$$CBHW4bkItemType@@@std@@@std@@@std@@QAEPAU?$_Tree_node@U?$pair@$$CBHW4bkItemType@@@std@@PAX@2@V?$_Tree_unchecked_const_iterator@V?$_Tree_val@U?$_Tree_simple_types@U?$pair@$$CBHW4bkItemType@@@std@@@std@@@std@@U_Iterator_base0@2@@2@@Z 0042c190 f i settings_ui.obj
 0001:0002b5c0       ?_Get_scary@?$_Tree@V?$_Tset_traits@PAVIPreMeetingServiceEvent@ZOOMSDK@@U?$less@PAVIPreMeetingServiceEvent@ZOOMSDK@@@std@@V?$allocator@PAVIPreMeetingServiceEvent@ZOOMSDK@@@4@$0A@@std@@@std@@IBEPBV?$_Tree_val@U?$_Tree_simple_types@PAVIPreMeetingServiceEvent@ZOOMSDK@@@std@@@2@XZ 0042c5c0 f i sdk_util.obj
 0001:0002b5c0       ?_Get_scary@?$_Tree@V?$_Tset_traits@PAVIMeetingChatCtrlEvent@ZOOMSDK@@U?$less@PAVIMeetingChatCtrlEvent@ZOOMSDK@@@std@@V?$allocator@PAVIMeetingChatCtrlEvent@ZOOMSDK@@@4@$0A@@std@@@std@@IBEPBV?$_Tree_val@U?$_Tree_simple_types@PAVIMeetingChatCtrlEvent@ZOOMSDK@@@std@@@2@XZ 0042c5c0 f i sdk_util.obj
 0001:0002b5c0       ?_Get_scary@?$_Tree@V?$_Tmap_traits@IPAVIUserInfo@ZOOMSDK@@U?$less@I@std@@V?$allocator@U?$pair@$$CBIPAVIUserInfo@ZOOMSDK@@@std@@@4@$0A@@std@@@std@@IAEPAV?$_Tree_val@U?$_Tree_simple_types@U?$pair@$$CBIPAVIUserInfo@ZOOMSDK@@@std@@@std@@@2@XZ 0042c5c0 f i user_manager.obj
 0001:0002b5c0       ?_Get_scary@?$_Tree@V?$_Tset_traits@PAVISDKInMeetingServiceMgrEvent@@U?$less@PAVISDKInMeetingServiceMgrEvent@@@std@@V?$allocator@PAVISDKInMeetingServiceMgrEvent@@@3@$0A@@std@@@std@@IBEPBV?$_Tree_val@U?$_Tree_simple_types@PAVISDKInMeetingServiceMgrEvent@@@std@@@2@XZ 0042c5c0 f i sdk_util.obj
 0001:0002b5c0       ?_Get_scary@?$_Tree@V?$_Tmap_traits@HW4bkItemType@@U?$less@H@std@@V?$allocator@U?$pair@$$CBHW4bkItemType@@@std@@@3@$0A@@std@@@std@@IBEPBV?$_Tree_val@U?$_Tree_simple_types@U?$pair@$$CBHW4bkItemType@@@std@@@std@@@2@XZ 0042c5c0 f i settings_ui.obj
 0001:0002b5c0       ?_Get_scary@?$_Tree@V?$_Tset_traits@PAVIClosedCaptionControllerEvent@ZOOMSDK@@U?$less@PAVIClosedCaptionControllerEvent@ZOOMSDK@@@std@@V?$allocator@PAVIClosedCaptionControllerEvent@ZOOMSDK@@@4@$0A@@std@@@std@@IAEPAV?$_Tree_val@U?$_Tree_simple_types@PAVIClosedCaptionControllerEvent@ZOOMSDK@@@std@@@2@XZ 0042c5c0 f i sdk_util.obj
 0001:0002b5c0       ?_Get_scary@?$_Tree@V?$_Tset_traits@PAVIMeetingServiceEvent@ZOOMSDK@@U?$less@PAVIMeetingServiceEvent@ZOOMSDK@@@std@@V?$allocator@PAVIMeetingServiceEvent@ZOOMSDK@@@4@$0A@@std@@@std@@IBEPBV?$_Tree_val@U?$_Tree_simple_types@PAVIMeetingServiceEvent@ZOOMSDK@@@std@@@2@XZ 0042c5c0 f i sdk_util.obj
 0001:0002b5c0       ?_Get_scary@?$_Tree@V?$_Tset_traits@PAVIMeetingVideoCtrlEvent@ZOOMSDK@@U?$less@PAVIMeetingVideoCtrlEvent@ZOOMSDK@@@std@@V?$allocator@PAVIMeetingVideoCtrlEvent@ZOOMSDK@@@4@$0A@@std@@@std@@IAEPAV?$_Tree_val@U?$_Tree_simple_types@PAVIMeetingVideoCtrlEvent@ZOOMSDK@@@std@@@2@XZ 0042c5c0 f i sdk_util.obj
 0001:0002b5c0       ?_Get_scary@?$_Tree@V?$_Tset_traits@PAVIMeetingParticipantsCtrlEvent@ZOOMSDK@@U?$less@PAVIMeetingParticipantsCtrlEvent@ZOOMSDK@@@std@@V?$allocator@PAVIMeetingParticipantsCtrlEvent@ZOOMSDK@@@4@$0A@@std@@@std@@IAEPAV?$_Tree_val@U?$_Tree_simple_types@PAVIMeetingParticipantsCtrlEvent@ZOOMSDK@@@std@@@2@XZ 0042c5c0 f i sdk_util.obj
 0001:0002b5c0       ?_Get_scary@?$_Tree@V?$_Tmap_traits@IPAVIUserInfo@ZOOMSDK@@U?$less@I@std@@V?$allocator@U?$pair@$$CBIPAVIUserInfo@ZOOMSDK@@@std@@@4@$0A@@std@@@std@@IBEPBV?$_Tree_val@U?$_Tree_simple_types@U?$pair@$$CBIPAVIUserInfo@ZOOMSDK@@@std@@@std@@@2@XZ 0042c5c0 f i user_manager.obj
 0001:0002b5c0       ?_Get_scary@?$_Tree@V?$_Tset_traits@PAVIAuthServiceEvent@ZOOMSDK@@U?$less@PAVIAuthServiceEvent@ZOOMSDK@@@std@@V?$allocator@PAVIAuthServiceEvent@ZOOMSDK@@@4@$0A@@std@@@std@@IAEPAV?$_Tree_val@U?$_Tree_simple_types@PAVIAuthServiceEvent@ZOOMSDK@@@std@@@2@XZ 0042c5c0 f i sdk_util.obj
 0001:0002b5c0       ?_Get_scary@?$_Tree@V?$_Tset_traits@PAVIMeetingVideoCtrlEvent@ZOOMSDK@@U?$less@PAVIMeetingVideoCtrlEvent@ZOOMSDK@@@std@@V?$allocator@PAVIMeetingVideoCtrlEvent@ZOOMSDK@@@4@$0A@@std@@@std@@IBEPBV?$_Tree_val@U?$_Tree_simple_types@PAVIMeetingVideoCtrlEvent@ZOOMSDK@@@std@@@2@XZ 0042c5c0 f i sdk_util.obj
 0001:0002b5c0       ?_Get_scary@?$_Tree@V?$_Tset_traits@PAVIMeetingChatCtrlEvent@ZOOMSDK@@U?$less@PAVIMeetingChatCtrlEvent@ZOOMSDK@@@std@@V?$allocator@PAVIMeetingChatCtrlEvent@ZOOMSDK@@@4@$0A@@std@@@std@@IAEPAV?$_Tree_val@U?$_Tree_simple_types@PAVIMeetingChatCtrlEvent@ZOOMSDK@@@std@@@2@XZ 0042c5c0 f i sdk_util.obj
 0001:0002b5c0       ?_Get_scary@?$_Tree@V?$_Tset_traits@PAVIClosedCaptionControllerEvent@ZOOMSDK@@U?$less@PAVIClosedCaptionControllerEvent@ZOOMSDK@@@std@@V?$allocator@PAVIClosedCaptionControllerEvent@ZOOMSDK@@@4@$0A@@std@@@std@@IBEPBV?$_Tree_val@U?$_Tree_simple_types@PAVIClosedCaptionControllerEvent@ZOOMSDK@@@std@@@2@XZ 0042c5c0 f i sdk_util.obj
 0001:0002b5c0       ?_Get_scary@?$_Tree@V?$_Tset_traits@PAVIAuthServiceEvent@ZOOMSDK@@U?$less@PAVIAuthServiceEvent@ZOOMSDK@@@std@@V?$allocator@PAVIAuthServiceEvent@ZOOMSDK@@@4@$0A@@std@@@std@@IBEPBV?$_Tree_val@U?$_Tree_simple_types@PAVIAuthServiceEvent@ZOOMSDK@@@std@@@2@XZ 0042c5c0 f i sdk_util.obj
 0001:0002b5c0       ?_Get_scary@?$_Tree@V?$_Tmap_traits@HW4bkItemType@@U?$less@H@std@@V?$allocator@U?$pair@$$CBHW4bkItemType@@@std@@@3@$0A@@std@@@std@@IAEPAV?$_Tree_val@U?$_Tree_simple_types@U?$pair@$$CBHW4bkItemType@@@std@@@std@@@2@XZ 0042c5c0 f i settings_ui.obj
 0001:0002b5c0       ?_Get_scary@?$_Tree@V?$_Tset_traits@PAVISDKInMeetingServiceMgrEvent@@U?$less@PAVISDKInMeetingServiceMgrEvent@@@std@@V?$allocator@PAVISDKInMeetingServiceMgrEvent@@@3@$0A@@std@@@std@@IAEPAV?$_Tree_val@U?$_Tree_simple_types@PAVISDKInMeetingServiceMgrEvent@@@std@@@2@XZ 0042c5c0 f i sdk_util.obj
 0001:0002b5c0       ?_Get_scary@?$_Tree@V?$_Tset_traits@PAVIPreMeetingServiceEvent@ZOOMSDK@@U?$less@PAVIPreMeetingServiceEvent@ZOOMSDK@@@std@@V?$allocator@PAVIPreMeetingServiceEvent@ZOOMSDK@@@4@$0A@@std@@@std@@IAEPAV?$_Tree_val@U?$_Tree_simple_types@PAVIPreMeetingServiceEvent@ZOOMSDK@@@std@@@2@XZ 0042c5c0 f i sdk_util.obj
 0001:0002b5c0       ?_Get_scary@?$_Tree@V?$_Tset_traits@PAVIMeetingServiceEvent@ZOOMSDK@@U?$less@PAVIMeetingServiceEvent@ZOOMSDK@@@std@@V?$allocator@PAVIMeetingServiceEvent@ZOOMSDK@@@4@$0A@@std@@@std@@IAEPAV?$_Tree_val@U?$_Tree_simple_types@PAVIMeetingServiceEvent@ZOOMSDK@@@std@@@2@XZ 0042c5c0 f i sdk_util.obj
 0001:0002b5c0       ?_Get_scary@?$_Tree@V?$_Tset_traits@PAVIMeetingParticipantsCtrlEvent@ZOOMSDK@@U?$less@PAVIMeetingParticipantsCtrlEvent@ZOOMSDK@@@std@@V?$allocator@PAVIMeetingParticipantsCtrlEvent@ZOOMSDK@@@4@$0A@@std@@@std@@IBEPBV?$_Tree_val@U?$_Tree_simple_types@PAVIMeetingParticipantsCtrlEvent@ZOOMSDK@@@std@@@2@XZ 0042c5c0 f i sdk_util.obj
 0001:0002b5e0       ?_Getcont@_Iterator_base0@std@@QBEPBU_Container_base0@2@XZ 0042c5e0 f i sdk_util.obj
 0001:0002b5e0       ?GetSuperClassName@CWindowWnd@DuiLib@@MBEPB_WXZ 0042c5e0 f i DuiLib:UIBase.obj
 0001:0002b5e0       ?GetNativeWindow@CControlUI@DuiLib@@UBEPAUHWND__@@XZ 0042c5e0 f i DuiLib:UIControl.obj
 0001:0002b5e0       ?GetClassStyle@CWindowWnd@DuiLib@@MBEIXZ 0042c5e0 f i DuiLib:UIBase.obj
 0001:0002b5e0       ?GetControlFlags@CControlUI@DuiLib@@UBEIXZ 0042c5e0 f i DuiLib:UIControl.obj
 0001:0002b5e0       ?TxImmGetContext@CTxtWinHost@DuiLib@@UAEPAUHIMC__@@XZ 0042c5e0 f i DuiLib:UIRichEdit.obj
 0001:0002b5f0       ?_Insert_node@?$_Tree_val@U?$_Tree_simple_types@PAVIAuthServiceEvent@ZOOMSDK@@@std@@@std@@QAEPAU?$_Tree_node@PAVIAuthServiceEvent@ZOOMSDK@@PAX@2@U?$_Tree_id@PAU?$_Tree_node@PAVIAuthServiceEvent@ZOOMSDK@@PAX@std@@@2@QAU32@@Z 0042c5f0 f i sdk_util.obj
 0001:0002b5f0       ?_Insert_node@?$_Tree_val@U?$_Tree_simple_types@PAVIPreMeetingServiceEvent@ZOOMSDK@@@std@@@std@@QAEPAU?$_Tree_node@PAVIPreMeetingServiceEvent@ZOOMSDK@@PAX@2@U?$_Tree_id@PAU?$_Tree_node@PAVIPreMeetingServiceEvent@ZOOMSDK@@PAX@std@@@2@QAU32@@Z 0042c5f0 f i sdk_util.obj
 0001:0002b5f0       ?_Insert_node@?$_Tree_val@U?$_Tree_simple_types@PAVIMeetingParticipantsCtrlEvent@ZOOMSDK@@@std@@@std@@QAEPAU?$_Tree_node@PAVIMeetingParticipantsCtrlEvent@ZOOMSDK@@PAX@2@U?$_Tree_id@PAU?$_Tree_node@PAVIMeetingParticipantsCtrlEvent@ZOOMSDK@@PAX@std@@@2@QAU32@@Z 0042c5f0 f i sdk_util.obj
 0001:0002b5f0       ?_Insert_node@?$_Tree_val@U?$_Tree_simple_types@PAVIMeetingChatCtrlEvent@ZOOMSDK@@@std@@@std@@QAEPAU?$_Tree_node@PAVIMeetingChatCtrlEvent@ZOOMSDK@@PAX@2@U?$_Tree_id@PAU?$_Tree_node@PAVIMeetingChatCtrlEvent@ZOOMSDK@@PAX@std@@@2@QAU32@@Z 0042c5f0 f i sdk_util.obj
 0001:0002b5f0       ?_Insert_node@?$_Tree_val@U?$_Tree_simple_types@PAVIMeetingVideoCtrlEvent@ZOOMSDK@@@std@@@std@@QAEPAU?$_Tree_node@PAVIMeetingVideoCtrlEvent@ZOOMSDK@@PAX@2@U?$_Tree_id@PAU?$_Tree_node@PAVIMeetingVideoCtrlEvent@ZOOMSDK@@PAX@std@@@2@QAU32@@Z 0042c5f0 f i sdk_util.obj
 0001:0002b5f0       ?_Insert_node@?$_Tree_val@U?$_Tree_simple_types@U?$pair@$$CBHW4bkItemType@@@std@@@std@@@std@@QAEPAU?$_Tree_node@U?$pair@$$CBHW4bkItemType@@@std@@PAX@2@U?$_Tree_id@PAU?$_Tree_node@U?$pair@$$CBHW4bkItemType@@@std@@PAX@std@@@2@QAU32@@Z 0042c5f0 f i settings_ui.obj
 0001:0002b5f0       ?_Insert_node@?$_Tree_val@U?$_Tree_simple_types@U?$pair@$$CBIPAVIUserInfo@ZOOMSDK@@@std@@@std@@@std@@QAEPAU?$_Tree_node@U?$pair@$$CBIPAVIUserInfo@ZOOMSDK@@@std@@PAX@2@U?$_Tree_id@PAU?$_Tree_node@U?$pair@$$CBIPAVIUserInfo@ZOOMSDK@@@std@@PAX@std@@@2@QAU32@@Z 0042c5f0 f i user_manager.obj
 0001:0002b5f0       ?_Insert_node@?$_Tree_val@U?$_Tree_simple_types@PAVIClosedCaptionControllerEvent@ZOOMSDK@@@std@@@std@@QAEPAU?$_Tree_node@PAVIClosedCaptionControllerEvent@ZOOMSDK@@PAX@2@U?$_Tree_id@PAU?$_Tree_node@PAVIClosedCaptionControllerEvent@ZOOMSDK@@PAX@std@@@2@QAU32@@Z 0042c5f0 f i sdk_util.obj
 0001:0002b5f0       ?_Insert_node@?$_Tree_val@U?$_Tree_simple_types@PAVIMeetingServiceEvent@ZOOMSDK@@@std@@@std@@QAEPAU?$_Tree_node@PAVIMeetingServiceEvent@ZOOMSDK@@PAX@2@U?$_Tree_id@PAU?$_Tree_node@PAVIMeetingServiceEvent@ZOOMSDK@@PAX@std@@@2@QAU32@@Z 0042c5f0 f i sdk_util.obj
 0001:0002b5f0       ?_Insert_node@?$_Tree_val@U?$_Tree_simple_types@PAVISDKInMeetingServiceMgrEvent@@@std@@@std@@QAEPAU?$_Tree_node@PAVISDKInMeetingServiceMgrEvent@@PAX@2@U?$_Tree_id@PAU?$_Tree_node@PAVISDKInMeetingServiceMgrEvent@@PAX@std@@@2@QAU32@@Z 0042c5f0 f i sdk_util.obj
 0001:0002b800       ?_Lrotate@?$_Tree_val@U?$_Tree_simple_types@PAVIMeetingChatCtrlEvent@ZOOMSDK@@@std@@@std@@QAEXPAU?$_Tree_node@PAVIMeetingChatCtrlEvent@ZOOMSDK@@PAX@2@@Z 0042c800 f i sdk_util.obj
 0001:0002b800       ?_Lrotate@?$_Tree_val@U?$_Tree_simple_types@PAVIMeetingVideoCtrlEvent@ZOOMSDK@@@std@@@std@@QAEXPAU?$_Tree_node@PAVIMeetingVideoCtrlEvent@ZOOMSDK@@PAX@2@@Z 0042c800 f i sdk_util.obj
 0001:0002b800       ?_Lrotate@?$_Tree_val@U?$_Tree_simple_types@PAVIAuthServiceEvent@ZOOMSDK@@@std@@@std@@QAEXPAU?$_Tree_node@PAVIAuthServiceEvent@ZOOMSDK@@PAX@2@@Z 0042c800 f i sdk_util.obj
 0001:0002b800       ?_Lrotate@?$_Tree_val@U?$_Tree_simple_types@PAVIPreMeetingServiceEvent@ZOOMSDK@@@std@@@std@@QAEXPAU?$_Tree_node@PAVIPreMeetingServiceEvent@ZOOMSDK@@PAX@2@@Z 0042c800 f i sdk_util.obj
 0001:0002b800       ?_Lrotate@?$_Tree_val@U?$_Tree_simple_types@U?$pair@$$CBIPAVIUserInfo@ZOOMSDK@@@std@@@std@@@std@@QAEXPAU?$_Tree_node@U?$pair@$$CBIPAVIUserInfo@ZOOMSDK@@@std@@PAX@2@@Z 0042c800 f i user_manager.obj
 0001:0002b800       ?_Lrotate@?$_Tree_val@U?$_Tree_simple_types@PAVISDKInMeetingServiceMgrEvent@@@std@@@std@@QAEXPAU?$_Tree_node@PAVISDKInMeetingServiceMgrEvent@@PAX@2@@Z 0042c800 f i sdk_util.obj
 0001:0002b800       ?_Lrotate@?$_Tree_val@U?$_Tree_simple_types@U?$pair@$$CBHW4bkItemType@@@std@@@std@@@std@@QAEXPAU?$_Tree_node@U?$pair@$$CBHW4bkItemType@@@std@@PAX@2@@Z 0042c800 f i settings_ui.obj
 0001:0002b800       ?_Lrotate@?$_Tree_val@U?$_Tree_simple_types@PAVIMeetingParticipantsCtrlEvent@ZOOMSDK@@@std@@@std@@QAEXPAU?$_Tree_node@PAVIMeetingParticipantsCtrlEvent@ZOOMSDK@@PAX@2@@Z 0042c800 f i sdk_util.obj
 0001:0002b800       ?_Lrotate@?$_Tree_val@U?$_Tree_simple_types@PAVIClosedCaptionControllerEvent@ZOOMSDK@@@std@@@std@@QAEXPAU?$_Tree_node@PAVIClosedCaptionControllerEvent@ZOOMSDK@@PAX@2@@Z 0042c800 f i sdk_util.obj
 0001:0002b800       ?_Lrotate@?$_Tree_val@U?$_Tree_simple_types@PAVIMeetingServiceEvent@ZOOMSDK@@@std@@@std@@QAEXPAU?$_Tree_node@PAVIMeetingServiceEvent@ZOOMSDK@@PAX@2@@Z 0042c800 f i sdk_util.obj
 0001:0002b8a0       ?_Max@?$_Tree_val@U?$_Tree_simple_types@PAVIPreMeetingServiceEvent@ZOOMSDK@@@std@@@std@@SAPAU?$_Tree_node@PAVIPreMeetingServiceEvent@ZOOMSDK@@PAX@2@PAU32@@Z 0042c8a0 f i sdk_util.obj
 0001:0002b8a0       ?_Max@?$_Tree_val@U?$_Tree_simple_types@PAVIMeetingParticipantsCtrlEvent@ZOOMSDK@@@std@@@std@@SAPAU?$_Tree_node@PAVIMeetingParticipantsCtrlEvent@ZOOMSDK@@PAX@2@PAU32@@Z 0042c8a0 f i sdk_util.obj
 0001:0002b8a0       ?_Max@?$_Tree_val@U?$_Tree_simple_types@U?$pair@$$CBHW4bkItemType@@@std@@@std@@@std@@SAPAU?$_Tree_node@U?$pair@$$CBHW4bkItemType@@@std@@PAX@2@PAU32@@Z 0042c8a0 f i settings_ui.obj
 0001:0002b8a0       ?_Max@?$_Tree_val@U?$_Tree_simple_types@PAVISDKInMeetingServiceMgrEvent@@@std@@@std@@SAPAU?$_Tree_node@PAVISDKInMeetingServiceMgrEvent@@PAX@2@PAU32@@Z 0042c8a0 f i sdk_util.obj
 0001:0002b8a0       ?_Max@?$_Tree_val@U?$_Tree_simple_types@PAVIMeetingServiceEvent@ZOOMSDK@@@std@@@std@@SAPAU?$_Tree_node@PAVIMeetingServiceEvent@ZOOMSDK@@PAX@2@PAU32@@Z 0042c8a0 f i sdk_util.obj
 0001:0002b8a0       ?_Max@?$_Tree_val@U?$_Tree_simple_types@PAVIAuthServiceEvent@ZOOMSDK@@@std@@@std@@SAPAU?$_Tree_node@PAVIAuthServiceEvent@ZOOMSDK@@PAX@2@PAU32@@Z 0042c8a0 f i sdk_util.obj
 0001:0002b8a0       ?_Max@?$_Tree_val@U?$_Tree_simple_types@U?$pair@$$CBIPAVIUserInfo@ZOOMSDK@@@std@@@std@@@std@@SAPAU?$_Tree_node@U?$pair@$$CBIPAVIUserInfo@ZOOMSDK@@@std@@PAX@2@PAU32@@Z 0042c8a0 f i user_manager.obj
 0001:0002b8a0       ?_Max@?$_Tree_val@U?$_Tree_simple_types@PAVIMeetingVideoCtrlEvent@ZOOMSDK@@@std@@@std@@SAPAU?$_Tree_node@PAVIMeetingVideoCtrlEvent@ZOOMSDK@@PAX@2@PAU32@@Z 0042c8a0 f i sdk_util.obj
 0001:0002b8a0       ?_Max@?$_Tree_val@U?$_Tree_simple_types@PAVIMeetingChatCtrlEvent@ZOOMSDK@@@std@@@std@@SAPAU?$_Tree_node@PAVIMeetingChatCtrlEvent@ZOOMSDK@@PAX@2@PAU32@@Z 0042c8a0 f i sdk_util.obj
 0001:0002b8a0       ?_Max@?$_Tree_val@U?$_Tree_simple_types@PAVIClosedCaptionControllerEvent@ZOOMSDK@@@std@@@std@@SAPAU?$_Tree_node@PAVIClosedCaptionControllerEvent@ZOOMSDK@@PAX@2@PAU32@@Z 0042c8a0 f i sdk_util.obj
 0001:0002b8d0       ?_Min@?$_Tree_val@U?$_Tree_simple_types@U?$pair@$$CBIPAVIUserInfo@ZOOMSDK@@@std@@@std@@@std@@SAPAU?$_Tree_node@U?$pair@$$CBIPAVIUserInfo@ZOOMSDK@@@std@@PAX@2@PAU32@@Z 0042c8d0 f i user_manager.obj
 0001:0002b8d0       ?_Min@?$_Tree_val@U?$_Tree_simple_types@PAVIClosedCaptionControllerEvent@ZOOMSDK@@@std@@@std@@SAPAU?$_Tree_node@PAVIClosedCaptionControllerEvent@ZOOMSDK@@PAX@2@PAU32@@Z 0042c8d0 f i sdk_util.obj
 0001:0002b8d0       ?_Min@?$_Tree_val@U?$_Tree_simple_types@PAVIMeetingServiceEvent@ZOOMSDK@@@std@@@std@@SAPAU?$_Tree_node@PAVIMeetingServiceEvent@ZOOMSDK@@PAX@2@PAU32@@Z 0042c8d0 f i sdk_util.obj
 0001:0002b8d0       ?_Min@?$_Tree_val@U?$_Tree_simple_types@PAVISDKInMeetingServiceMgrEvent@@@std@@@std@@SAPAU?$_Tree_node@PAVISDKInMeetingServiceMgrEvent@@PAX@2@PAU32@@Z 0042c8d0 f i sdk_util.obj
 0001:0002b8d0       ?_Min@?$_Tree_val@U?$_Tree_simple_types@PAVIMeetingVideoCtrlEvent@ZOOMSDK@@@std@@@std@@SAPAU?$_Tree_node@PAVIMeetingVideoCtrlEvent@ZOOMSDK@@PAX@2@PAU32@@Z 0042c8d0 f i sdk_util.obj
 0001:0002b8d0       ?_Min@?$_Tree_val@U?$_Tree_simple_types@U?$pair@$$CBHW4bkItemType@@@std@@@std@@@std@@SAPAU?$_Tree_node@U?$pair@$$CBHW4bkItemType@@@std@@PAX@2@PAU32@@Z 0042c8d0 f i settings_ui.obj
 0001:0002b8d0       ?_Min@?$_Tree_val@U?$_Tree_simple_types@PAVIMeetingChatCtrlEvent@ZOOMSDK@@@std@@@std@@SAPAU?$_Tree_node@PAVIMeetingChatCtrlEvent@ZOOMSDK@@PAX@2@PAU32@@Z 0042c8d0 f i sdk_util.obj
 0001:0002b8d0       ?_Min@?$_Tree_val@U?$_Tree_simple_types@PAVIAuthServiceEvent@ZOOMSDK@@@std@@@std@@SAPAU?$_Tree_node@PAVIAuthServiceEvent@ZOOMSDK@@PAX@2@PAU32@@Z 0042c8d0 f i sdk_util.obj
 0001:0002b8d0       ?_Min@?$_Tree_val@U?$_Tree_simple_types@PAVIPreMeetingServiceEvent@ZOOMSDK@@@std@@@std@@SAPAU?$_Tree_node@PAVIPreMeetingServiceEvent@ZOOMSDK@@PAX@2@PAU32@@Z 0042c8d0 f i sdk_util.obj
 0001:0002b8d0       ?_Min@?$_Tree_val@U?$_Tree_simple_types@PAVIMeetingParticipantsCtrlEvent@ZOOMSDK@@@std@@@std@@SAPAU?$_Tree_node@PAVIMeetingParticipantsCtrlEvent@ZOOMSDK@@PAX@2@PAU32@@Z 0042c8d0 f i sdk_util.obj
 0001:0002b8f0       ?_Release@?$_Alloc_construct_ptr@V?$allocator@U?$_Tree_node@PAVIClosedCaptionControllerEvent@ZOOMSDK@@PAX@std@@@std@@@std@@QAEPAU?$_Tree_node@PAVIClosedCaptionControllerEvent@ZOOMSDK@@PAX@2@XZ 0042c8f0 f i sdk_util.obj
 0001:0002b8f0       ?_Release@?$_Alloc_construct_ptr@V?$allocator@U?$_Tree_node@PAVIMeetingChatCtrlEvent@ZOOMSDK@@PAX@std@@@std@@@std@@QAEPAU?$_Tree_node@PAVIMeetingChatCtrlEvent@ZOOMSDK@@PAX@2@XZ 0042c8f0 f i sdk_util.obj
 0001:0002b8f0       ?_Release@?$_Alloc_construct_ptr@V?$allocator@U?$_Tree_node@PAVIPreMeetingServiceEvent@ZOOMSDK@@PAX@std@@@std@@@std@@QAEPAU?$_Tree_node@PAVIPreMeetingServiceEvent@ZOOMSDK@@PAX@2@XZ 0042c8f0 f i sdk_util.obj
 0001:0002b8f0       ?_Release@?$_Alloc_construct_ptr@V?$allocator@U?$_Tree_node@PAVIMeetingVideoCtrlEvent@ZOOMSDK@@PAX@std@@@std@@@std@@QAEPAU?$_Tree_node@PAVIMeetingVideoCtrlEvent@ZOOMSDK@@PAX@2@XZ 0042c8f0 f i sdk_util.obj
 0001:0002b8f0       ?_Release@?$_Alloc_construct_ptr@V?$allocator@U?$_Tree_node@PAVIMeetingServiceEvent@ZOOMSDK@@PAX@std@@@std@@@std@@QAEPAU?$_Tree_node@PAVIMeetingServiceEvent@ZOOMSDK@@PAX@2@XZ 0042c8f0 f i sdk_util.obj
 0001:0002b8f0       ?_Release@?$_Alloc_construct_ptr@V?$allocator@U?$_Tree_node@PAVIAuthServiceEvent@ZOOMSDK@@PAX@std@@@std@@@std@@QAEPAU?$_Tree_node@PAVIAuthServiceEvent@ZOOMSDK@@PAX@2@XZ 0042c8f0 f i sdk_util.obj
 0001:0002b8f0       ?_Release@?$_Alloc_construct_ptr@V?$allocator@U?$_Tree_node@PAVIMeetingParticipantsCtrlEvent@ZOOMSDK@@PAX@std@@@std@@@std@@QAEPAU?$_Tree_node@PAVIMeetingParticipantsCtrlEvent@ZOOMSDK@@PAX@2@XZ 0042c8f0 f i sdk_util.obj
 0001:0002b8f0       ?_Release@?$_Alloc_construct_ptr@V?$allocator@U?$_Tree_node@U?$pair@$$CBIPAVIUserInfo@ZOOMSDK@@@std@@PAX@std@@@std@@@std@@QAEPAU?$_Tree_node@U?$pair@$$CBIPAVIUserInfo@ZOOMSDK@@@std@@PAX@2@XZ 0042c8f0 f i user_manager.obj
 0001:0002b8f0       ?_Release@?$_Alloc_construct_ptr@V?$allocator@U?$_Tree_node@PAVISDKInMeetingServiceMgrEvent@@PAX@std@@@std@@@std@@QAEPAU?$_Tree_node@PAVISDKInMeetingServiceMgrEvent@@PAX@2@XZ 0042c8f0 f i sdk_util.obj
 0001:0002b8f0       ?_Release@?$_Alloc_construct_ptr@V?$allocator@U?$_Tree_node@U?$pair@$$CBHW4bkItemType@@@std@@PAX@std@@@std@@@std@@QAEPAU?$_Tree_node@U?$pair@$$CBHW4bkItemType@@@std@@PAX@2@XZ 0042c8f0 f i settings_ui.obj
 0001:0002b920       ?_Rrotate@?$_Tree_val@U?$_Tree_simple_types@PAVIPreMeetingServiceEvent@ZOOMSDK@@@std@@@std@@QAEXPAU?$_Tree_node@PAVIPreMeetingServiceEvent@ZOOMSDK@@PAX@2@@Z 0042c920 f i sdk_util.obj
 0001:0002b920       ?_Rrotate@?$_Tree_val@U?$_Tree_simple_types@PAVIClosedCaptionControllerEvent@ZOOMSDK@@@std@@@std@@QAEXPAU?$_Tree_node@PAVIClosedCaptionControllerEvent@ZOOMSDK@@PAX@2@@Z 0042c920 f i sdk_util.obj
 0001:0002b920       ?_Rrotate@?$_Tree_val@U?$_Tree_simple_types@PAVIMeetingVideoCtrlEvent@ZOOMSDK@@@std@@@std@@QAEXPAU?$_Tree_node@PAVIMeetingVideoCtrlEvent@ZOOMSDK@@PAX@2@@Z 0042c920 f i sdk_util.obj
 0001:0002b920       ?_Rrotate@?$_Tree_val@U?$_Tree_simple_types@PAVIMeetingServiceEvent@ZOOMSDK@@@std@@@std@@QAEXPAU?$_Tree_node@PAVIMeetingServiceEvent@ZOOMSDK@@PAX@2@@Z 0042c920 f i sdk_util.obj
 0001:0002b920       ?_Rrotate@?$_Tree_val@U?$_Tree_simple_types@PAVIMeetingParticipantsCtrlEvent@ZOOMSDK@@@std@@@std@@QAEXPAU?$_Tree_node@PAVIMeetingParticipantsCtrlEvent@ZOOMSDK@@PAX@2@@Z 0042c920 f i sdk_util.obj
 0001:0002b920       ?_Rrotate@?$_Tree_val@U?$_Tree_simple_types@U?$pair@$$CBHW4bkItemType@@@std@@@std@@@std@@QAEXPAU?$_Tree_node@U?$pair@$$CBHW4bkItemType@@@std@@PAX@2@@Z 0042c920 f i settings_ui.obj
 0001:0002b920       ?_Rrotate@?$_Tree_val@U?$_Tree_simple_types@PAVIMeetingChatCtrlEvent@ZOOMSDK@@@std@@@std@@QAEXPAU?$_Tree_node@PAVIMeetingChatCtrlEvent@ZOOMSDK@@PAX@2@@Z 0042c920 f i sdk_util.obj
 0001:0002b920       ?_Rrotate@?$_Tree_val@U?$_Tree_simple_types@U?$pair@$$CBIPAVIUserInfo@ZOOMSDK@@@std@@@std@@@std@@QAEXPAU?$_Tree_node@U?$pair@$$CBIPAVIUserInfo@ZOOMSDK@@@std@@PAX@2@@Z 0042c920 f i user_manager.obj
 0001:0002b920       ?_Rrotate@?$_Tree_val@U?$_Tree_simple_types@PAVISDKInMeetingServiceMgrEvent@@@std@@@std@@QAEXPAU?$_Tree_node@PAVISDKInMeetingServiceMgrEvent@@PAX@2@@Z 0042c920 f i sdk_util.obj
 0001:0002b920       ?_Rrotate@?$_Tree_val@U?$_Tree_simple_types@PAVIAuthServiceEvent@ZOOMSDK@@@std@@@std@@QAEXPAU?$_Tree_node@PAVIAuthServiceEvent@ZOOMSDK@@PAX@2@@Z 0042c920 f i sdk_util.obj
 0001:0002b9c0       ?_Throw_tree_length_error@std@@YAXXZ 0042c9c0 f i sdk_util.obj
 0001:0002b9d0       ?_Unchecked_begin@?$_Tree@V?$_Tset_traits@PAVISDKInMeetingServiceMgrEvent@@U?$less@PAVISDKInMeetingServiceMgrEvent@@@std@@V?$allocator@PAVISDKInMeetingServiceMgrEvent@@@3@$0A@@std@@@std@@QAE?AV?$_Tree_unchecked_const_iterator@V?$_Tree_val@U?$_Tree_simple_types@PAVISDKInMeetingServiceMgrEvent@@@std@@@std@@U_Iterator_base0@2@@2@XZ 0042c9d0 f i sdk_util.obj
 0001:0002b9d0       ?_Unchecked_begin@?$_Tree@V?$_Tset_traits@PAVIClosedCaptionControllerEvent@ZOOMSDK@@U?$less@PAVIClosedCaptionControllerEvent@ZOOMSDK@@@std@@V?$allocator@PAVIClosedCaptionControllerEvent@ZOOMSDK@@@4@$0A@@std@@@std@@QAE?AV?$_Tree_unchecked_const_iterator@V?$_Tree_val@U?$_Tree_simple_types@PAVIClosedCaptionControllerEvent@ZOOMSDK@@@std@@@std@@U_Iterator_base0@2@@2@XZ 0042c9d0 f i sdk_util.obj
 0001:0002b9d0       ?_Unchecked_begin@?$_Tree@V?$_Tset_traits@PAVIAuthServiceEvent@ZOOMSDK@@U?$less@PAVIAuthServiceEvent@ZOOMSDK@@@std@@V?$allocator@PAVIAuthServiceEvent@ZOOMSDK@@@4@$0A@@std@@@std@@QAE?AV?$_Tree_unchecked_const_iterator@V?$_Tree_val@U?$_Tree_simple_types@PAVIAuthServiceEvent@ZOOMSDK@@@std@@@std@@U_Iterator_base0@2@@2@XZ 0042c9d0 f i sdk_util.obj
 0001:0002b9d0       ?_Unchecked_begin@?$_Tree@V?$_Tset_traits@PAVIMeetingServiceEvent@ZOOMSDK@@U?$less@PAVIMeetingServiceEvent@ZOOMSDK@@@std@@V?$allocator@PAVIMeetingServiceEvent@ZOOMSDK@@@4@$0A@@std@@@std@@QAE?AV?$_Tree_unchecked_const_iterator@V?$_Tree_val@U?$_Tree_simple_types@PAVIMeetingServiceEvent@ZOOMSDK@@@std@@@std@@U_Iterator_base0@2@@2@XZ 0042c9d0 f i sdk_util.obj
 0001:0002b9d0       ?_Unchecked_begin@?$_Tree@V?$_Tset_traits@PAVIPreMeetingServiceEvent@ZOOMSDK@@U?$less@PAVIPreMeetingServiceEvent@ZOOMSDK@@@std@@V?$allocator@PAVIPreMeetingServiceEvent@ZOOMSDK@@@4@$0A@@std@@@std@@QAE?AV?$_Tree_unchecked_const_iterator@V?$_Tree_val@U?$_Tree_simple_types@PAVIPreMeetingServiceEvent@ZOOMSDK@@@std@@@std@@U_Iterator_base0@2@@2@XZ 0042c9d0 f i sdk_util.obj
 0001:0002b9d0       ?_Unchecked_begin@?$_Tree@V?$_Tset_traits@PAVIMeetingParticipantsCtrlEvent@ZOOMSDK@@U?$less@PAVIMeetingParticipantsCtrlEvent@ZOOMSDK@@@std@@V?$allocator@PAVIMeetingParticipantsCtrlEvent@ZOOMSDK@@@4@$0A@@std@@@std@@QAE?AV?$_Tree_unchecked_const_iterator@V?$_Tree_val@U?$_Tree_simple_types@PAVIMeetingParticipantsCtrlEvent@ZOOMSDK@@@std@@@std@@U_Iterator_base0@2@@2@XZ 0042c9d0 f i sdk_util.obj
 0001:0002b9d0       ?_Unchecked_begin@?$_Tree@V?$_Tset_traits@PAVIMeetingChatCtrlEvent@ZOOMSDK@@U?$less@PAVIMeetingChatCtrlEvent@ZOOMSDK@@@std@@V?$allocator@PAVIMeetingChatCtrlEvent@ZOOMSDK@@@4@$0A@@std@@@std@@QAE?AV?$_Tree_unchecked_const_iterator@V?$_Tree_val@U?$_Tree_simple_types@PAVIMeetingChatCtrlEvent@ZOOMSDK@@@std@@@std@@U_Iterator_base0@2@@2@XZ 0042c9d0 f i sdk_util.obj
 0001:0002ba00       ?_Unwrapped@?$_Tree_const_iterator@V?$_Tree_val@U?$_Tree_simple_types@PAVIMeetingServiceEvent@ZOOMSDK@@@std@@@std@@@std@@QBE?AV?$_Tree_unchecked_const_iterator@V?$_Tree_val@U?$_Tree_simple_types@PAVIMeetingServiceEvent@ZOOMSDK@@@std@@@std@@U_Iterator_base0@2@@2@XZ 0042ca00 f i sdk_util.obj
 0001:0002ba00       ?_Unwrapped@?$_Tree_const_iterator@V?$_Tree_val@U?$_Tree_simple_types@PAVIClosedCaptionControllerEvent@ZOOMSDK@@@std@@@std@@@std@@QBE?AV?$_Tree_unchecked_const_iterator@V?$_Tree_val@U?$_Tree_simple_types@PAVIClosedCaptionControllerEvent@ZOOMSDK@@@std@@@std@@U_Iterator_base0@2@@2@XZ 0042ca00 f i sdk_util.obj
 0001:0002ba00       ?_Unwrapped@?$_Tree_const_iterator@V?$_Tree_val@U?$_Tree_simple_types@PAVIMeetingParticipantsCtrlEvent@ZOOMSDK@@@std@@@std@@@std@@QBE?AV?$_Tree_unchecked_const_iterator@V?$_Tree_val@U?$_Tree_simple_types@PAVIMeetingParticipantsCtrlEvent@ZOOMSDK@@@std@@@std@@U_Iterator_base0@2@@2@XZ 0042ca00 f i sdk_util.obj
 0001:0002ba00       ?_Unwrapped@?$_Tree_const_iterator@V?$_Tree_val@U?$_Tree_simple_types@PAVIAuthServiceEvent@ZOOMSDK@@@std@@@std@@@std@@QBE?AV?$_Tree_unchecked_const_iterator@V?$_Tree_val@U?$_Tree_simple_types@PAVIAuthServiceEvent@ZOOMSDK@@@std@@@std@@U_Iterator_base0@2@@2@XZ 0042ca00 f i sdk_util.obj
 0001:0002ba00       ?_Unwrapped@?$_Tree_const_iterator@V?$_Tree_val@U?$_Tree_simple_types@PAVIMeetingVideoCtrlEvent@ZOOMSDK@@@std@@@std@@@std@@QBE?AV?$_Tree_unchecked_const_iterator@V?$_Tree_val@U?$_Tree_simple_types@PAVIMeetingVideoCtrlEvent@ZOOMSDK@@@std@@@std@@U_Iterator_base0@2@@2@XZ 0042ca00 f i sdk_util.obj
 0001:0002ba00       ?_Unwrapped@?$_Tree_const_iterator@V?$_Tree_val@U?$_Tree_simple_types@PAVIMeetingChatCtrlEvent@ZOOMSDK@@@std@@@std@@@std@@QBE?AV?$_Tree_unchecked_const_iterator@V?$_Tree_val@U?$_Tree_simple_types@PAVIMeetingChatCtrlEvent@ZOOMSDK@@@std@@@std@@U_Iterator_base0@2@@2@XZ 0042ca00 f i sdk_util.obj
 0001:0002ba00       ?_Unwrapped@?$_Tree_const_iterator@V?$_Tree_val@U?$_Tree_simple_types@PAVIPreMeetingServiceEvent@ZOOMSDK@@@std@@@std@@@std@@QBE?AV?$_Tree_unchecked_const_iterator@V?$_Tree_val@U?$_Tree_simple_types@PAVIPreMeetingServiceEvent@ZOOMSDK@@@std@@@std@@U_Iterator_base0@2@@2@XZ 0042ca00 f i sdk_util.obj
 0001:0002ba00       ?_Unwrapped@?$_Tree_const_iterator@V?$_Tree_val@U?$_Tree_simple_types@U?$pair@$$CBHW4bkItemType@@@std@@@std@@@std@@@std@@QBE?AV?$_Tree_unchecked_const_iterator@V?$_Tree_val@U?$_Tree_simple_types@U?$pair@$$CBHW4bkItemType@@@std@@@std@@@std@@U_Iterator_base0@2@@2@XZ 0042ca00 f i settings_ui.obj
 0001:0002ba00       ?_Unwrapped@?$_Tree_const_iterator@V?$_Tree_val@U?$_Tree_simple_types@PAVISDKInMeetingServiceMgrEvent@@@std@@@std@@@std@@QBE?AV?$_Tree_unchecked_const_iterator@V?$_Tree_val@U?$_Tree_simple_types@PAVISDKInMeetingServiceMgrEvent@@@std@@@std@@U_Iterator_base0@2@@2@XZ 0042ca00 f i sdk_util.obj
 0001:0002ba30       ?allocate@?$allocator@U?$_Tree_node@PAVIMeetingChatCtrlEvent@ZOOMSDK@@PAX@std@@@std@@QAEPAU?$_Tree_node@PAVIMeetingChatCtrlEvent@ZOOMSDK@@PAX@2@I@Z 0042ca30 f i sdk_util.obj
 0001:0002ba30       ?allocate@?$allocator@U?$_Tree_node@PAVIClosedCaptionControllerEvent@ZOOMSDK@@PAX@std@@@std@@QAEPAU?$_Tree_node@PAVIClosedCaptionControllerEvent@ZOOMSDK@@PAX@2@I@Z 0042ca30 f i sdk_util.obj
 0001:0002ba30       ?allocate@?$allocator@U?$_Tree_node@PAVISDKInMeetingServiceMgrEvent@@PAX@std@@@std@@QAEPAU?$_Tree_node@PAVISDKInMeetingServiceMgrEvent@@PAX@2@I@Z 0042ca30 f i sdk_util.obj
 0001:0002ba30       ?allocate@?$allocator@U?$_Tree_node@PAVIMeetingParticipantsCtrlEvent@ZOOMSDK@@PAX@std@@@std@@QAEPAU?$_Tree_node@PAVIMeetingParticipantsCtrlEvent@ZOOMSDK@@PAX@2@I@Z 0042ca30 f i sdk_util.obj
 0001:0002ba30       ?allocate@?$allocator@U?$_Tree_node@PAVIAuthServiceEvent@ZOOMSDK@@PAX@std@@@std@@QAEPAU?$_Tree_node@PAVIAuthServiceEvent@ZOOMSDK@@PAX@2@I@Z 0042ca30 f i sdk_util.obj
 0001:0002ba30       ?allocate@?$allocator@U?$_Tree_node@PAVIPreMeetingServiceEvent@ZOOMSDK@@PAX@std@@@std@@QAEPAU?$_Tree_node@PAVIPreMeetingServiceEvent@ZOOMSDK@@PAX@2@I@Z 0042ca30 f i sdk_util.obj
 0001:0002ba30       ?allocate@?$allocator@U?$_Tree_node@PAVIMeetingVideoCtrlEvent@ZOOMSDK@@PAX@std@@@std@@QAEPAU?$_Tree_node@PAVIMeetingVideoCtrlEvent@ZOOMSDK@@PAX@2@I@Z 0042ca30 f i sdk_util.obj
 0001:0002ba30       ?allocate@?$allocator@U?$_Tree_node@PAVIMeetingServiceEvent@ZOOMSDK@@PAX@std@@@std@@QAEPAU?$_Tree_node@PAVIMeetingServiceEvent@ZOOMSDK@@PAX@2@I@Z 0042ca30 f i sdk_util.obj
 0001:0002ba60       ?begin@?$_Tree@V?$_Tset_traits@PAVIClosedCaptionControllerEvent@ZOOMSDK@@U?$less@PAVIClosedCaptionControllerEvent@ZOOMSDK@@@std@@V?$allocator@PAVIClosedCaptionControllerEvent@ZOOMSDK@@@4@$0A@@std@@@std@@QAE?AV?$_Tree_const_iterator@V?$_Tree_val@U?$_Tree_simple_types@PAVIClosedCaptionControllerEvent@ZOOMSDK@@@std@@@std@@@2@XZ 0042ca60 f i sdk_util.obj
 0001:0002ba60       ?begin@?$_Tree@V?$_Tset_traits@PAVISDKInMeetingServiceMgrEvent@@U?$less@PAVISDKInMeetingServiceMgrEvent@@@std@@V?$allocator@PAVISDKInMeetingServiceMgrEvent@@@3@$0A@@std@@@std@@QAE?AV?$_Tree_const_iterator@V?$_Tree_val@U?$_Tree_simple_types@PAVISDKInMeetingServiceMgrEvent@@@std@@@std@@@2@XZ 0042ca60 f i sdk_util.obj
 0001:0002ba60       ?begin@?$_Tree@V?$_Tset_traits@PAVIPreMeetingServiceEvent@ZOOMSDK@@U?$less@PAVIPreMeetingServiceEvent@ZOOMSDK@@@std@@V?$allocator@PAVIPreMeetingServiceEvent@ZOOMSDK@@@4@$0A@@std@@@std@@QAE?AV?$_Tree_const_iterator@V?$_Tree_val@U?$_Tree_simple_types@PAVIPreMeetingServiceEvent@ZOOMSDK@@@std@@@std@@@2@XZ 0042ca60 f i sdk_util.obj
 0001:0002ba60       ?begin@?$_Tree@V?$_Tset_traits@PAVIAuthServiceEvent@ZOOMSDK@@U?$less@PAVIAuthServiceEvent@ZOOMSDK@@@std@@V?$allocator@PAVIAuthServiceEvent@ZOOMSDK@@@4@$0A@@std@@@std@@QAE?AV?$_Tree_const_iterator@V?$_Tree_val@U?$_Tree_simple_types@PAVIAuthServiceEvent@ZOOMSDK@@@std@@@std@@@2@XZ 0042ca60 f i sdk_util.obj
 0001:0002ba60       ?begin@?$_Tree@V?$_Tset_traits@PAVIMeetingServiceEvent@ZOOMSDK@@U?$less@PAVIMeetingServiceEvent@ZOOMSDK@@@std@@V?$allocator@PAVIMeetingServiceEvent@ZOOMSDK@@@4@$0A@@std@@@std@@QAE?AV?$_Tree_const_iterator@V?$_Tree_val@U?$_Tree_simple_types@PAVIMeetingServiceEvent@ZOOMSDK@@@std@@@std@@@2@XZ 0042ca60 f i sdk_util.obj
 0001:0002ba60       ?begin@?$_Tree@V?$_Tset_traits@PAVIMeetingChatCtrlEvent@ZOOMSDK@@U?$less@PAVIMeetingChatCtrlEvent@ZOOMSDK@@@std@@V?$allocator@PAVIMeetingChatCtrlEvent@ZOOMSDK@@@4@$0A@@std@@@std@@QAE?AV?$_Tree_const_iterator@V?$_Tree_val@U?$_Tree_simple_types@PAVIMeetingChatCtrlEvent@ZOOMSDK@@@std@@@std@@@2@XZ 0042ca60 f i sdk_util.obj
 0001:0002ba60       ?begin@?$_Tree@V?$_Tset_traits@PAVIMeetingVideoCtrlEvent@ZOOMSDK@@U?$less@PAVIMeetingVideoCtrlEvent@ZOOMSDK@@@std@@V?$allocator@PAVIMeetingVideoCtrlEvent@ZOOMSDK@@@4@$0A@@std@@@std@@QAE?AV?$_Tree_const_iterator@V?$_Tree_val@U?$_Tree_simple_types@PAVIMeetingVideoCtrlEvent@ZOOMSDK@@@std@@@std@@@2@XZ 0042ca60 f i sdk_util.obj
 0001:0002ba60       ?begin@?$_Tree@V?$_Tset_traits@PAVIMeetingParticipantsCtrlEvent@ZOOMSDK@@U?$less@PAVIMeetingParticipantsCtrlEvent@ZOOMSDK@@@std@@V?$allocator@PAVIMeetingParticipantsCtrlEvent@ZOOMSDK@@@4@$0A@@std@@@std@@QAE?AV?$_Tree_const_iterator@V?$_Tree_val@U?$_Tree_simple_types@PAVIMeetingParticipantsCtrlEvent@ZOOMSDK@@@std@@@std@@@2@XZ 0042ca60 f i sdk_util.obj
 0001:0002baa0       ?clear@?$_Tree@V?$_Tset_traits@PAVIPreMeetingServiceEvent@ZOOMSDK@@U?$less@PAVIPreMeetingServiceEvent@ZOOMSDK@@@std@@V?$allocator@PAVIPreMeetingServiceEvent@ZOOMSDK@@@4@$0A@@std@@@std@@QAEXXZ 0042caa0 f i sdk_util.obj
 0001:0002baa0       ?clear@?$_Tree@V?$_Tset_traits@PAVIAuthServiceEvent@ZOOMSDK@@U?$less@PAVIAuthServiceEvent@ZOOMSDK@@@std@@V?$allocator@PAVIAuthServiceEvent@ZOOMSDK@@@4@$0A@@std@@@std@@QAEXXZ 0042caa0 f i sdk_util.obj
 0001:0002baa0       ?clear@?$_Tree@V?$_Tset_traits@PAVIMeetingServiceEvent@ZOOMSDK@@U?$less@PAVIMeetingServiceEvent@ZOOMSDK@@@std@@V?$allocator@PAVIMeetingServiceEvent@ZOOMSDK@@@4@$0A@@std@@@std@@QAEXXZ 0042caa0 f i sdk_util.obj
 0001:0002baa0       ?clear@?$_Tree@V?$_Tset_traits@PAVIMeetingParticipantsCtrlEvent@ZOOMSDK@@U?$less@PAVIMeetingParticipantsCtrlEvent@ZOOMSDK@@@std@@V?$allocator@PAVIMeetingParticipantsCtrlEvent@ZOOMSDK@@@4@$0A@@std@@@std@@QAEXXZ 0042caa0 f i sdk_util.obj
 0001:0002baa0       ?clear@?$_Tree@V?$_Tset_traits@PAVIMeetingVideoCtrlEvent@ZOOMSDK@@U?$less@PAVIMeetingVideoCtrlEvent@ZOOMSDK@@@std@@V?$allocator@PAVIMeetingVideoCtrlEvent@ZOOMSDK@@@4@$0A@@std@@@std@@QAEXXZ 0042caa0 f i sdk_util.obj
 0001:0002baa0       ?clear@?$_Tree@V?$_Tset_traits@PAVISDKInMeetingServiceMgrEvent@@U?$less@PAVISDKInMeetingServiceMgrEvent@@@std@@V?$allocator@PAVISDKInMeetingServiceMgrEvent@@@3@$0A@@std@@@std@@QAEXXZ 0042caa0 f i sdk_util.obj
 0001:0002baa0       ?clear@?$_Tree@V?$_Tset_traits@PAVIMeetingChatCtrlEvent@ZOOMSDK@@U?$less@PAVIMeetingChatCtrlEvent@ZOOMSDK@@@std@@V?$allocator@PAVIMeetingChatCtrlEvent@ZOOMSDK@@@4@$0A@@std@@@std@@QAEXXZ 0042caa0 f i sdk_util.obj
 0001:0002baa0       ?clear@?$_Tree@V?$_Tset_traits@PAVIClosedCaptionControllerEvent@ZOOMSDK@@U?$less@PAVIClosedCaptionControllerEvent@ZOOMSDK@@@std@@V?$allocator@PAVIClosedCaptionControllerEvent@ZOOMSDK@@@4@$0A@@std@@@std@@QAEXXZ 0042caa0 f i sdk_util.obj
 0001:0002bb10       ?deallocate@?$_Default_allocator_traits@V?$allocator@U?$_Tree_node@PAVIMeetingParticipantsCtrlEvent@ZOOMSDK@@PAX@std@@@std@@@std@@SAXAAV?$allocator@U?$_Tree_node@PAVIMeetingParticipantsCtrlEvent@ZOOMSDK@@PAX@std@@@2@QAU?$_Tree_node@PAVIMeetingParticipantsCtrlEvent@ZOOMSDK@@PAX@2@I@Z 0042cb10 f i sdk_util.obj
 0001:0002bb10       ?deallocate@?$_Default_allocator_traits@V?$allocator@U?$_Tree_node@PAVIMeetingChatCtrlEvent@ZOOMSDK@@PAX@std@@@std@@@std@@SAXAAV?$allocator@U?$_Tree_node@PAVIMeetingChatCtrlEvent@ZOOMSDK@@PAX@std@@@2@QAU?$_Tree_node@PAVIMeetingChatCtrlEvent@ZOOMSDK@@PAX@2@I@Z 0042cb10 f i sdk_util.obj
 0001:0002bb10       ?deallocate@?$_Default_allocator_traits@V?$allocator@U?$_Tree_node@PAVIMeetingVideoCtrlEvent@ZOOMSDK@@PAX@std@@@std@@@std@@SAXAAV?$allocator@U?$_Tree_node@PAVIMeetingVideoCtrlEvent@ZOOMSDK@@PAX@std@@@2@QAU?$_Tree_node@PAVIMeetingVideoCtrlEvent@ZOOMSDK@@PAX@2@I@Z 0042cb10 f i sdk_util.obj
 0001:0002bb10       ?deallocate@?$_Default_allocator_traits@V?$allocator@U?$_Tree_node@PAVIMeetingServiceEvent@ZOOMSDK@@PAX@std@@@std@@@std@@SAXAAV?$allocator@U?$_Tree_node@PAVIMeetingServiceEvent@ZOOMSDK@@PAX@std@@@2@QAU?$_Tree_node@PAVIMeetingServiceEvent@ZOOMSDK@@PAX@2@I@Z 0042cb10 f i sdk_util.obj
 0001:0002bb10       ?deallocate@?$_Default_allocator_traits@V?$allocator@U?$_Tree_node@PAVIClosedCaptionControllerEvent@ZOOMSDK@@PAX@std@@@std@@@std@@SAXAAV?$allocator@U?$_Tree_node@PAVIClosedCaptionControllerEvent@ZOOMSDK@@PAX@std@@@2@QAU?$_Tree_node@PAVIClosedCaptionControllerEvent@ZOOMSDK@@PAX@2@I@Z 0042cb10 f i sdk_util.obj
 0001:0002bb10       ?deallocate@?$_Default_allocator_traits@V?$allocator@U?$_Tree_node@PAVIPreMeetingServiceEvent@ZOOMSDK@@PAX@std@@@std@@@std@@SAXAAV?$allocator@U?$_Tree_node@PAVIPreMeetingServiceEvent@ZOOMSDK@@PAX@std@@@2@QAU?$_Tree_node@PAVIPreMeetingServiceEvent@ZOOMSDK@@PAX@2@I@Z 0042cb10 f i sdk_util.obj
 0001:0002bb10       ?deallocate@?$_Default_allocator_traits@V?$allocator@U?$_Tree_node@PAVISDKInMeetingServiceMgrEvent@@PAX@std@@@std@@@std@@SAXAAV?$allocator@U?$_Tree_node@PAVISDKInMeetingServiceMgrEvent@@PAX@std@@@2@QAU?$_Tree_node@PAVISDKInMeetingServiceMgrEvent@@PAX@2@I@Z 0042cb10 f i sdk_util.obj
 0001:0002bb10       ?deallocate@?$_Default_allocator_traits@V?$allocator@U?$_Tree_node@PAVIAuthServiceEvent@ZOOMSDK@@PAX@std@@@std@@@std@@SAXAAV?$allocator@U?$_Tree_node@PAVIAuthServiceEvent@ZOOMSDK@@PAX@std@@@2@QAU?$_Tree_node@PAVIAuthServiceEvent@ZOOMSDK@@PAX@2@I@Z 0042cb10 f i sdk_util.obj
 0001:0002bb30       ?deallocate@?$allocator@U?$_Tree_node@PAVIPreMeetingServiceEvent@ZOOMSDK@@PAX@std@@@std@@QAEXQAU?$_Tree_node@PAVIPreMeetingServiceEvent@ZOOMSDK@@PAX@2@I@Z 0042cb30 f i sdk_util.obj
 0001:0002bb30       ?deallocate@?$allocator@U?$_Tree_node@PAVIMeetingServiceEvent@ZOOMSDK@@PAX@std@@@std@@QAEXQAU?$_Tree_node@PAVIMeetingServiceEvent@ZOOMSDK@@PAX@2@I@Z 0042cb30 f i sdk_util.obj
 0001:0002bb30       ?deallocate@?$allocator@U?$_Tree_node@PAVIClosedCaptionControllerEvent@ZOOMSDK@@PAX@std@@@std@@QAEXQAU?$_Tree_node@PAVIClosedCaptionControllerEvent@ZOOMSDK@@PAX@2@I@Z 0042cb30 f i sdk_util.obj
 0001:0002bb30       ?deallocate@?$allocator@U?$_Tree_node@PAVIMeetingVideoCtrlEvent@ZOOMSDK@@PAX@std@@@std@@QAEXQAU?$_Tree_node@PAVIMeetingVideoCtrlEvent@ZOOMSDK@@PAX@2@I@Z 0042cb30 f i sdk_util.obj
 0001:0002bb30       ?deallocate@?$allocator@U?$_Tree_node@PAVISDKInMeetingServiceMgrEvent@@PAX@std@@@std@@QAEXQAU?$_Tree_node@PAVISDKInMeetingServiceMgrEvent@@PAX@2@I@Z 0042cb30 f i sdk_util.obj
 0001:0002bb30       ?deallocate@?$allocator@U?$_Tree_node@PAVIMeetingParticipantsCtrlEvent@ZOOMSDK@@PAX@std@@@std@@QAEXQAU?$_Tree_node@PAVIMeetingParticipantsCtrlEvent@ZOOMSDK@@PAX@2@I@Z 0042cb30 f i sdk_util.obj
 0001:0002bb30       ?deallocate@?$allocator@U?$_Tree_node@PAVIMeetingChatCtrlEvent@ZOOMSDK@@PAX@std@@@std@@QAEXQAU?$_Tree_node@PAVIMeetingChatCtrlEvent@ZOOMSDK@@PAX@2@I@Z 0042cb30 f i sdk_util.obj
 0001:0002bb30       ?deallocate@?$allocator@U?$_Tree_node@PAVIAuthServiceEvent@ZOOMSDK@@PAX@std@@@std@@QAEXQAU?$_Tree_node@PAVIAuthServiceEvent@ZOOMSDK@@PAX@2@I@Z 0042cb30 f i sdk_util.obj
 0001:0002bb50       ?end@?$_Tree@V?$_Tset_traits@PAVIMeetingVideoCtrlEvent@ZOOMSDK@@U?$less@PAVIMeetingVideoCtrlEvent@ZOOMSDK@@@std@@V?$allocator@PAVIMeetingVideoCtrlEvent@ZOOMSDK@@@4@$0A@@std@@@std@@QAE?AV?$_Tree_const_iterator@V?$_Tree_val@U?$_Tree_simple_types@PAVIMeetingVideoCtrlEvent@ZOOMSDK@@@std@@@std@@@2@XZ 0042cb50 f i sdk_util.obj
 0001:0002bb50       ?end@?$_Tree@V?$_Tset_traits@PAVIMeetingChatCtrlEvent@ZOOMSDK@@U?$less@PAVIMeetingChatCtrlEvent@ZOOMSDK@@@std@@V?$allocator@PAVIMeetingChatCtrlEvent@ZOOMSDK@@@4@$0A@@std@@@std@@QAE?AV?$_Tree_const_iterator@V?$_Tree_val@U?$_Tree_simple_types@PAVIMeetingChatCtrlEvent@ZOOMSDK@@@std@@@std@@@2@XZ 0042cb50 f i sdk_util.obj
 0001:0002bb50       ?end@?$_Tree@V?$_Tset_traits@PAVIClosedCaptionControllerEvent@ZOOMSDK@@U?$less@PAVIClosedCaptionControllerEvent@ZOOMSDK@@@std@@V?$allocator@PAVIClosedCaptionControllerEvent@ZOOMSDK@@@4@$0A@@std@@@std@@QAE?AV?$_Tree_const_iterator@V?$_Tree_val@U?$_Tree_simple_types@PAVIClosedCaptionControllerEvent@ZOOMSDK@@@std@@@std@@@2@XZ 0042cb50 f i sdk_util.obj
 0001:0002bb50       ?end@?$_Tree@V?$_Tset_traits@PAVISDKInMeetingServiceMgrEvent@@U?$less@PAVISDKInMeetingServiceMgrEvent@@@std@@V?$allocator@PAVISDKInMeetingServiceMgrEvent@@@3@$0A@@std@@@std@@QAE?AV?$_Tree_const_iterator@V?$_Tree_val@U?$_Tree_simple_types@PAVISDKInMeetingServiceMgrEvent@@@std@@@std@@@2@XZ 0042cb50 f i sdk_util.obj
 0001:0002bb50       ?end@?$_Tree@V?$_Tset_traits@PAVIMeetingParticipantsCtrlEvent@ZOOMSDK@@U?$less@PAVIMeetingParticipantsCtrlEvent@ZOOMSDK@@@std@@V?$allocator@PAVIMeetingParticipantsCtrlEvent@ZOOMSDK@@@4@$0A@@std@@@std@@QAE?AV?$_Tree_const_iterator@V?$_Tree_val@U?$_Tree_simple_types@PAVIMeetingParticipantsCtrlEvent@ZOOMSDK@@@std@@@std@@@2@XZ 0042cb50 f i sdk_util.obj
 0001:0002bb50       ?end@?$_Tree@V?$_Tset_traits@PAVIMeetingServiceEvent@ZOOMSDK@@U?$less@PAVIMeetingServiceEvent@ZOOMSDK@@@std@@V?$allocator@PAVIMeetingServiceEvent@ZOOMSDK@@@4@$0A@@std@@@std@@QAE?AV?$_Tree_const_iterator@V?$_Tree_val@U?$_Tree_simple_types@PAVIMeetingServiceEvent@ZOOMSDK@@@std@@@std@@@2@XZ 0042cb50 f i sdk_util.obj
 0001:0002bb50       ?end@?$_Tree@V?$_Tset_traits@PAVIPreMeetingServiceEvent@ZOOMSDK@@U?$less@PAVIPreMeetingServiceEvent@ZOOMSDK@@@std@@V?$allocator@PAVIPreMeetingServiceEvent@ZOOMSDK@@@4@$0A@@std@@@std@@QAE?AV?$_Tree_const_iterator@V?$_Tree_val@U?$_Tree_simple_types@PAVIPreMeetingServiceEvent@ZOOMSDK@@@std@@@std@@@2@XZ 0042cb50 f i sdk_util.obj
 0001:0002bb50       ?end@?$_Tree@V?$_Tset_traits@PAVIAuthServiceEvent@ZOOMSDK@@U?$less@PAVIAuthServiceEvent@ZOOMSDK@@@std@@V?$allocator@PAVIAuthServiceEvent@ZOOMSDK@@@4@$0A@@std@@@std@@QAE?AV?$_Tree_const_iterator@V?$_Tree_val@U?$_Tree_simple_types@PAVIAuthServiceEvent@ZOOMSDK@@@std@@@std@@@2@XZ 0042cb50 f i sdk_util.obj
 0001:0002bb80       ?erase@?$_Tree@V?$_Tset_traits@PAVISDKInMeetingServiceMgrEvent@@U?$less@PAVISDKInMeetingServiceMgrEvent@@@std@@V?$allocator@PAVISDKInMeetingServiceMgrEvent@@@3@$0A@@std@@@std@@QAEIABQAVISDKInMeetingServiceMgrEvent@@@Z 0042cb80 f i sdk_util.obj
 0001:0002bb80       ?erase@?$_Tree@V?$_Tset_traits@PAVIAuthServiceEvent@ZOOMSDK@@U?$less@PAVIAuthServiceEvent@ZOOMSDK@@@std@@V?$allocator@PAVIAuthServiceEvent@ZOOMSDK@@@4@$0A@@std@@@std@@QAEIABQAVIAuthServiceEvent@ZOOMSDK@@@Z 0042cb80 f i sdk_util.obj
 0001:0002bb80       ?erase@?$_Tree@V?$_Tset_traits@PAVIMeetingChatCtrlEvent@ZOOMSDK@@U?$less@PAVIMeetingChatCtrlEvent@ZOOMSDK@@@std@@V?$allocator@PAVIMeetingChatCtrlEvent@ZOOMSDK@@@4@$0A@@std@@@std@@QAEIABQAVIMeetingChatCtrlEvent@ZOOMSDK@@@Z 0042cb80 f i sdk_util.obj
 0001:0002bb80       ?erase@?$_Tree@V?$_Tset_traits@PAVIMeetingServiceEvent@ZOOMSDK@@U?$less@PAVIMeetingServiceEvent@ZOOMSDK@@@std@@V?$allocator@PAVIMeetingServiceEvent@ZOOMSDK@@@4@$0A@@std@@@std@@QAEIABQAVIMeetingServiceEvent@ZOOMSDK@@@Z 0042cb80 f i sdk_util.obj
 0001:0002bb80       ?erase@?$_Tree@V?$_Tset_traits@PAVIClosedCaptionControllerEvent@ZOOMSDK@@U?$less@PAVIClosedCaptionControllerEvent@ZOOMSDK@@@std@@V?$allocator@PAVIClosedCaptionControllerEvent@ZOOMSDK@@@4@$0A@@std@@@std@@QAEIABQAVIClosedCaptionControllerEvent@ZOOMSDK@@@Z 0042cb80 f i sdk_util.obj
 0001:0002bb80       ?erase@?$_Tree@V?$_Tset_traits@PAVIPreMeetingServiceEvent@ZOOMSDK@@U?$less@PAVIPreMeetingServiceEvent@ZOOMSDK@@@std@@V?$allocator@PAVIPreMeetingServiceEvent@ZOOMSDK@@@4@$0A@@std@@@std@@QAEIABQAVIPreMeetingServiceEvent@ZOOMSDK@@@Z 0042cb80 f i sdk_util.obj
 0001:0002bb80       ?erase@?$_Tree@V?$_Tset_traits@PAVIMeetingParticipantsCtrlEvent@ZOOMSDK@@U?$less@PAVIMeetingParticipantsCtrlEvent@ZOOMSDK@@@std@@V?$allocator@PAVIMeetingParticipantsCtrlEvent@ZOOMSDK@@@4@$0A@@std@@@std@@QAEIABQAVIMeetingParticipantsCtrlEvent@ZOOMSDK@@@Z 0042cb80 f i sdk_util.obj
 0001:0002bbf0       ?max_size@?$_Default_allocator_traits@V?$allocator@U?$_Tree_node@PAVIPreMeetingServiceEvent@ZOOMSDK@@PAX@std@@@std@@@std@@SAIABV?$allocator@U?$_Tree_node@PAVIPreMeetingServiceEvent@ZOOMSDK@@PAX@std@@@2@@Z 0042cbf0 f i sdk_util.obj
 0001:0002bbf0       ?max_size@?$_Default_allocator_traits@V?$allocator@U?$_Tree_node@PAVISDKInMeetingServiceMgrEvent@@PAX@std@@@std@@@std@@SAIABV?$allocator@U?$_Tree_node@PAVISDKInMeetingServiceMgrEvent@@PAX@std@@@2@@Z 0042cbf0 f i sdk_util.obj
 0001:0002bbf0       ?max_size@?$_Default_allocator_traits@V?$allocator@U?$_Tree_node@PAVIMeetingParticipantsCtrlEvent@ZOOMSDK@@PAX@std@@@std@@@std@@SAIABV?$allocator@U?$_Tree_node@PAVIMeetingParticipantsCtrlEvent@ZOOMSDK@@PAX@std@@@2@@Z 0042cbf0 f i sdk_util.obj
 0001:0002bbf0       ?max_size@?$_Default_allocator_traits@V?$allocator@U?$_Tree_node@PAVIMeetingChatCtrlEvent@ZOOMSDK@@PAX@std@@@std@@@std@@SAIABV?$allocator@U?$_Tree_node@PAVIMeetingChatCtrlEvent@ZOOMSDK@@PAX@std@@@2@@Z 0042cbf0 f i sdk_util.obj
 0001:0002bbf0       ?max_size@?$_Default_allocator_traits@V?$allocator@U?$_Tree_node@PAVIClosedCaptionControllerEvent@ZOOMSDK@@PAX@std@@@std@@@std@@SAIABV?$allocator@U?$_Tree_node@PAVIClosedCaptionControllerEvent@ZOOMSDK@@PAX@std@@@2@@Z 0042cbf0 f i sdk_util.obj
 0001:0002bbf0       ?max_size@?$_Default_allocator_traits@V?$allocator@U?$_Tree_node@PAVIAuthServiceEvent@ZOOMSDK@@PAX@std@@@std@@@std@@SAIABV?$allocator@U?$_Tree_node@PAVIAuthServiceEvent@ZOOMSDK@@PAX@std@@@2@@Z 0042cbf0 f i sdk_util.obj
 0001:0002bbf0       ?max_size@?$_Default_allocator_traits@V?$allocator@U?$_Tree_node@PAVIMeetingServiceEvent@ZOOMSDK@@PAX@std@@@std@@@std@@SAIABV?$allocator@U?$_Tree_node@PAVIMeetingServiceEvent@ZOOMSDK@@PAX@std@@@2@@Z 0042cbf0 f i sdk_util.obj
 0001:0002bbf0       ?max_size@?$_Default_allocator_traits@V?$allocator@U?$_Tree_node@PAVIMeetingVideoCtrlEvent@ZOOMSDK@@PAX@std@@@std@@@std@@SAIABV?$allocator@U?$_Tree_node@PAVIMeetingVideoCtrlEvent@ZOOMSDK@@PAX@std@@@2@@Z 0042cbf0 f i sdk_util.obj
 0001:0002bc00       ?max_size@?$_Tree@V?$_Tset_traits@PAVIClosedCaptionControllerEvent@ZOOMSDK@@U?$less@PAVIClosedCaptionControllerEvent@ZOOMSDK@@@std@@V?$allocator@PAVIClosedCaptionControllerEvent@ZOOMSDK@@@4@$0A@@std@@@std@@QBEIXZ 0042cc00 f i sdk_util.obj
 0001:0002bc00       ?max_size@?$_Tree@V?$_Tset_traits@PAVIMeetingChatCtrlEvent@ZOOMSDK@@U?$less@PAVIMeetingChatCtrlEvent@ZOOMSDK@@@std@@V?$allocator@PAVIMeetingChatCtrlEvent@ZOOMSDK@@@4@$0A@@std@@@std@@QBEIXZ 0042cc00 f i sdk_util.obj
 0001:0002bc00       ?max_size@?$_Tree@V?$_Tset_traits@PAVIMeetingVideoCtrlEvent@ZOOMSDK@@U?$less@PAVIMeetingVideoCtrlEvent@ZOOMSDK@@@std@@V?$allocator@PAVIMeetingVideoCtrlEvent@ZOOMSDK@@@4@$0A@@std@@@std@@QBEIXZ 0042cc00 f i sdk_util.obj
 0001:0002bc00       ?max_size@?$_Tree@V?$_Tset_traits@PAVIMeetingServiceEvent@ZOOMSDK@@U?$less@PAVIMeetingServiceEvent@ZOOMSDK@@@std@@V?$allocator@PAVIMeetingServiceEvent@ZOOMSDK@@@4@$0A@@std@@@std@@QBEIXZ 0042cc00 f i sdk_util.obj
 0001:0002bc00       ?max_size@?$_Tree@V?$_Tset_traits@PAVIMeetingParticipantsCtrlEvent@ZOOMSDK@@U?$less@PAVIMeetingParticipantsCtrlEvent@ZOOMSDK@@@std@@V?$allocator@PAVIMeetingParticipantsCtrlEvent@ZOOMSDK@@@4@$0A@@std@@@std@@QBEIXZ 0042cc00 f i sdk_util.obj
 0001:0002bc00       ?max_size@?$_Tree@V?$_Tset_traits@PAVIPreMeetingServiceEvent@ZOOMSDK@@U?$less@PAVIPreMeetingServiceEvent@ZOOMSDK@@@std@@V?$allocator@PAVIPreMeetingServiceEvent@ZOOMSDK@@@4@$0A@@std@@@std@@QBEIXZ 0042cc00 f i sdk_util.obj
 0001:0002bc00       ?max_size@?$_Tree@V?$_Tset_traits@PAVISDKInMeetingServiceMgrEvent@@U?$less@PAVISDKInMeetingServiceMgrEvent@@@std@@V?$allocator@PAVISDKInMeetingServiceMgrEvent@@@3@$0A@@std@@@std@@QBEIXZ 0042cc00 f i sdk_util.obj
 0001:0002bc00       ?max_size@?$_Tree@V?$_Tset_traits@PAVIAuthServiceEvent@ZOOMSDK@@U?$less@PAVIAuthServiceEvent@ZOOMSDK@@@std@@V?$allocator@PAVIAuthServiceEvent@ZOOMSDK@@@4@$0A@@std@@@std@@QBEIXZ 0042cc00 f i sdk_util.obj
 0001:0002bc40       ?onActiveSpeakerVideoUserChanged@SDKInterfaceWrap@@UAEXI@Z 0042cc40 f i sdk_util.obj
 0001:0002be20       ?onActiveVideoUserChanged@SDKInterfaceWrap@@UAEXI@Z 0042ce20 f i sdk_util.obj
 0001:0002c000       ?onAssignedToSendCC@SDKInterfaceWrap@@UAEX_N@Z 0042d000 f i sdk_util.obj
 0001:0002c110       ?onAudioBtnClicked@SDKInterfaceWrap@@UAEXUtagAudioBtnClickedCallbackInfo@ZOOMSDK@@@Z 0042d110 f i sdk_util.obj
 0001:0002c230       ?onAudioMenuBtnClicked@SDKInterfaceWrap@@UAEXXZ 0042d230 f i sdk_util.obj
 0001:0002c340       ?onAuthenticationReturn@SDKInterfaceWrap@@UAEXW4AuthResult@ZOOMSDK@@@Z 0042d340 f i sdk_util.obj
 0001:0002c440       ?onCCBTNClicked@SDKInterfaceWrap@@UAEXXZ 0042d440 f i sdk_util.obj
 0001:0002c550       ?onChatMsgNotifcation@SDKInterfaceWrap@@UAEXPAVIChatMsgInfo@ZOOMSDK@@PB_W@Z 0042d550 f i sdk_util.obj
 0001:0002c660       ?onChatStautsChangedNotification@SDKInterfaceWrap@@UAEXPAUtagChatStatus@ZOOMSDK@@@Z 0042d660 f i sdk_util.obj
 0001:0002c770       ?onClosedCaptionMsgReceived@SDKInterfaceWrap@@UAEXPB_W_J@Z 0042d770 f i sdk_util.obj
 0001:0002c890       ?onCloudRecordingStatus@SDKInterfaceWrap@@UAEXW4RecordingStatus@ZOOMSDK@@@Z 0042d890 f i sdk_util.obj
 0001:0002c9a0       ?onCoHostChangeNotification@SDKInterfaceWrap@@UAEXI_N@Z 0042d9a0 f i sdk_util.obj
 0001:0002cb90       ?onCustomLiveStreamMenuClicked@SDKInterfaceWrap@@UAEXXZ 0042db90 f i sdk_util.obj
 0001:0002cca0       ?onCustomizedLocalRecordingSourceNotification@SDKInterfaceWrap@@UAEXPAVICustomizedLocalRecordingLayoutHelper@ZOOMSDK@@@Z 0042dca0 f i sdk_util.obj
 0001:0002cdb0       ?onDeleteMeeting@SDKInterfaceWrap@@UAEXW4PremeetingAPIResult@ZOOMSDK@@@Z 0042ddb0 f i sdk_util.obj
 0001:0002ceb0       ?onEndMeetingBtnClicked@SDKInterfaceWrap@@UAEXXZ 0042deb0 f i sdk_util.obj
 0001:0002cfc0       ?onGetInviteEmailContent@SDKInterfaceWrap@@UAEXW4PremeetingAPIResult@ZOOMSDK@@_KPB_W@Z 0042dfc0 f i sdk_util.obj
 0001:0002d0d0       ?onHostChangeNotification@SDKInterfaceWrap@@UAEXI@Z 0042e0d0 f i sdk_util.obj
 0001:0002d2b0       ?onHostRequestStartAudio@SDKInterfaceWrap@@UAEXPAVIRequestStartAudioHandler@ZOOMSDK@@@Z 0042e2b0 f i sdk_util.obj
 0001:0002d3c0       ?onHostRequestStartVideo@SDKInterfaceWrap@@UAEXPAVIRequestStartVideoHandler@ZOOMSDK@@@Z 0042e3c0 f i sdk_util.obj
 0001:0002d5a0       ?onInviteBtnClicked@SDKInterfaceWrap@@UAEXAA_N@Z 0042e5a0 f i sdk_util.obj
 0001:0002d6b0       ?onListMeeting@SDKInterfaceWrap@@UAEXW4PremeetingAPIResult@ZOOMSDK@@PAV?$IList@_K@3@@Z 0042e6b0 f i sdk_util.obj
 0001:0002d7c0       ?onLockShareStatus@SDKInterfaceWrap@@UAEX_N@Z 0042e7c0 f i sdk_util.obj
 0001:0002d8d0       ?onLoginRet@SDKInterfaceWrap@@UAEXW4LOGINSTATUS@ZOOMSDK@@PAVIAccountInfo@3@@Z 0042e8d0 f i sdk_util.obj
 0001:0002d9e0       ?onLogout@SDKInterfaceWrap@@UAEXXZ 0042e9e0 f i sdk_util.obj
 0001:0002dae0       ?onLowOrRaiseHandStatusChanged@SDKInterfaceWrap@@UAEX_NI@Z 0042eae0 f i sdk_util.obj
 0001:0002dcd0       ?onMeetingParameterNotification@SDKInterfaceWrap@@UAEXPBUtagMeetingParameter@ZOOMSDK@@@Z 0042ecd0 f i sdk_util.obj
 0001:0002deb0       ?onMeetingSecureKeyNotification@SDKInterfaceWrap@@UAEXPBDHPAVIMeetingExternalSecureKeyHandler@ZOOMSDK@@@Z 0042eeb0 f i sdk_util.obj
 0001:0002e0a0       ?onMeetingStatisticsWarningNotification@SDKInterfaceWrap@@UAEXW4StatisticsWarningType@ZOOMSDK@@@Z 0042f0a0 f i sdk_util.obj
 0001:0002e280       ?onMeetingStatusChanged@SDKInterfaceWrap@@UAEXW4MeetingStatus@ZOOMSDK@@H@Z 0042f280 f i sdk_util.obj
 0001:0002e460       ?onParticipantListBtnClicked@SDKInterfaceWrap@@UAEXXZ 0042f460 f i sdk_util.obj
 0001:0002e570       ?onRecordPriviligeChanged@SDKInterfaceWrap@@UAEX_N@Z 0042f570 f i sdk_util.obj
 0001:0002e680       ?onRecording2MP4Done@SDKInterfaceWrap@@UAEX_NHPB_W@Z 0042f680 f i sdk_util.obj
 0001:0002e7a0       ?onRecording2MP4Processing@SDKInterfaceWrap@@UAEXH@Z 0042f7a0 f i sdk_util.obj
 0001:0002e8b0       ?onRecordingStatus@SDKInterfaceWrap@@UAEXW4RecordingStatus@ZOOMSDK@@@Z 0042f8b0 f i sdk_util.obj
 0001:0002e9c0       ?onRemoteControlStatus@SDKInterfaceWrap@@UAEXW4RemoteControlStatus@ZOOMSDK@@I@Z 0042f9c0 f i sdk_util.obj
 0001:0002eae0       ?onScheduleOrEditMeeting@SDKInterfaceWrap@@UAEXW4PremeetingAPIResult@ZOOMSDK@@_K@Z 0042fae0 f i sdk_util.obj
 0001:0002ebf0       ?onShareContentNotification@SDKInterfaceWrap@@UAEXAAUtagShareInfo@ZOOMSDK@@@Z 0042fbf0 f i sdk_util.obj
 0001:0002ed00       ?onSharingStatus@SDKInterfaceWrap@@UAEXW4SharingStatus@ZOOMSDK@@I@Z 0042fd00 f i sdk_util.obj
 0001:0002ee20       ?onSpotlightVideoChangeNotification@SDKInterfaceWrap@@UAEX_NI@Z 0042fe20 f i sdk_util.obj
 0001:0002f010       ?onStartShareBtnClicked@SDKInterfaceWrap@@UAEXXZ 00430010 f i sdk_util.obj
 0001:0002f120       ?onUserActiveAudioChange@SDKInterfaceWrap@@UAEXPAV?$IList@I@ZOOMSDK@@@Z 00430120 f i sdk_util.obj
 0001:0002f230       ?onUserAudioStatusChange@SDKInterfaceWrap@@UAEXPAV?$IList@PAVIUserAudioStatus@ZOOMSDK@@@ZOOMSDK@@PB_W@Z 00430230 f i sdk_util.obj
 0001:0002f350       ?onUserJoin@SDKInterfaceWrap@@UAEXPAV?$IList@I@ZOOMSDK@@PB_W@Z 00430350 f i sdk_util.obj
 0001:0002f540       ?onUserLeft@SDKInterfaceWrap@@UAEXPAV?$IList@I@ZOOMSDK@@PB_W@Z 00430540 f i sdk_util.obj
 0001:0002f730       ?onUserNameChanged@SDKInterfaceWrap@@UAEXIPB_W@Z 00430730 f i sdk_util.obj
 0001:0002f920       ?onUserVideoStatusChange@SDKInterfaceWrap@@UAEXIW4VideoStatus@ZOOMSDK@@@Z 00430920 f i sdk_util.obj
 0001:0002fb10       ?onZoomAuthIdentityExpired@SDKInterfaceWrap@@UAEXXZ 00430b10 f i sdk_util.obj
 0001:0002fc10       ?onZoomIdentityExpired@SDKInterfaceWrap@@UAEXXZ 00430c10 f i sdk_util.obj
 0001:0002fd10       ?onZoomInviteDialogFailed@SDKInterfaceWrap@@UAEXXZ 00430d10 f i sdk_util.obj
 0001:0002fe20       ??0CSDKAudioSettingsWorkFlow@@QAE@XZ 00430e20 f   SETTINGS_audio_workflow.obj
 0001:0002fe90       ??0IAudioSettingContextEvent@ZOOMSDK@@QAE@XZ 00430e90 f i SETTINGS_audio_workflow.obj
 0001:0002feb0       ??1CSDKAudioSettingsWorkFlow@@UAE@XZ 00430eb0 f   SETTINGS_audio_workflow.obj
 0001:0002ff00       ??_GCSDKAudioSettingsWorkFlow@@UAEPAXI@Z 00430f00 f i SETTINGS_audio_workflow.obj
 0001:0002ff00       ??_ECSDKAudioSettingsWorkFlow@@UAEPAXI@Z 00430f00 f i SETTINGS_audio_workflow.obj
 0001:0002ff30       ?DisableEchoCancellation@CSDKAudioSettingsWorkFlow@@QAE?AW4SDKError@ZOOMSDK@@_N@Z 00430f30 f   SETTINGS_audio_workflow.obj
 0001:0002ff80       ?EnableAlwaysMuteMicWhenJoinVoip@CSDKAudioSettingsWorkFlow@@QAE?AW4SDKError@ZOOMSDK@@_N@Z 00430f80 f   SETTINGS_audio_workflow.obj
 0001:0002ff80       ?EnableTemporalDeNoise@CSDKVideoSettingsWorkFlow@@QAE?AW4SDKError@ZOOMSDK@@_N@Z 00430f80 f   SETTINGS_video_workflow.obj
 0001:0002ffd0       ?EnableAutoAdjustMic@CSDKAudioSettingsWorkFlow@@QAE?AW4SDKError@ZOOMSDK@@_N@Z 00430fd0 f   SETTINGS_audio_workflow.obj
 0001:00030020       ?EnableFaceBeautyEffect@CSDKVideoSettingsWorkFlow@@QAE?AW4SDKError@ZOOMSDK@@_N@Z 00431020 f   SETTINGS_video_workflow.obj
 0001:00030020       ?EnableAutoJoinAudio@CSDKAudioSettingsWorkFlow@@QAE?AW4SDKError@ZOOMSDK@@_N@Z 00431020 f   SETTINGS_audio_workflow.obj
 0001:00030070       ?EnableHighFidelityMusicMode@CSDKAudioSettingsWorkFlow@@QAE?AW4SDKError@ZOOMSDK@@_N@Z 00431070 f   SETTINGS_audio_workflow.obj
 0001:000300c0       ?EnableHoldSpaceKeyToSpeak@CSDKAudioSettingsWorkFlow@@QAE?AW4SDKError@ZOOMSDK@@_N@Z 004310c0 f   SETTINGS_audio_workflow.obj
 0001:000300c0       ?EnableHDVideo@CSDKVideoSettingsWorkFlow@@QAE?AW4SDKError@ZOOMSDK@@_N@Z 004310c0 f   SETTINGS_video_workflow.obj
 0001:00030110       ?EnableMicOriginalInput@CSDKAudioSettingsWorkFlow@@QAE?AW4SDKError@ZOOMSDK@@_N@Z 00431110 f   SETTINGS_audio_workflow.obj
 0001:00030160       ?EnableStereoAudio@CSDKAudioSettingsWorkFlow@@QAE?AW4SDKError@ZOOMSDK@@_N@Z 00431160 f   SETTINGS_audio_workflow.obj
 0001:000301b0       ?EnableSuppressAudioNotify@CSDKAudioSettingsWorkFlow@@QAE?AW4SDKError@ZOOMSDK@@_N@Z 004311b0 f   SETTINGS_audio_workflow.obj
 0001:000301b0       ?EnableAlwaysShowNameOnVideo@CSDKVideoSettingsWorkFlow@@QAE?AW4SDKError@ZOOMSDK@@_N@Z 004311b0 f   SETTINGS_video_workflow.obj
 0001:00030200       ?GetCameraList@CSDKVideoSettingsWorkFlow@@QAEPAV?$IList@PAVICameraInfo@ZOOMSDK@@@ZOOMSDK@@XZ 00431200 f   SETTINGS_video_workflow.obj
 0001:00030200       ?GetMicList@CSDKAudioSettingsWorkFlow@@QAEPAV?$IList@PAVIMicInfo@ZOOMSDK@@@ZOOMSDK@@XZ 00431200 f   SETTINGS_audio_workflow.obj
 0001:00030240       ?GetMicVol@CSDKAudioSettingsWorkFlow@@QAE?AW4SDKError@ZOOMSDK@@AAM@Z 00431240 f   SETTINGS_audio_workflow.obj
 0001:00030290       ?GetSpeakerList@CSDKAudioSettingsWorkFlow@@QAEPAV?$IList@PAVISpeakerInfo@ZOOMSDK@@@ZOOMSDK@@XZ 00431290 f   SETTINGS_audio_workflow.obj
 0001:000302d0       ?GetSpeakerVol@CSDKAudioSettingsWorkFlow@@QAE?AW4SDKError@ZOOMSDK@@AAM@Z 004312d0 f   SETTINGS_audio_workflow.obj
 0001:00030320       ?Init@CSDKAudioSettingsWorkFlow@@QAE?AW4SDKError@ZOOMSDK@@XZ 00431320 f   SETTINGS_audio_workflow.obj
 0001:00030410       ?IsTemporlDeNoiseEnabled@CSDKVideoSettingsWorkFlow@@QAE_NXZ 00431410 f   SETTINGS_video_workflow.obj
 0001:00030410       ?IsAlwaysMuteMicWhenJoinVoipEnabled@CSDKAudioSettingsWorkFlow@@QAE_NXZ 00431410 f   SETTINGS_audio_workflow.obj
 0001:00030450       ?IsAutoAdjustMicEnabled@CSDKAudioSettingsWorkFlow@@QAE_NXZ 00431450 f   SETTINGS_audio_workflow.obj
 0001:00030490       ?IsFaceBeautyEffectEnabled@CSDKVideoSettingsWorkFlow@@QAE_NXZ 00431490 f   SETTINGS_video_workflow.obj
 0001:00030490       ?IsAutoJoinAudioEnabled@CSDKAudioSettingsWorkFlow@@QAE_NXZ 00431490 f   SETTINGS_audio_workflow.obj
 0001:000304d0       ?IsEchoCancellationDisabled@CSDKAudioSettingsWorkFlow@@QAE_NXZ 004314d0 f   SETTINGS_audio_workflow.obj
 0001:00030510       ?IsHighFidelityMusicModeDisabled@CSDKAudioSettingsWorkFlow@@QAE_NXZ 00431510 f   SETTINGS_audio_workflow.obj
 0001:00030550       ?IsHDVideoEnabled@CSDKVideoSettingsWorkFlow@@QAE_NXZ 00431550 f   SETTINGS_video_workflow.obj
 0001:00030550       ?IsHoldSpaceKeyToSpeakEnabled@CSDKAudioSettingsWorkFlow@@QAE_NXZ 00431550 f   SETTINGS_audio_workflow.obj
 0001:00030590       ?IsMicOriginalInputEnable@CSDKAudioSettingsWorkFlow@@QAE_NXZ 00431590 f   SETTINGS_audio_workflow.obj
 0001:000305d0       ?IsStereoAudioEnable@CSDKAudioSettingsWorkFlow@@QAE_NXZ 004315d0 f   SETTINGS_audio_workflow.obj
 0001:00030610       ?IsSuppressAudioNotifyEnabled@CSDKAudioSettingsWorkFlow@@QAE_NXZ 00431610 f   SETTINGS_audio_workflow.obj
 0001:00030610       ?IsAlwaysShowNameOnVideoEnabled@CSDKVideoSettingsWorkFlow@@QAE_NXZ 00431610 f   SETTINGS_video_workflow.obj
 0001:00030650       ?OnNoAudioDeviceIsUseful@CSDKAudioSettingsWorkFlow@@UAEX_N@Z 00431650 f   SETTINGS_audio_workflow.obj
 0001:00030680       ?OnSelectedAudioDeviceIsChanged@CSDKAudioSettingsWorkFlow@@UAEXXZ 00431680 f   SETTINGS_audio_workflow.obj
 0001:000306b0       ?OnTestMicStatusChanged@CSDKAudioSettingsWorkFlow@@UAEXW4SDK_TESTMIC_STATUS@ZOOMSDK@@AA_N@Z 004316b0 f   SETTINGS_audio_workflow.obj
 0001:000306f0       ?SelectMic@CSDKAudioSettingsWorkFlow@@QAE?AW4SDKError@ZOOMSDK@@PB_W0@Z 004316f0 f   SETTINGS_audio_workflow.obj
 0001:00030740       ?SelectSpeaker@CSDKAudioSettingsWorkFlow@@QAE?AW4SDKError@ZOOMSDK@@PB_W0@Z 00431740 f   SETTINGS_audio_workflow.obj
 0001:00030790       ?SetMicVol@CSDKAudioSettingsWorkFlow@@QAE?AW4SDKError@ZOOMSDK@@AAM@Z 00431790 f   SETTINGS_audio_workflow.obj
 0001:000307e0       ?SetSpeakerVol@CSDKAudioSettingsWorkFlow@@QAE?AW4SDKError@ZOOMSDK@@AAM@Z 004317e0 f   SETTINGS_audio_workflow.obj
 0001:00030830       ?TestVideoStopPreview@CSDKVideoSettingsWorkFlow@@QAE?AW4SDKError@ZOOMSDK@@XZ 00431830 f   SETTINGS_video_workflow.obj
 0001:00030830       ?TestMicPlayRecording@CSDKAudioSettingsWorkFlow@@QAE?AW4SDKError@ZOOMSDK@@XZ 00431830 f   SETTINGS_audio_workflow.obj
 0001:00030870       ?TestMicStartRecording@CSDKAudioSettingsWorkFlow@@QAE?AW4SDKError@ZOOMSDK@@PB_W@Z 00431870 f   SETTINGS_audio_workflow.obj
 0001:000308c0       ?TestMicStopTesting@CSDKAudioSettingsWorkFlow@@QAE?AW4SDKError@ZOOMSDK@@XZ 004318c0 f   SETTINGS_audio_workflow.obj
 0001:00030900       ?TestSpeakerStartPlaying@CSDKAudioSettingsWorkFlow@@QAE?AW4SDKError@ZOOMSDK@@PB_W@Z 00431900 f   SETTINGS_audio_workflow.obj
 0001:00030900       ?TestVideoRotate@CSDKVideoSettingsWorkFlow@@QAE?AW4SDKError@ZOOMSDK@@W4PREVIEW_VIDEO_ROTATION_ACTION@3@@Z 00431900 f   SETTINGS_video_workflow.obj
 0001:00030950       ?TestSpeakerStopPlaying@CSDKAudioSettingsWorkFlow@@QAE?AW4SDKError@ZOOMSDK@@XZ 00431950 f   SETTINGS_audio_workflow.obj
 0001:00030990       ?onComputerMicDeviceChanged@CSDKAudioSettingsWorkFlow@@UAEXPAV?$IList@PAVIMicInfo@ZOOMSDK@@@ZOOMSDK@@@Z 00431990 f   SETTINGS_audio_workflow.obj
 0001:000309c0       ?onComputerSpeakerDeviceChanged@CSDKAudioSettingsWorkFlow@@UAEXPAV?$IList@PAVISpeakerInfo@ZOOMSDK@@@ZOOMSDK@@@Z 004319c0 f   SETTINGS_audio_workflow.obj
 0001:000309f0       ??0CSDKFeatureCustomSettingsWorkFlow@@QAE@XZ 004319f0 f   SETTINGS_feature_custom_workflow.obj
 0001:00030a30       ??1CSDKFeatureCustomSettingsWorkFlow@@UAE@XZ 00431a30 f   SETTINGS_feature_custom_workflow.obj
 0001:00030a70       ??_ECSDKFeatureCustomSettingsWorkFlow@@UAEPAXI@Z 00431a70 f i SETTINGS_feature_custom_workflow.obj
 0001:00030a70       ??_GCSDKFeatureCustomSettingsWorkFlow@@UAEPAXI@Z 00431a70 f i SETTINGS_feature_custom_workflow.obj
 0001:00030aa0       ?BackToMeeting@CSDKFeatureCustomSettingsWorkFlow@@QAE?AW4SDKError@ZOOMSDK@@XZ 00431aa0 f   SETTINGS_feature_custom_workflow.obj
 0001:00030ae0       ?DisableRemoteCtrlCopyPasteFeature@CSDKFeatureCustomSettingsWorkFlow@@QAEX_N@Z 00431ae0 f   SETTINGS_feature_custom_workflow.obj
 0001:00030b20       ?DisableSplitScreenModeUIElements@CSDKFeatureCustomSettingsWorkFlow@@QAEX_N@Z 00431b20 f   SETTINGS_feature_custom_workflow.obj
 0001:00030b50       ?EnableAutoAdjustMicVolumeWhenJoinAudio@CSDKFeatureCustomSettingsWorkFlow@@QAEX_N@Z 00431b50 f   SETTINGS_feature_custom_workflow.obj
 0001:00030b90       ?EnableAutoAdjustSpeakerVolumeWhenJoinAudio@CSDKFeatureCustomSettingsWorkFlow@@QAEX_N@Z 00431b90 f   SETTINGS_feature_custom_workflow.obj
 0001:00030bd0       ?EnableAutoEndOtherMeetingWhenStartMeeting@CSDKFeatureCustomSettingsWorkFlow@@QAEX_N@Z 00431bd0 f   SETTINGS_feature_custom_workflow.obj
 0001:00030c10       ?EnableClaimHostFeature@CSDKFeatureCustomSettingsWorkFlow@@QAEX_N@Z 00431c10 f   SETTINGS_feature_custom_workflow.obj
 0001:00030c40       ?EnableForceAutoStartMyVideoWhenJoinMeeting@CSDKFeatureCustomSettingsWorkFlow@@QAEX_N@Z 00431c40 f   SETTINGS_feature_custom_workflow.obj
 0001:00030c80       ?EnableForceAutoStopMyVideoWhenJoinMeeting@CSDKFeatureCustomSettingsWorkFlow@@QAEX_N@Z 00431c80 f   SETTINGS_feature_custom_workflow.obj
 0001:00030cc0       ?EnableGrabShareWithoutReminder@CSDKFeatureCustomSettingsWorkFlow@@QAE?AW4SDKError@ZOOMSDK@@_N@Z 00431cc0 f   SETTINGS_feature_custom_workflow.obj
 0001:00030d10       ?EnableLButtonDBClick4SwitchFullScreenMode@CSDKFeatureCustomSettingsWorkFlow@@QAEX_N@Z 00431d10 f   SETTINGS_feature_custom_workflow.obj
 0001:00030d40       ?EnableShareIOSDevice@CSDKFeatureCustomSettingsWorkFlow@@QAEX_N@Z 00431d40 f   SETTINGS_feature_custom_workflow.obj
 0001:00030d80       ?EnableShareWhiteBoard@CSDKFeatureCustomSettingsWorkFlow@@QAEX_N@Z 00431d80 f   SETTINGS_feature_custom_workflow.obj
 0001:00030dc0       ?EnterFullScreen@CSDKFeatureCustomSettingsWorkFlow@@QAE?AW4SDKError@ZOOMSDK@@_N0@Z 00431dc0 f   SETTINGS_feature_custom_workflow.obj
 0001:00030e10       ?ExitFullScreen@CSDKFeatureCustomSettingsWorkFlow@@QAE?AW4SDKError@ZOOMSDK@@_N0@Z 00431e10 f   SETTINGS_feature_custom_workflow.obj
 0001:00030e60       ?ForceDisableMultiShare@CSDKFeatureCustomSettingsWorkFlow@@QAEX_N@Z 00431e60 f   SETTINGS_feature_custom_workflow.obj
 0001:00030ea0       ?HideChatDlg@CSDKFeatureCustomSettingsWorkFlow@@QAE?AW4SDKError@ZOOMSDK@@XZ 00431ea0 f   SETTINGS_feature_custom_workflow.obj
 0001:00030ee0       ?Init@CSDKUICustomSettingsWorkFlow@@QAE?AW4SDKError@ZOOMSDK@@XZ 00431ee0 f   SETTINGS_ui_custom_workflow.obj
 0001:00030ee0       ?Init@CSDKFeatureCustomSettingsWorkFlow@@QAE?AW4SDKError@ZOOMSDK@@XZ 00431ee0 f   SETTINGS_feature_custom_workflow.obj
 0001:00030f60       ?MoveFloatVideoWnd@CSDKFeatureCustomSettingsWorkFlow@@QAE?AW4SDKError@ZOOMSDK@@HH@Z 00431f60 f   SETTINGS_feature_custom_workflow.obj
 0001:00030fb0       ?PrePopulateWebinarRegistrationInfo@CSDKFeatureCustomSettingsWorkFlow@@QAEXPB_W0@Z 00431fb0 f   SETTINGS_feature_custom_workflow.obj
 0001:00030ff0       ?SetFloatVideoPos@CSDKFeatureCustomSettingsWorkFlow@@QAEXUtagWndPosition@ZOOMSDK@@@Z 00431ff0 f   SETTINGS_feature_custom_workflow.obj
 0001:00031040       ?SetMeetingUIPos@CSDKFeatureCustomSettingsWorkFlow@@QAEXUtagWndPosition@ZOOMSDK@@@Z 00432040 f   SETTINGS_feature_custom_workflow.obj
 0001:00031090       ?ShowChatDlg@CSDKFeatureCustomSettingsWorkFlow@@QAE?AW4SDKError@ZOOMSDK@@AAUtagShowChatDlgParam@3@@Z 00432090 f   SETTINGS_feature_custom_workflow.obj
 0001:000310e0       ?ShowParticipantsListWnd@CSDKFeatureCustomSettingsWorkFlow@@QAE?AW4SDKError@ZOOMSDK@@_NAAPAUHWND__@@@Z 004320e0 f   SETTINGS_feature_custom_workflow.obj
 0001:00031130       ?ShowPreOrNextPageVideo@CSDKFeatureCustomSettingsWorkFlow@@QAE?AW4SDKError@ZOOMSDK@@_N@Z 00432130 f   SETTINGS_feature_custom_workflow.obj
 0001:00031180       ?SwitchSplitScreenMode@CSDKFeatureCustomSettingsWorkFlow@@QAE?AW4SDKError@ZOOMSDK@@_N@Z 00432180 f   SETTINGS_feature_custom_workflow.obj
 0001:000311d0       ?SwitchToVideoWall@CSDKFeatureCustomSettingsWorkFlow@@QAE?AW4SDKError@ZOOMSDK@@XZ 004321d0 f   SETTINGS_feature_custom_workflow.obj
 0001:00031210       ?SwtichToAcitveSpeaker@CSDKFeatureCustomSettingsWorkFlow@@QAE?AW4SDKError@ZOOMSDK@@XZ 00432210 f   SETTINGS_feature_custom_workflow.obj
 0001:00031250       ??0CSDKGeneralSettingsWorkFlow@@QAE@XZ 00432250 f   SETTINGS_general_workflow.obj
 0001:00031290       ??1CSDKGeneralSettingsWorkFlow@@UAE@XZ 00432290 f   SETTINGS_general_workflow.obj
 0001:000312c0       ??_GCSDKGeneralSettingsWorkFlow@@UAEPAXI@Z 004322c0 f i SETTINGS_general_workflow.obj
 0001:000312c0       ??_ECSDKGeneralSettingsWorkFlow@@UAEPAXI@Z 004322c0 f i SETTINGS_general_workflow.obj
 0001:000312f0       ?EnableAutoFullScreenVideoWhenJoinMeeting@CSDKGeneralSettingsWorkFlow@@QAE?AW4SDKError@ZOOMSDK@@_N@Z 004322f0 f   SETTINGS_general_workflow.obj
 0001:000312f0       ?SetUsingGreenScreen@CSDKVirtualBGSettingsWorkFlow@@QAE?AW4SDKError@ZOOMSDK@@_N@Z 004322f0 f   SETTINGS_virtualBG_workflow.obj
 0001:00031340       ?EnableDisplayReminderWindowWhenExit@CSDKGeneralSettingsWorkFlow@@QAE?AW4SDKError@ZOOMSDK@@_N@Z 00432340 f   SETTINGS_general_workflow.obj
 0001:00031390       ?EnableDualScreenMode@CSDKGeneralSettingsWorkFlow@@QAE?AW4SDKError@ZOOMSDK@@_N@Z 00432390 f   SETTINGS_general_workflow.obj
 0001:000313e0       ?EnableShowMyMeetingElapseTime@CSDKGeneralSettingsWorkFlow@@QAE?AW4SDKError@ZOOMSDK@@_N@Z 004323e0 f   SETTINGS_general_workflow.obj
 0001:00031430       ?EnableSplitScreenMode@CSDKGeneralSettingsWorkFlow@@QAE?AW4SDKError@ZOOMSDK@@_N@Z 00432430 f   SETTINGS_general_workflow.obj
 0001:00031430       ?EnableTCPConnectionWhenSharing@CSDKShareSettingsWorkFlow@@QAE?AW4SDKError@ZOOMSDK@@_N@Z 00432430 f   SETTINGS_share_workflow.obj
 0001:00031480       ?Init@CSDKGeneralSettingsWorkFlow@@QAE?AW4SDKError@ZOOMSDK@@XZ 00432480 f   SETTINGS_general_workflow.obj
 0001:000314e0       ?IsAeroModeInSharingTurnOff@CSDKGeneralSettingsWorkFlow@@QAE_NXZ 004324e0 f   SETTINGS_general_workflow.obj
 0001:00031520       ?IsAutoFullScreenVideoWhenJoinMeetingEnabled@CSDKGeneralSettingsWorkFlow@@QAE_NXZ 00432520 f   SETTINGS_general_workflow.obj
 0001:00031560       ?IsDisplayReminderWindowWhenExitEnabled@CSDKGeneralSettingsWorkFlow@@QAE_NXZ 00432560 f   SETTINGS_general_workflow.obj
 0001:000315a0       ?IsDualScreenModeEnabled@CSDKGeneralSettingsWorkFlow@@QAE_NXZ 004325a0 f   SETTINGS_general_workflow.obj
 0001:000315e0       ?IsShowMyMeetingElapseTimeEnabled@CSDKGeneralSettingsWorkFlow@@QAE_NXZ 004325e0 f   SETTINGS_general_workflow.obj
 0001:00031620       ?IsSplitScreenModeEnabled@CSDKGeneralSettingsWorkFlow@@QAE_NXZ 00432620 f   SETTINGS_general_workflow.obj
 0001:00031620       ?IsTCPConnectionWhenSharing@CSDKShareSettingsWorkFlow@@QAE_NXZ 00432620 f   SETTINGS_share_workflow.obj
 0001:00031660       ?TurnOffAeroModeInSharing@CSDKGeneralSettingsWorkFlow@@QAE?AW4SDKError@ZOOMSDK@@_N@Z 00432660 f   SETTINGS_general_workflow.obj
 0001:000316b0       ??0CSDKRecordingSettingsWorkFlow@@QAE@XZ 004326b0 f   SETTINGS_recording_workflow.obj
 0001:000316f0       ??1CSDKRecordingSettingsWorkFlow@@UAE@XZ 004326f0 f   SETTINGS_recording_workflow.obj
 0001:00031720       ??_ECSDKRecordingSettingsWorkFlow@@UAEPAXI@Z 00432720 f i SETTINGS_recording_workflow.obj
 0001:00031720       ??_GCSDKRecordingSettingsWorkFlow@@UAEPAXI@Z 00432720 f i SETTINGS_recording_workflow.obj
 0001:00031750       ?CanGetRecordingManagementURL@CSDKRecordingSettingsWorkFlow@@QAE?AW4SDKError@ZOOMSDK@@AA_N@Z 00432750 f   SETTINGS_recording_workflow.obj
 0001:000317a0       ?EnableAddTimestampWatermark@CSDKRecordingSettingsWorkFlow@@QAE?AW4SDKError@ZOOMSDK@@_N@Z 004327a0 f   SETTINGS_recording_workflow.obj
 0001:000317a0       ?EnableRemoteControlAllApplications@CSDKShareSettingsWorkFlow@@QAE?AW4SDKError@ZOOMSDK@@_N@Z 004327a0 f   SETTINGS_share_workflow.obj
 0001:000317f0       ?EnableAccelerateGPUWhenShare@CSDKShareSettingsWorkFlow@@QAE?AW4SDKError@ZOOMSDK@@_N@Z 004327f0 f   SETTINGS_share_workflow.obj
 0001:000317f0       ?EnableMultiAudioStreamRecord@CSDKRecordingSettingsWorkFlow@@QAE?AW4SDKError@ZOOMSDK@@_N@Z 004327f0 f   SETTINGS_recording_workflow.obj
 0001:00031840       ?EnableGreenBorderWhenShare@CSDKShareSettingsWorkFlow@@QAE?AW4SDKError@ZOOMSDK@@_N@Z 00432840 f   SETTINGS_share_workflow.obj
 0001:00031840       ?EnableOptimizeFor3rdPartyVideoEditor@CSDKRecordingSettingsWorkFlow@@QAE?AW4SDKError@ZOOMSDK@@_N@Z 00432840 f   SETTINGS_recording_workflow.obj
 0001:00031890       ?EnablePlaceVideoNextToShareInRecord@CSDKRecordingSettingsWorkFlow@@QAE?AW4SDKError@ZOOMSDK@@_N@Z 00432890 f   SETTINGS_recording_workflow.obj
 0001:000318e0       ?EnableSelectRecordFileLocationAfterMeeting@CSDKRecordingSettingsWorkFlow@@QAE?AW4SDKError@ZOOMSDK@@_N@Z 004328e0 f   SETTINGS_recording_workflow.obj
 0001:00031930       ?EnableShowVideoThumbnailWhenShare@CSDKRecordingSettingsWorkFlow@@QAE?AW4SDKError@ZOOMSDK@@_N@Z 00432930 f   SETTINGS_recording_workflow.obj
 0001:00031980       ?GetRecordingManagementURL@CSDKRecordingSettingsWorkFlow@@QAEPB_WXZ 00432980 f   SETTINGS_recording_workflow.obj
 0001:000319c0       ?GetRecordingPath@CSDKRecordingSettingsWorkFlow@@QAEPB_WXZ 004329c0 f   SETTINGS_recording_workflow.obj
 0001:00031a00       ?Init@CSDKRecordingSettingsWorkFlow@@QAE?AW4SDKError@ZOOMSDK@@XZ 00432a00 f   SETTINGS_recording_workflow.obj
 0001:00031a60       ?IsRemoteControlAllApplicationsEnabled@CSDKShareSettingsWorkFlow@@QAE_NXZ 00432a60 f   SETTINGS_share_workflow.obj
 0001:00031a60       ?IsAddTimestampWatermarkEnabled@CSDKRecordingSettingsWorkFlow@@QAE_NXZ 00432a60 f   SETTINGS_recording_workflow.obj
 0001:00031aa0       ?IsMultiAudioStreamRecordEnabled@CSDKRecordingSettingsWorkFlow@@QAE_NXZ 00432aa0 f   SETTINGS_recording_workflow.obj
 0001:00031ae0       ?IsOptimizeFor3rdPartyVideoEditorEnabled@CSDKRecordingSettingsWorkFlow@@QAE_NXZ 00432ae0 f   SETTINGS_recording_workflow.obj
 0001:00031ae0       ?IsGreenBorderEnabledWhenShare@CSDKShareSettingsWorkFlow@@QAE_NXZ 00432ae0 f   SETTINGS_share_workflow.obj
 0001:00031b20       ?IsPlaceVideoNextToShareInRecordEnabled@CSDKRecordingSettingsWorkFlow@@QAE_NXZ 00432b20 f   SETTINGS_recording_workflow.obj
 0001:00031b60       ?IsCurrentOSSupportAccelerateGPUWhenShare@CSDKShareSettingsWorkFlow@@QAE_NXZ 00432b60 f   SETTINGS_share_workflow.obj
 0001:00031b60       ?IsSelectRecordFileLocationAfterMeetingEnabled@CSDKRecordingSettingsWorkFlow@@QAE_NXZ 00432b60 f   SETTINGS_recording_workflow.obj
 0001:00031ba0       ?IsShowVideoThumbnailWhenShareEnabled@CSDKRecordingSettingsWorkFlow@@QAE_NXZ 00432ba0 f   SETTINGS_recording_workflow.obj
 0001:00031be0       ?SetRecordingPath@CSDKRecordingSettingsWorkFlow@@QAE?AW4SDKError@ZOOMSDK@@PB_W@Z 00432be0 f   SETTINGS_recording_workflow.obj
 0001:00031c30       ??0CSDKShareSettingsWorkFlow@@QAE@XZ 00432c30 f   SETTINGS_share_workflow.obj
 0001:00031c70       ??1CSDKShareSettingsWorkFlow@@UAE@XZ 00432c70 f   SETTINGS_share_workflow.obj
 0001:00031ca0       ??_ECSDKShareSettingsWorkFlow@@UAEPAXI@Z 00432ca0 f i SETTINGS_share_workflow.obj
 0001:00031ca0       ??_GCSDKShareSettingsWorkFlow@@UAEPAXI@Z 00432ca0 f i SETTINGS_share_workflow.obj
 0001:00031cd0       ?EnableAnnotateHardwareAcceleration@CSDKShareSettingsWorkFlow@@QAE?AW4SDKError@ZOOMSDK@@_N@Z 00432cd0 f   SETTINGS_share_workflow.obj
 0001:00031d20       ?EnableLimitFPSWhenShare@CSDKShareSettingsWorkFlow@@QAE?AW4SDKError@ZOOMSDK@@_N@Z 00432d20 f   SETTINGS_share_workflow.obj
 0001:00031d70       ?GetLimitFPSValueWhenShare@CSDKShareSettingsWorkFlow@@QAE?AW4LimitFPSValue@ZOOMSDK@@XZ 00432d70 f   SETTINGS_share_workflow.obj
 0001:00031db0       ?GetScreenCaptureMode@CSDKShareSettingsWorkFlow@@QAE?AW4SDKError@ZOOMSDK@@AAW4ScreenCaptureMode@3@@Z 00432db0 f   SETTINGS_share_workflow.obj
 0001:00031e00       ?GetWindowSizeTypeWhenViewShare@CSDKShareSettingsWorkFlow@@QAE?AW4WindowSizeType@ZOOMSDK@@XZ 00432e00 f   SETTINGS_share_workflow.obj
 0001:00031e40       ?Init@CSDKShareSettingsWorkFlow@@QAE?AW4SDKError@ZOOMSDK@@XZ 00432e40 f   SETTINGS_share_workflow.obj
 0001:00031ea0       ?IsAccelerateGPUWhenShareEnabled@CSDKShareSettingsWorkFlow@@QAE_NXZ 00432ea0 f   SETTINGS_share_workflow.obj
 0001:00031ee0       ?IsAnnotateHardwareAcceleration@CSDKShareSettingsWorkFlow@@QAE_NXZ 00432ee0 f   SETTINGS_share_workflow.obj
 0001:00031f20       ?IsLimitFPSEnabledWhenShare@CSDKShareSettingsWorkFlow@@QAE_NXZ 00432f20 f   SETTINGS_share_workflow.obj
 0001:00031f60       ?SetLimitFPSValueWhenShare@CSDKShareSettingsWorkFlow@@QAE?AW4SDKError@ZOOMSDK@@W4LimitFPSValue@3@@Z 00432f60 f   SETTINGS_share_workflow.obj
 0001:00031fb0       ?SetScreenCaptureMode@CSDKShareSettingsWorkFlow@@QAE?AW4SDKError@ZOOMSDK@@W4ScreenCaptureMode@3@@Z 00432fb0 f   SETTINGS_share_workflow.obj
 0001:00032000       ?SetWindowSizeTypeWhenViewShare@CSDKShareSettingsWorkFlow@@QAE?AW4SDKError@ZOOMSDK@@W4WindowSizeType@3@@Z 00433000 f   SETTINGS_share_workflow.obj
 0001:00032050       ??$?0IPAVIUserInfo@ZOOMSDK@@$0A@@?$pair@$$CBIPAVIUserInfo@ZOOMSDK@@@std@@QAE@$$QAU?$pair@IPAVIUserInfo@ZOOMSDK@@@1@@Z 00433050 f i user_manager.obj
 0001:00032050       ??$?0HW4bkItemType@@$0A@@?$pair@$$CBHW4bkItemType@@@std@@QAE@$$QAU?$pair@HW4bkItemType@@@1@@Z 00433050 f i settings_ui.obj
 0001:00032090       ??$?0U?$pair@HW4bkItemType@@@std@@@?$_Tree_temp_node@V?$allocator@U?$_Tree_node@U?$pair@$$CBHW4bkItemType@@@std@@PAX@std@@@std@@@std@@QAE@AAV?$allocator@U?$_Tree_node@U?$pair@$$CBHW4bkItemType@@@std@@PAX@std@@@1@PAU?$_Tree_node@U?$pair@$$CBHW4bkItemType@@@std@@PAX@1@$$QAU?$pair@HW4bkItemType@@@1@@Z 00433090 f i settings_ui.obj
 0001:00032090       ??$?0U?$pair@IPAVIUserInfo@ZOOMSDK@@@std@@@?$_Tree_temp_node@V?$allocator@U?$_Tree_node@U?$pair@$$CBIPAVIUserInfo@ZOOMSDK@@@std@@PAX@std@@@std@@@std@@QAE@AAV?$allocator@U?$_Tree_node@U?$pair@$$CBIPAVIUserInfo@ZOOMSDK@@@std@@PAX@std@@@1@PAU?$_Tree_node@U?$pair@$$CBIPAVIUserInfo@ZOOMSDK@@@std@@PAX@1@$$QAU?$pair@IPAVIUserInfo@ZOOMSDK@@@1@@Z 00433090 f i user_manager.obj
 0001:00032170       ??$_Buyheadnode@V?$allocator@U?$_Tree_node@U?$pair@$$CBIPAVIUserInfo@ZOOMSDK@@@std@@PAX@std@@@std@@@?$_Tree_node@U?$pair@$$CBIPAVIUserInfo@ZOOMSDK@@@std@@PAX@std@@SAPAU01@AAV?$allocator@U?$_Tree_node@U?$pair@$$CBIPAVIUserInfo@ZOOMSDK@@@std@@PAX@std@@@1@@Z 00433170 f i user_manager.obj
 0001:00032170       ??$_Buyheadnode@V?$allocator@U?$_Tree_node@U?$pair@$$CBHW4bkItemType@@@std@@PAX@std@@@std@@@?$_Tree_node@U?$pair@$$CBHW4bkItemType@@@std@@PAX@std@@SAPAU01@AAV?$allocator@U?$_Tree_node@U?$pair@$$CBHW4bkItemType@@@std@@PAX@std@@@1@@Z 00433170 f i settings_ui.obj
 0001:000321d0       ??$_Emplace@U?$pair@HW4bkItemType@@@std@@@?$_Tree@V?$_Tmap_traits@HW4bkItemType@@U?$less@H@std@@V?$allocator@U?$pair@$$CBHW4bkItemType@@@std@@@3@$0A@@std@@@std@@IAE?AU?$pair@PAU?$_Tree_node@U?$pair@$$CBHW4bkItemType@@@std@@PAX@std@@_N@1@$$QAU?$pair@HW4bkItemType@@@1@@Z 004331d0 f i settings_ui.obj
 0001:000322c0       ??$_Erase_head@V?$allocator@U?$_Tree_node@U?$pair@$$CBIPAVIUserInfo@ZOOMSDK@@@std@@PAX@std@@@std@@@?$_Tree_val@U?$_Tree_simple_types@U?$pair@$$CBIPAVIUserInfo@ZOOMSDK@@@std@@@std@@@std@@QAEXAAV?$allocator@U?$_Tree_node@U?$pair@$$CBIPAVIUserInfo@ZOOMSDK@@@std@@PAX@std@@@1@@Z 004332c0 f i user_manager.obj
